---
triple:          'arm64-apple-darwin'
binary-path:     motex
relocations:
  - { offsetInCU: 0x142DC, offset: 0x142DC, size: 0x8, addend: 0x0, symName: __ZNSt3__110destroy_atB8ue170006INS_4pairIKNS_12basic_stringIcNS_11char_traitsIcEENS_9allocatorIcEEEE14BooleanSettingEELi0EEEvPT_, symObjAddr: 0x8C8, symBinAddr: 0x1000039A0, symSize: 0x24 }
  - { offsetInCU: 0x14313, offset: 0x14313, size: 0x8, addend: 0x0, symName: __ZNSt3__112__destroy_atB8ue170006INS_4pairIKNS_12basic_stringIcNS_11char_traitsIcEENS_9allocatorIcEEEE14BooleanSettingEELi0EEEvPT_, symObjAddr: 0x8EC, symBinAddr: 0x1000039C4, symSize: 0x24 }
  - { offsetInCU: 0x1434A, offset: 0x1434A, size: 0x8, addend: 0x0, symName: __ZNSt3__112__to_addressB8ue170006INS_12basic_stringIcNS_11char_traitsIcEENS_9allocatorIcEEEEEEPT_S8_, symObjAddr: 0xD7C, symBinAddr: 0x100003E54, symSize: 0x14 }
  - { offsetInCU: 0x1437F, offset: 0x1437F, size: 0x8, addend: 0x0, symName: __ZNSt3__110destroy_atB8ue170006INS_12basic_stringIcNS_11char_traitsIcEENS_9allocatorIcEEEELi0EEEvPT_, symObjAddr: 0xD90, symBinAddr: 0x100003E68, symSize: 0x24 }
  - { offsetInCU: 0x143B6, offset: 0x143B6, size: 0x8, addend: 0x0, symName: __ZNSt3__112__destroy_atB8ue170006INS_12basic_stringIcNS_11char_traitsIcEENS_9allocatorIcEEEELi0EEEvPT_, symObjAddr: 0xDB4, symBinAddr: 0x100003E8C, symSize: 0x24 }
  - { offsetInCU: 0x143ED, offset: 0x143ED, size: 0x8, addend: 0x0, symName: __ZNSt3__119__libcpp_deallocateB8ue170006EPvmm, symObjAddr: 0xE8C, symBinAddr: 0x100003F64, symSize: 0x60 }
  - { offsetInCU: 0x14452, offset: 0x14452, size: 0x8, addend: 0x0, symName: __ZNSt3__124__is_overaligned_for_newB8ue170006Em, symObjAddr: 0xEEC, symBinAddr: 0x100003FC4, symSize: 0x20 }
  - { offsetInCU: 0x14480, offset: 0x14480, size: 0x8, addend: 0x0, symName: __ZNSt3__127__do_deallocate_handle_sizeB8ue170006IJSt11align_val_tEEEvPvmDpT_, symObjAddr: 0xF0C, symBinAddr: 0x100003FE4, symSize: 0x30 }
  - { offsetInCU: 0x144D3, offset: 0x144D3, size: 0x8, addend: 0x0, symName: __ZNSt3__127__do_deallocate_handle_sizeB8ue170006IJEEEvPvmDpT_, symObjAddr: 0xF3C, symBinAddr: 0x100004014, symSize: 0x28 }
  - { offsetInCU: 0x14511, offset: 0x14511, size: 0x8, addend: 0x0, symName: __ZNSt3__124__libcpp_operator_deleteB8ue170006IJPvSt11align_val_tEEEvDpT_, symObjAddr: 0xF64, symBinAddr: 0x10000403C, symSize: 0x2C }
  - { offsetInCU: 0x1455A, offset: 0x1455A, size: 0x8, addend: 0x0, symName: __ZNSt3__124__libcpp_operator_deleteB8ue170006IJPvEEEvDpT_, symObjAddr: 0xF90, symBinAddr: 0x100004068, symSize: 0x24 }
  - { offsetInCU: 0x1458F, offset: 0x1458F, size: 0x8, addend: 0x0, symName: __ZNSt3__17launderB8ue170006INS_4pairIKNS_12basic_stringIcNS_11char_traitsIcEENS_9allocatorIcEEEE14BooleanSettingEEEEPT_SC_, symObjAddr: 0x1070, symBinAddr: 0x100004148, symSize: 0x24 }
  - { offsetInCU: 0x145C6, offset: 0x145C6, size: 0x8, addend: 0x0, symName: __ZNSt3__19__launderB8ue170006INS_4pairIKNS_12basic_stringIcNS_11char_traitsIcEENS_9allocatorIcEEEE14BooleanSettingEEEEPT_SC_, symObjAddr: 0x1094, symBinAddr: 0x10000416C, symSize: 0x14 }
  - { offsetInCU: 0x145FD, offset: 0x145FD, size: 0x8, addend: 0x0, symName: __ZNSt3__118__constexpr_strlenB8ue170006EPKc, symObjAddr: 0x19A0, symBinAddr: 0x100004A78, symSize: 0x24 }
  - { offsetInCU: 0x175FB, offset: 0x175FB, size: 0x8, addend: 0x0, symName: _main, symObjAddr: 0x0, symBinAddr: 0x1000030D8, symSize: 0x144 }
  - { offsetInCU: 0x17722, offset: 0x17722, size: 0x8, addend: 0x0, symName: __ZNSt3__18optionalINS_12basic_stringIcNS_11char_traitsIcEENS_9allocatorIcEEEEEC1B8ue170006ENS_9nullopt_tE, symObjAddr: 0x144, symBinAddr: 0x10000321C, symSize: 0x2C }
  - { offsetInCU: 0x17755, offset: 0x17755, size: 0x8, addend: 0x0, symName: __ZNSt3__18optionalINS_12basic_stringIcNS_11char_traitsIcEENS_9allocatorIcEEEEED1Ev, symObjAddr: 0x170, symBinAddr: 0x100003248, symSize: 0x2C }
  - { offsetInCU: 0x18F8E, offset: 0x18F8E, size: 0x8, addend: 0x0, symName: __ZN16EditorControllerD1Ev, symObjAddr: 0x19C, symBinAddr: 0x100003274, symSize: 0x2C }
  - { offsetInCU: 0x18FBB, offset: 0x18FBB, size: 0x8, addend: 0x0, symName: __ZNSt3__18optionalINS_12basic_stringIcNS_11char_traitsIcEENS_9allocatorIcEEEEEC1B8ue170006IRPcLi0EEEOT_, symObjAddr: 0x1C8, symBinAddr: 0x1000032A0, symSize: 0x34 }
  - { offsetInCU: 0x19001, offset: 0x19001, size: 0x8, addend: 0x0, symName: __ZNSt3__18optionalINS_12basic_stringIcNS_11char_traitsIcEENS_9allocatorIcEEEEEC2B8ue170006ENS_9nullopt_tE, symObjAddr: 0x1FC, symBinAddr: 0x1000032D4, symSize: 0x2C }
  - { offsetInCU: 0x19034, offset: 0x19034, size: 0x8, addend: 0x0, symName: __ZNSt3__127__optional_move_assign_baseINS_12basic_stringIcNS_11char_traitsIcEENS_9allocatorIcEEEELb0EEC2B8ue170006Ev, symObjAddr: 0x228, symBinAddr: 0x100003300, symSize: 0x2C }
  - { offsetInCU: 0x1905C, offset: 0x1905C, size: 0x8, addend: 0x0, symName: __ZNSt3__127__optional_copy_assign_baseINS_12basic_stringIcNS_11char_traitsIcEENS_9allocatorIcEEEELb0EEC2B8ue170006Ev, symObjAddr: 0x254, symBinAddr: 0x10000332C, symSize: 0x2C }
  - { offsetInCU: 0x19084, offset: 0x19084, size: 0x8, addend: 0x0, symName: __ZNSt3__120__optional_move_baseINS_12basic_stringIcNS_11char_traitsIcEENS_9allocatorIcEEEELb0EEC2B8ue170006Ev, symObjAddr: 0x280, symBinAddr: 0x100003358, symSize: 0x2C }
  - { offsetInCU: 0x190AC, offset: 0x190AC, size: 0x8, addend: 0x0, symName: __ZNSt3__120__optional_copy_baseINS_12basic_stringIcNS_11char_traitsIcEENS_9allocatorIcEEEELb0EEC2B8ue170006Ev, symObjAddr: 0x2AC, symBinAddr: 0x100003384, symSize: 0x2C }
  - { offsetInCU: 0x190D4, offset: 0x190D4, size: 0x8, addend: 0x0, symName: __ZNSt3__123__optional_storage_baseINS_12basic_stringIcNS_11char_traitsIcEENS_9allocatorIcEEEELb0EEC2Ev, symObjAddr: 0x2D8, symBinAddr: 0x1000033B0, symSize: 0x2C }
  - { offsetInCU: 0x19100, offset: 0x19100, size: 0x8, addend: 0x0, symName: __ZNSt3__124__optional_destruct_baseINS_12basic_stringIcNS_11char_traitsIcEENS_9allocatorIcEEEELb0EEC2B8ue170006Ev, symObjAddr: 0x304, symBinAddr: 0x1000033DC, symSize: 0x1C }
  - { offsetInCU: 0x19127, offset: 0x19127, size: 0x8, addend: 0x0, symName: __ZNSt3__18optionalINS_12basic_stringIcNS_11char_traitsIcEENS_9allocatorIcEEEEED2Ev, symObjAddr: 0x320, symBinAddr: 0x1000033F8, symSize: 0x2C }
  - { offsetInCU: 0x19152, offset: 0x19152, size: 0x8, addend: 0x0, symName: __ZNSt3__127__optional_move_assign_baseINS_12basic_stringIcNS_11char_traitsIcEENS_9allocatorIcEEEELb0EED2Ev, symObjAddr: 0x34C, symBinAddr: 0x100003424, symSize: 0x2C }
  - { offsetInCU: 0x1917D, offset: 0x1917D, size: 0x8, addend: 0x0, symName: __ZNSt3__127__optional_copy_assign_baseINS_12basic_stringIcNS_11char_traitsIcEENS_9allocatorIcEEEELb0EED2Ev, symObjAddr: 0x378, symBinAddr: 0x100003450, symSize: 0x2C }
  - { offsetInCU: 0x191A8, offset: 0x191A8, size: 0x8, addend: 0x0, symName: __ZNSt3__120__optional_move_baseINS_12basic_stringIcNS_11char_traitsIcEENS_9allocatorIcEEEELb0EED2Ev, symObjAddr: 0x3A4, symBinAddr: 0x10000347C, symSize: 0x2C }
  - { offsetInCU: 0x191D3, offset: 0x191D3, size: 0x8, addend: 0x0, symName: __ZNSt3__120__optional_copy_baseINS_12basic_stringIcNS_11char_traitsIcEENS_9allocatorIcEEEELb0EED2Ev, symObjAddr: 0x3D0, symBinAddr: 0x1000034A8, symSize: 0x2C }
  - { offsetInCU: 0x191FE, offset: 0x191FE, size: 0x8, addend: 0x0, symName: __ZNSt3__123__optional_storage_baseINS_12basic_stringIcNS_11char_traitsIcEENS_9allocatorIcEEEELb0EED2Ev, symObjAddr: 0x3FC, symBinAddr: 0x1000034D4, symSize: 0x2C }
  - { offsetInCU: 0x19229, offset: 0x19229, size: 0x8, addend: 0x0, symName: __ZNSt3__124__optional_destruct_baseINS_12basic_stringIcNS_11char_traitsIcEENS_9allocatorIcEEEELb0EED2B8ue170006Ev, symObjAddr: 0x428, symBinAddr: 0x100003500, symSize: 0x48 }
  - { offsetInCU: 0x19251, offset: 0x19251, size: 0x8, addend: 0x0, symName: __ZN16EditorControllerD2Ev, symObjAddr: 0x470, symBinAddr: 0x100003548, symSize: 0x64 }
  - { offsetInCU: 0x19279, offset: 0x19279, size: 0x8, addend: 0x0, symName: __ZN8SettingsD1Ev, symObjAddr: 0x4D4, symBinAddr: 0x1000035AC, symSize: 0x2C }
  - { offsetInCU: 0x192A1, offset: 0x192A1, size: 0x8, addend: 0x0, symName: __ZN9UiHandlerD1Ev, symObjAddr: 0x500, symBinAddr: 0x1000035D8, symSize: 0x2C }
  - { offsetInCU: 0x192C9, offset: 0x192C9, size: 0x8, addend: 0x0, symName: __ZN11ModeManagerD1Ev, symObjAddr: 0x52C, symBinAddr: 0x100003604, symSize: 0x2C }
  - { offsetInCU: 0x192F1, offset: 0x192F1, size: 0x8, addend: 0x0, symName: __ZN11EditorStateD1Ev, symObjAddr: 0x558, symBinAddr: 0x100003630, symSize: 0x2C }
  - { offsetInCU: 0x19319, offset: 0x19319, size: 0x8, addend: 0x0, symName: __ZN16EditorControllerD0Ev, symObjAddr: 0x584, symBinAddr: 0x10000365C, symSize: 0x30 }
  - { offsetInCU: 0x19341, offset: 0x19341, size: 0x8, addend: 0x0, symName: __ZN8SettingsD2Ev, symObjAddr: 0x5B4, symBinAddr: 0x10000368C, symSize: 0x2C }
  - { offsetInCU: 0x19369, offset: 0x19369, size: 0x8, addend: 0x0, symName: __ZNSt3__113unordered_mapINS_12basic_stringIcNS_11char_traitsIcEENS_9allocatorIcEEEE14BooleanSettingNS_4hashIS6_EENS_8equal_toIS6_EENS4_INS_4pairIKS6_S7_EEEEED1B8ue170006Ev, symObjAddr: 0x5E0, symBinAddr: 0x1000036B8, symSize: 0x2C }
  - { offsetInCU: 0x19391, offset: 0x19391, size: 0x8, addend: 0x0, symName: __ZNSt3__113unordered_mapINS_12basic_stringIcNS_11char_traitsIcEENS_9allocatorIcEEEE14BooleanSettingNS_4hashIS6_EENS_8equal_toIS6_EENS4_INS_4pairIKS6_S7_EEEEED2B8ue170006Ev, symObjAddr: 0x60C, symBinAddr: 0x1000036E4, symSize: 0x2C }
  - { offsetInCU: 0x193BA, offset: 0x193BA, size: 0x8, addend: 0x0, symName: __ZNSt3__112__hash_tableINS_17__hash_value_typeINS_12basic_stringIcNS_11char_traitsIcEENS_9allocatorIcEEEE14BooleanSettingEENS_22__unordered_map_hasherIS7_S9_NS_4hashIS7_EENS_8equal_toIS7_EELb1EEENS_21__unordered_map_equalIS7_S9_SE_SC_Lb1EEENS5_IS9_EEED1Ev, symObjAddr: 0x638, symBinAddr: 0x100003710, symSize: 0x2C }
  - { offsetInCU: 0x193E5, offset: 0x193E5, size: 0x8, addend: 0x0, symName: __ZNSt3__112__hash_tableINS_17__hash_value_typeINS_12basic_stringIcNS_11char_traitsIcEENS_9allocatorIcEEEE14BooleanSettingEENS_22__unordered_map_hasherIS7_S9_NS_4hashIS7_EENS_8equal_toIS7_EELb1EEENS_21__unordered_map_equalIS7_S9_SE_SC_Lb1EEENS5_IS9_EEED2Ev, symObjAddr: 0x664, symBinAddr: 0x10000373C, symSize: 0x48 }
  - { offsetInCU: 0x19410, offset: 0x19410, size: 0x8, addend: 0x0, symName: __ZNSt3__112__hash_tableINS_17__hash_value_typeINS_12basic_stringIcNS_11char_traitsIcEENS_9allocatorIcEEEE14BooleanSettingEENS_22__unordered_map_hasherIS7_S9_NS_4hashIS7_EENS_8equal_toIS7_EELb1EEENS_21__unordered_map_equalIS7_S9_SE_SC_Lb1EEENS5_IS9_EEE17__deallocate_nodeEPNS_16__hash_node_baseIPNS_11__hash_nodeIS9_PvEEEE, symObjAddr: 0x6AC, symBinAddr: 0x100003784, symSize: 0xA8 }
  - { offsetInCU: 0x19479, offset: 0x19479, size: 0x8, addend: 0x0, symName: __ZNSt3__117__compressed_pairINS_16__hash_node_baseIPNS_11__hash_nodeINS_17__hash_value_typeINS_12basic_stringIcNS_11char_traitsIcEENS_9allocatorIcEEEE14BooleanSettingEEPvEEEENS7_ISD_EEE5firstB8ue170006Ev, symObjAddr: 0x754, symBinAddr: 0x10000382C, symSize: 0x24 }
  - { offsetInCU: 0x1949D, offset: 0x1949D, size: 0x8, addend: 0x0, symName: __ZNSt3__110unique_ptrIA_PNS_16__hash_node_baseIPNS_11__hash_nodeINS_17__hash_value_typeINS_12basic_stringIcNS_11char_traitsIcEENS_9allocatorIcEEEE14BooleanSettingEEPvEEEENS_25__bucket_list_deallocatorINS7_ISG_EEEEED1B8ue170006Ev, symObjAddr: 0x778, symBinAddr: 0x100003850, symSize: 0x2C }
  - { offsetInCU: 0x194C6, offset: 0x194C6, size: 0x8, addend: 0x0, symName: __ZNSt3__112__hash_tableINS_17__hash_value_typeINS_12basic_stringIcNS_11char_traitsIcEENS_9allocatorIcEEEE14BooleanSettingEENS_22__unordered_map_hasherIS7_S9_NS_4hashIS7_EENS_8equal_toIS7_EELb1EEENS_21__unordered_map_equalIS7_S9_SE_SC_Lb1EEENS5_IS9_EEE12__node_allocB8ue170006Ev, symObjAddr: 0x7A4, symBinAddr: 0x10000387C, symSize: 0x28 }
  - { offsetInCU: 0x194EB, offset: 0x194EB, size: 0x8, addend: 0x0, symName: __ZNSt3__116__hash_node_baseIPNS_11__hash_nodeINS_17__hash_value_typeINS_12basic_stringIcNS_11char_traitsIcEENS_9allocatorIcEEEE14BooleanSettingEEPvEEE8__upcastB8ue170006Ev, symObjAddr: 0x7CC, symBinAddr: 0x1000038A4, symSize: 0x24 }
  - { offsetInCU: 0x19515, offset: 0x19515, size: 0x8, addend: 0x0, symName: __ZNSt3__116allocator_traitsINS_9allocatorINS_11__hash_nodeINS_17__hash_value_typeINS_12basic_stringIcNS_11char_traitsIcEENS1_IcEEEE14BooleanSettingEEPvEEEEE7destroyB8ue170006INS_4pairIKS8_S9_EEvvEEvRSD_PT_, symObjAddr: 0x7F0, symBinAddr: 0x1000038C8, symSize: 0x28 }
  - { offsetInCU: 0x1954F, offset: 0x1954F, size: 0x8, addend: 0x0, symName: __ZNSt3__122__hash_key_value_typesINS_17__hash_value_typeINS_12basic_stringIcNS_11char_traitsIcEENS_9allocatorIcEEEE14BooleanSettingEEE9__get_ptrB8ue170006ERS9_, symObjAddr: 0x818, symBinAddr: 0x1000038F0, symSize: 0x24 }
  - { offsetInCU: 0x19572, offset: 0x19572, size: 0x8, addend: 0x0, symName: __ZNSt3__116allocator_traitsINS_9allocatorINS_11__hash_nodeINS_17__hash_value_typeINS_12basic_stringIcNS_11char_traitsIcEENS1_IcEEEE14BooleanSettingEEPvEEEEE10deallocateB8ue170006ERSD_PSC_m, symObjAddr: 0x848, symBinAddr: 0x100003920, symSize: 0x34 }
  - { offsetInCU: 0x195B4, offset: 0x195B4, size: 0x8, addend: 0x0, symName: __ZNSt3__117__compressed_pairINS_16__hash_node_baseIPNS_11__hash_nodeINS_17__hash_value_typeINS_12basic_stringIcNS_11char_traitsIcEENS_9allocatorIcEEEE14BooleanSettingEEPvEEEENS7_ISD_EEE6secondB8ue170006Ev, symObjAddr: 0x87C, symBinAddr: 0x100003954, symSize: 0x24 }
  - { offsetInCU: 0x195D9, offset: 0x195D9, size: 0x8, addend: 0x0, symName: __ZNSt3__122__compressed_pair_elemINS_9allocatorINS_11__hash_nodeINS_17__hash_value_typeINS_12basic_stringIcNS_11char_traitsIcEENS1_IcEEEE14BooleanSettingEEPvEEEELi1ELb1EE5__getB8ue170006Ev, symObjAddr: 0x8A0, symBinAddr: 0x100003978, symSize: 0x14 }
  - { offsetInCU: 0x195FE, offset: 0x195FE, size: 0x8, addend: 0x0, symName: __ZNSt3__114pointer_traitsIPNS_16__hash_node_baseIPNS_11__hash_nodeINS_17__hash_value_typeINS_12basic_stringIcNS_11char_traitsIcEENS_9allocatorIcEEEE14BooleanSettingEEPvEEEEE10pointer_toB8ue170006ERSF_, symObjAddr: 0x8B4, symBinAddr: 0x10000398C, symSize: 0x14 }
  - { offsetInCU: 0x19621, offset: 0x19621, size: 0x8, addend: 0x0, symName: __ZNSt3__14pairIKNS_12basic_stringIcNS_11char_traitsIcEENS_9allocatorIcEEEE14BooleanSettingED1Ev, symObjAddr: 0x910, symBinAddr: 0x1000039E8, symSize: 0x2C }
  - { offsetInCU: 0x1964C, offset: 0x1964C, size: 0x8, addend: 0x0, symName: __ZNSt3__14pairIKNS_12basic_stringIcNS_11char_traitsIcEENS_9allocatorIcEEEE14BooleanSettingED2Ev, symObjAddr: 0x93C, symBinAddr: 0x100003A14, symSize: 0x38 }
  - { offsetInCU: 0x1967C, offset: 0x1967C, size: 0x8, addend: 0x0, symName: __ZN14BooleanSettingD1Ev, symObjAddr: 0x974, symBinAddr: 0x100003A4C, symSize: 0x2C }
  - { offsetInCU: 0x196A7, offset: 0x196A7, size: 0x8, addend: 0x0, symName: __ZN14BooleanSettingD2Ev, symObjAddr: 0x9A0, symBinAddr: 0x100003A78, symSize: 0x3C }
  - { offsetInCU: 0x196D1, offset: 0x196D1, size: 0x8, addend: 0x0, symName: __ZNSt3__16vectorINS_12basic_stringIcNS_11char_traitsIcEENS_9allocatorIcEEEENS4_IS6_EEED1B8ue170006Ev, symObjAddr: 0x9DC, symBinAddr: 0x100003AB4, symSize: 0x2C }
  - { offsetInCU: 0x196F9, offset: 0x196F9, size: 0x8, addend: 0x0, symName: __ZNSt3__16vectorINS_12basic_stringIcNS_11char_traitsIcEENS_9allocatorIcEEEENS4_IS6_EEED2B8ue170006Ev, symObjAddr: 0xA08, symBinAddr: 0x100003AE0, symSize: 0x44 }
  - { offsetInCU: 0x19721, offset: 0x19721, size: 0x8, addend: 0x0, symName: __ZNSt3__16vectorINS_12basic_stringIcNS_11char_traitsIcEENS_9allocatorIcEEEENS4_IS6_EEE16__destroy_vectorC1B8ue170006ERS8_, symObjAddr: 0xA4C, symBinAddr: 0x100003B24, symSize: 0x34 }
  - { offsetInCU: 0x19759, offset: 0x19759, size: 0x8, addend: 0x0, symName: __ZNSt3__16vectorINS_12basic_stringIcNS_11char_traitsIcEENS_9allocatorIcEEEENS4_IS6_EEE16__destroy_vectorclB8ue170006Ev, symObjAddr: 0xA80, symBinAddr: 0x100003B58, symSize: 0x90 }
  - { offsetInCU: 0x1977E, offset: 0x1977E, size: 0x8, addend: 0x0, symName: __ZNSt3__16vectorINS_12basic_stringIcNS_11char_traitsIcEENS_9allocatorIcEEEENS4_IS6_EEE16__destroy_vectorC2B8ue170006ERS8_, symObjAddr: 0xB10, symBinAddr: 0x100003BE8, symSize: 0x20 }
  - { offsetInCU: 0x197B5, offset: 0x197B5, size: 0x8, addend: 0x0, symName: __ZNSt3__16vectorINS_12basic_stringIcNS_11char_traitsIcEENS_9allocatorIcEEEENS4_IS6_EEE7__clearB8ue170006Ev, symObjAddr: 0xB30, symBinAddr: 0x100003C08, symSize: 0x28 }
  - { offsetInCU: 0x197DA, offset: 0x197DA, size: 0x8, addend: 0x0, symName: __ZNKSt3__16vectorINS_12basic_stringIcNS_11char_traitsIcEENS_9allocatorIcEEEENS4_IS6_EEE17__annotate_deleteB8ue170006Ev, symObjAddr: 0xB58, symBinAddr: 0x100003C30, symSize: 0xD4 }
  - { offsetInCU: 0x197FF, offset: 0x197FF, size: 0x8, addend: 0x0, symName: __ZNSt3__116allocator_traitsINS_9allocatorINS_12basic_stringIcNS_11char_traitsIcEENS1_IcEEEEEEE10deallocateB8ue170006ERS7_PS6_m, symObjAddr: 0xC2C, symBinAddr: 0x100003D04, symSize: 0x34 }
  - { offsetInCU: 0x19841, offset: 0x19841, size: 0x8, addend: 0x0, symName: __ZNSt3__16vectorINS_12basic_stringIcNS_11char_traitsIcEENS_9allocatorIcEEEENS4_IS6_EEE7__allocB8ue170006Ev, symObjAddr: 0xC60, symBinAddr: 0x100003D38, symSize: 0x28 }
  - { offsetInCU: 0x19866, offset: 0x19866, size: 0x8, addend: 0x0, symName: __ZNKSt3__16vectorINS_12basic_stringIcNS_11char_traitsIcEENS_9allocatorIcEEEENS4_IS6_EEE8capacityB8ue170006Ev, symObjAddr: 0xC88, symBinAddr: 0x100003D60, symSize: 0x40 }
  - { offsetInCU: 0x1988B, offset: 0x1988B, size: 0x8, addend: 0x0, symName: __ZNSt3__16vectorINS_12basic_stringIcNS_11char_traitsIcEENS_9allocatorIcEEEENS4_IS6_EEE22__base_destruct_at_endB8ue170006EPS6_, symObjAddr: 0xCC8, symBinAddr: 0x100003DA0, symSize: 0x8C }
  - { offsetInCU: 0x198CE, offset: 0x198CE, size: 0x8, addend: 0x0, symName: __ZNSt3__116allocator_traitsINS_9allocatorINS_12basic_stringIcNS_11char_traitsIcEENS1_IcEEEEEEE7destroyB8ue170006IS6_vvEEvRS7_PT_, symObjAddr: 0xD54, symBinAddr: 0x100003E2C, symSize: 0x28 }
  - { offsetInCU: 0x19908, offset: 0x19908, size: 0x8, addend: 0x0, symName: __ZNKSt3__16vectorINS_12basic_stringIcNS_11char_traitsIcEENS_9allocatorIcEEEENS4_IS6_EEE31__annotate_contiguous_containerB8ue170006EPKvSA_SA_SA_, symObjAddr: 0xDD8, symBinAddr: 0x100003EB0, symSize: 0x20 }
  - { offsetInCU: 0x19959, offset: 0x19959, size: 0x8, addend: 0x0, symName: __ZNKSt3__16vectorINS_12basic_stringIcNS_11char_traitsIcEENS_9allocatorIcEEEENS4_IS6_EEE4dataB8ue170006Ev, symObjAddr: 0xDF8, symBinAddr: 0x100003ED0, symSize: 0x28 }
  - { offsetInCU: 0x1997E, offset: 0x1997E, size: 0x8, addend: 0x0, symName: __ZNKSt3__16vectorINS_12basic_stringIcNS_11char_traitsIcEENS_9allocatorIcEEEENS4_IS6_EEE4sizeB8ue170006Ev, symObjAddr: 0xE20, symBinAddr: 0x100003EF8, symSize: 0x28 }
  - { offsetInCU: 0x199A3, offset: 0x199A3, size: 0x8, addend: 0x0, symName: __ZNSt3__19allocatorINS_12basic_stringIcNS_11char_traitsIcEENS0_IcEEEEE10deallocateB8ue170006EPS5_m, symObjAddr: 0xE48, symBinAddr: 0x100003F20, symSize: 0x44 }
  - { offsetInCU: 0x199E4, offset: 0x199E4, size: 0x8, addend: 0x0, symName: __ZNSt3__117__compressed_pairIPNS_12basic_stringIcNS_11char_traitsIcEENS_9allocatorIcEEEENS4_IS6_EEE6secondB8ue170006Ev, symObjAddr: 0xFB4, symBinAddr: 0x10000408C, symSize: 0x24 }
  - { offsetInCU: 0x19A09, offset: 0x19A09, size: 0x8, addend: 0x0, symName: __ZNSt3__122__compressed_pair_elemINS_9allocatorINS_12basic_stringIcNS_11char_traitsIcEENS1_IcEEEEEELi1ELb1EE5__getB8ue170006Ev, symObjAddr: 0xFD8, symBinAddr: 0x1000040B0, symSize: 0x14 }
  - { offsetInCU: 0x19A2E, offset: 0x19A2E, size: 0x8, addend: 0x0, symName: __ZNKSt3__16vectorINS_12basic_stringIcNS_11char_traitsIcEENS_9allocatorIcEEEENS4_IS6_EEE9__end_capB8ue170006Ev, symObjAddr: 0xFEC, symBinAddr: 0x1000040C4, symSize: 0x28 }
  - { offsetInCU: 0x19A53, offset: 0x19A53, size: 0x8, addend: 0x0, symName: __ZNKSt3__117__compressed_pairIPNS_12basic_stringIcNS_11char_traitsIcEENS_9allocatorIcEEEENS4_IS6_EEE5firstB8ue170006Ev, symObjAddr: 0x1014, symBinAddr: 0x1000040EC, symSize: 0x24 }
  - { offsetInCU: 0x19A78, offset: 0x19A78, size: 0x8, addend: 0x0, symName: __ZNKSt3__122__compressed_pair_elemIPNS_12basic_stringIcNS_11char_traitsIcEENS_9allocatorIcEEEELi0ELb0EE5__getB8ue170006Ev, symObjAddr: 0x1038, symBinAddr: 0x100004110, symSize: 0x14 }
  - { offsetInCU: 0x19A9D, offset: 0x19A9D, size: 0x8, addend: 0x0, symName: __ZNSt3__117__hash_value_typeINS_12basic_stringIcNS_11char_traitsIcEENS_9allocatorIcEEEE14BooleanSettingE11__get_valueB8ue170006Ev, symObjAddr: 0x104C, symBinAddr: 0x100004124, symSize: 0x24 }
  - { offsetInCU: 0x19AC2, offset: 0x19AC2, size: 0x8, addend: 0x0, symName: __ZNSt3__19allocatorINS_11__hash_nodeINS_17__hash_value_typeINS_12basic_stringIcNS_11char_traitsIcEENS0_IcEEEE14BooleanSettingEEPvEEE10deallocateB8ue170006EPSB_m, symObjAddr: 0x10A8, symBinAddr: 0x100004180, symSize: 0x44 }
  - { offsetInCU: 0x19B03, offset: 0x19B03, size: 0x8, addend: 0x0, symName: __ZNSt3__122__compressed_pair_elemINS_16__hash_node_baseIPNS_11__hash_nodeINS_17__hash_value_typeINS_12basic_stringIcNS_11char_traitsIcEENS_9allocatorIcEEEE14BooleanSettingEEPvEEEELi0ELb0EE5__getB8ue170006Ev, symObjAddr: 0x10EC, symBinAddr: 0x1000041C4, symSize: 0x14 }
  - { offsetInCU: 0x19B27, offset: 0x19B27, size: 0x8, addend: 0x0, symName: __ZNSt3__110unique_ptrIA_PNS_16__hash_node_baseIPNS_11__hash_nodeINS_17__hash_value_typeINS_12basic_stringIcNS_11char_traitsIcEENS_9allocatorIcEEEE14BooleanSettingEEPvEEEENS_25__bucket_list_deallocatorINS7_ISG_EEEEED2B8ue170006Ev, symObjAddr: 0x1100, symBinAddr: 0x1000041D8, symSize: 0x30 }
  - { offsetInCU: 0x19B50, offset: 0x19B50, size: 0x8, addend: 0x0, symName: __ZNSt3__110unique_ptrIA_PNS_16__hash_node_baseIPNS_11__hash_nodeINS_17__hash_value_typeINS_12basic_stringIcNS_11char_traitsIcEENS_9allocatorIcEEEE14BooleanSettingEEPvEEEENS_25__bucket_list_deallocatorINS7_ISG_EEEEE5resetB8ue170006EDn, symObjAddr: 0x1130, symBinAddr: 0x100004208, symSize: 0x6C }
  - { offsetInCU: 0x19B8F, offset: 0x19B8F, size: 0x8, addend: 0x0, symName: __ZNSt3__117__compressed_pairIPPNS_16__hash_node_baseIPNS_11__hash_nodeINS_17__hash_value_typeINS_12basic_stringIcNS_11char_traitsIcEENS_9allocatorIcEEEE14BooleanSettingEEPvEEEENS_25__bucket_list_deallocatorINS7_ISG_EEEEE5firstB8ue170006Ev, symObjAddr: 0x119C, symBinAddr: 0x100004274, symSize: 0x24 }
  - { offsetInCU: 0x19BB4, offset: 0x19BB4, size: 0x8, addend: 0x0, symName: __ZNSt3__117__compressed_pairIPPNS_16__hash_node_baseIPNS_11__hash_nodeINS_17__hash_value_typeINS_12basic_stringIcNS_11char_traitsIcEENS_9allocatorIcEEEE14BooleanSettingEEPvEEEENS_25__bucket_list_deallocatorINS7_ISG_EEEEE6secondB8ue170006Ev, symObjAddr: 0x11C0, symBinAddr: 0x100004298, symSize: 0x28 }
  - { offsetInCU: 0x19BD9, offset: 0x19BD9, size: 0x8, addend: 0x0, symName: __ZNSt3__125__bucket_list_deallocatorINS_9allocatorIPNS_16__hash_node_baseIPNS_11__hash_nodeINS_17__hash_value_typeINS_12basic_stringIcNS_11char_traitsIcEENS1_IcEEEE14BooleanSettingEEPvEEEEEEEclB8ue170006EPSG_, symObjAddr: 0x11E8, symBinAddr: 0x1000042C0, symSize: 0x58 }
  - { offsetInCU: 0x19C0D, offset: 0x19C0D, size: 0x8, addend: 0x0, symName: __ZNSt3__122__compressed_pair_elemIPPNS_16__hash_node_baseIPNS_11__hash_nodeINS_17__hash_value_typeINS_12basic_stringIcNS_11char_traitsIcEENS_9allocatorIcEEEE14BooleanSettingEEPvEEEELi0ELb0EE5__getB8ue170006Ev, symObjAddr: 0x1240, symBinAddr: 0x100004318, symSize: 0x14 }
  - { offsetInCU: 0x19C32, offset: 0x19C32, size: 0x8, addend: 0x0, symName: __ZNSt3__122__compressed_pair_elemINS_25__bucket_list_deallocatorINS_9allocatorIPNS_16__hash_node_baseIPNS_11__hash_nodeINS_17__hash_value_typeINS_12basic_stringIcNS_11char_traitsIcEENS2_IcEEEE14BooleanSettingEEPvEEEEEEEELi1ELb0EE5__getB8ue170006Ev, symObjAddr: 0x1254, symBinAddr: 0x10000432C, symSize: 0x14 }
  - { offsetInCU: 0x19C57, offset: 0x19C57, size: 0x8, addend: 0x0, symName: __ZNSt3__116allocator_traitsINS_9allocatorIPNS_16__hash_node_baseIPNS_11__hash_nodeINS_17__hash_value_typeINS_12basic_stringIcNS_11char_traitsIcEENS1_IcEEEE14BooleanSettingEEPvEEEEEEE10deallocateB8ue170006ERSH_PSG_m, symObjAddr: 0x1268, symBinAddr: 0x100004340, symSize: 0x34 }
  - { offsetInCU: 0x19C99, offset: 0x19C99, size: 0x8, addend: 0x0, symName: __ZNSt3__125__bucket_list_deallocatorINS_9allocatorIPNS_16__hash_node_baseIPNS_11__hash_nodeINS_17__hash_value_typeINS_12basic_stringIcNS_11char_traitsIcEENS1_IcEEEE14BooleanSettingEEPvEEEEEEE7__allocB8ue170006Ev, symObjAddr: 0x129C, symBinAddr: 0x100004374, symSize: 0x24 }
  - { offsetInCU: 0x19CBE, offset: 0x19CBE, size: 0x8, addend: 0x0, symName: __ZNSt3__125__bucket_list_deallocatorINS_9allocatorIPNS_16__hash_node_baseIPNS_11__hash_nodeINS_17__hash_value_typeINS_12basic_stringIcNS_11char_traitsIcEENS1_IcEEEE14BooleanSettingEEPvEEEEEEE4sizeB8ue170006Ev, symObjAddr: 0x12C0, symBinAddr: 0x100004398, symSize: 0x24 }
  - { offsetInCU: 0x19CE3, offset: 0x19CE3, size: 0x8, addend: 0x0, symName: __ZNSt3__19allocatorIPNS_16__hash_node_baseIPNS_11__hash_nodeINS_17__hash_value_typeINS_12basic_stringIcNS_11char_traitsIcEENS0_IcEEEE14BooleanSettingEEPvEEEEE10deallocateB8ue170006EPSF_m, symObjAddr: 0x12E4, symBinAddr: 0x1000043BC, symSize: 0x40 }
  - { offsetInCU: 0x19D24, offset: 0x19D24, size: 0x8, addend: 0x0, symName: __ZNSt3__117__compressed_pairImNS_9allocatorIPNS_16__hash_node_baseIPNS_11__hash_nodeINS_17__hash_value_typeINS_12basic_stringIcNS_11char_traitsIcEENS1_IcEEEE14BooleanSettingEEPvEEEEEEE6secondB8ue170006Ev, symObjAddr: 0x1324, symBinAddr: 0x1000043FC, symSize: 0x24 }
  - { offsetInCU: 0x19D49, offset: 0x19D49, size: 0x8, addend: 0x0, symName: __ZNSt3__122__compressed_pair_elemINS_9allocatorIPNS_16__hash_node_baseIPNS_11__hash_nodeINS_17__hash_value_typeINS_12basic_stringIcNS_11char_traitsIcEENS1_IcEEEE14BooleanSettingEEPvEEEEEELi1ELb1EE5__getB8ue170006Ev, symObjAddr: 0x1348, symBinAddr: 0x100004420, symSize: 0x14 }
  - { offsetInCU: 0x19D6E, offset: 0x19D6E, size: 0x8, addend: 0x0, symName: __ZNSt3__117__compressed_pairImNS_9allocatorIPNS_16__hash_node_baseIPNS_11__hash_nodeINS_17__hash_value_typeINS_12basic_stringIcNS_11char_traitsIcEENS1_IcEEEE14BooleanSettingEEPvEEEEEEE5firstB8ue170006Ev, symObjAddr: 0x135C, symBinAddr: 0x100004434, symSize: 0x24 }
  - { offsetInCU: 0x19D93, offset: 0x19D93, size: 0x8, addend: 0x0, symName: __ZNSt3__122__compressed_pair_elemImLi0ELb0EE5__getB8ue170006Ev, symObjAddr: 0x1380, symBinAddr: 0x100004458, symSize: 0x14 }
  - { offsetInCU: 0x19DB7, offset: 0x19DB7, size: 0x8, addend: 0x0, symName: __ZN9UiHandlerD2Ev, symObjAddr: 0x1394, symBinAddr: 0x10000446C, symSize: 0x2C }
  - { offsetInCU: 0x19DDF, offset: 0x19DDF, size: 0x8, addend: 0x0, symName: __ZN11ModeManagerD2Ev, symObjAddr: 0x13C0, symBinAddr: 0x100004498, symSize: 0x2C }
  - { offsetInCU: 0x19E07, offset: 0x19E07, size: 0x8, addend: 0x0, symName: __ZNSt3__110unique_ptrI10EditorModeNS_14default_deleteIS1_EEED1B8ue170006Ev, symObjAddr: 0x13EC, symBinAddr: 0x1000044C4, symSize: 0x2C }
  - { offsetInCU: 0x19E2F, offset: 0x19E2F, size: 0x8, addend: 0x0, symName: __ZNSt3__110unique_ptrI10EditorModeNS_14default_deleteIS1_EEED2B8ue170006Ev, symObjAddr: 0x1418, symBinAddr: 0x1000044F0, symSize: 0x30 }
  - { offsetInCU: 0x19E58, offset: 0x19E58, size: 0x8, addend: 0x0, symName: __ZNSt3__110unique_ptrI10EditorModeNS_14default_deleteIS1_EEE5resetB8ue170006EPS1_, symObjAddr: 0x1448, symBinAddr: 0x100004520, symSize: 0x78 }
  - { offsetInCU: 0x19E9B, offset: 0x19E9B, size: 0x8, addend: 0x0, symName: __ZNSt3__117__compressed_pairIP10EditorModeNS_14default_deleteIS1_EEE5firstB8ue170006Ev, symObjAddr: 0x14C0, symBinAddr: 0x100004598, symSize: 0x24 }
  - { offsetInCU: 0x19EC0, offset: 0x19EC0, size: 0x8, addend: 0x0, symName: __ZNSt3__117__compressed_pairIP10EditorModeNS_14default_deleteIS1_EEE6secondB8ue170006Ev, symObjAddr: 0x14E4, symBinAddr: 0x1000045BC, symSize: 0x24 }
  - { offsetInCU: 0x19EE5, offset: 0x19EE5, size: 0x8, addend: 0x0, symName: __ZNKSt3__114default_deleteI10EditorModeEclB8ue170006EPS1_, symObjAddr: 0x1508, symBinAddr: 0x1000045E0, symSize: 0x4C }
  - { offsetInCU: 0x19F18, offset: 0x19F18, size: 0x8, addend: 0x0, symName: __ZNSt3__122__compressed_pair_elemIP10EditorModeLi0ELb0EE5__getB8ue170006Ev, symObjAddr: 0x1554, symBinAddr: 0x10000462C, symSize: 0x14 }
  - { offsetInCU: 0x19F3D, offset: 0x19F3D, size: 0x8, addend: 0x0, symName: __ZNSt3__122__compressed_pair_elemINS_14default_deleteI10EditorModeEELi1ELb1EE5__getB8ue170006Ev, symObjAddr: 0x1568, symBinAddr: 0x100004640, symSize: 0x14 }
  - { offsetInCU: 0x19F61, offset: 0x19F61, size: 0x8, addend: 0x0, symName: __ZN11EditorStateD2Ev, symObjAddr: 0x157C, symBinAddr: 0x100004654, symSize: 0x38 }
  - { offsetInCU: 0x19F8A, offset: 0x19F8A, size: 0x8, addend: 0x0, symName: __ZN8TextFileD1Ev, symObjAddr: 0x15B4, symBinAddr: 0x10000468C, symSize: 0x2C }
  - { offsetInCU: 0x19FB5, offset: 0x19FB5, size: 0x8, addend: 0x0, symName: __ZN8TextFileD2Ev, symObjAddr: 0x15E0, symBinAddr: 0x1000046B8, symSize: 0x38 }
  - { offsetInCU: 0x19FDF, offset: 0x19FDF, size: 0x8, addend: 0x0, symName: __ZNSt3__14__fs10filesystem4pathD1B8ue170006Ev, symObjAddr: 0x1618, symBinAddr: 0x1000046F0, symSize: 0x2C }
  - { offsetInCU: 0x1A007, offset: 0x1A007, size: 0x8, addend: 0x0, symName: __ZNSt3__14__fs10filesystem4pathD2B8ue170006Ev, symObjAddr: 0x1644, symBinAddr: 0x10000471C, symSize: 0x2C }
  - { offsetInCU: 0x1A02F, offset: 0x1A02F, size: 0x8, addend: 0x0, symName: __ZNSt3__18optionalINS_12basic_stringIcNS_11char_traitsIcEENS_9allocatorIcEEEEEC2B8ue170006IRPcLi0EEEOT_, symObjAddr: 0x1670, symBinAddr: 0x100004748, symSize: 0x34 }
  - { offsetInCU: 0x1A075, offset: 0x1A075, size: 0x8, addend: 0x0, symName: __ZNSt3__127__optional_move_assign_baseINS_12basic_stringIcNS_11char_traitsIcEENS_9allocatorIcEEEELb0EECI2NS_24__optional_destruct_baseIS6_Lb0EEEIJRPcEEENS_10in_place_tEDpOT_, symObjAddr: 0x16A4, symBinAddr: 0x10000477C, symSize: 0x34 }
  - { offsetInCU: 0x1A0B2, offset: 0x1A0B2, size: 0x8, addend: 0x0, symName: __ZNSt3__127__optional_copy_assign_baseINS_12basic_stringIcNS_11char_traitsIcEENS_9allocatorIcEEEELb0EECI2NS_24__optional_destruct_baseIS6_Lb0EEEIJRPcEEENS_10in_place_tEDpOT_, symObjAddr: 0x16D8, symBinAddr: 0x1000047B0, symSize: 0x34 }
  - { offsetInCU: 0x1A0EF, offset: 0x1A0EF, size: 0x8, addend: 0x0, symName: __ZNSt3__120__optional_move_baseINS_12basic_stringIcNS_11char_traitsIcEENS_9allocatorIcEEEELb0EECI2NS_24__optional_destruct_baseIS6_Lb0EEEIJRPcEEENS_10in_place_tEDpOT_, symObjAddr: 0x170C, symBinAddr: 0x1000047E4, symSize: 0x34 }
  - { offsetInCU: 0x1A12C, offset: 0x1A12C, size: 0x8, addend: 0x0, symName: __ZNSt3__120__optional_copy_baseINS_12basic_stringIcNS_11char_traitsIcEENS_9allocatorIcEEEELb0EECI2NS_24__optional_destruct_baseIS6_Lb0EEEIJRPcEEENS_10in_place_tEDpOT_, symObjAddr: 0x1740, symBinAddr: 0x100004818, symSize: 0x34 }
  - { offsetInCU: 0x1A169, offset: 0x1A169, size: 0x8, addend: 0x0, symName: __ZNSt3__123__optional_storage_baseINS_12basic_stringIcNS_11char_traitsIcEENS_9allocatorIcEEEELb0EECI2NS_24__optional_destruct_baseIS6_Lb0EEEIJRPcEEENS_10in_place_tEDpOT_, symObjAddr: 0x1774, symBinAddr: 0x10000484C, symSize: 0x34 }
  - { offsetInCU: 0x1A1A6, offset: 0x1A1A6, size: 0x8, addend: 0x0, symName: __ZNSt3__124__optional_destruct_baseINS_12basic_stringIcNS_11char_traitsIcEENS_9allocatorIcEEEELb0EEC2B8ue170006IJRPcEEENS_10in_place_tEDpOT_, symObjAddr: 0x17A8, symBinAddr: 0x100004880, symSize: 0x40 }
  - { offsetInCU: 0x1A1F8, offset: 0x1A1F8, size: 0x8, addend: 0x0, symName: __ZNSt3__112basic_stringIcNS_11char_traitsIcEENS_9allocatorIcEEEC1B8ue170006ILi0EEEPKc, symObjAddr: 0x17E8, symBinAddr: 0x1000048C0, symSize: 0x34 }
  - { offsetInCU: 0x1A235, offset: 0x1A235, size: 0x8, addend: 0x0, symName: __ZNSt3__112basic_stringIcNS_11char_traitsIcEENS_9allocatorIcEEEC2B8ue170006ILi0EEEPKc, symObjAddr: 0x181C, symBinAddr: 0x1000048F4, symSize: 0x58 }
  - { offsetInCU: 0x1A277, offset: 0x1A277, size: 0x8, addend: 0x0, symName: __ZNSt3__117__compressed_pairINS_12basic_stringIcNS_11char_traitsIcEENS_9allocatorIcEEE5__repES5_EC1B8ue170006INS_18__default_init_tagESA_EEOT_OT0_, symObjAddr: 0x1874, symBinAddr: 0x10000494C, symSize: 0x3C }
  - { offsetInCU: 0x1A2CE, offset: 0x1A2CE, size: 0x8, addend: 0x0, symName: __ZNSt3__111char_traitsIcE6lengthB8ue170006EPKc, symObjAddr: 0x18B0, symBinAddr: 0x100004988, symSize: 0x34 }
  - { offsetInCU: 0x1A2F0, offset: 0x1A2F0, size: 0x8, addend: 0x0, symName: __ZNSt3__117__compressed_pairINS_12basic_stringIcNS_11char_traitsIcEENS_9allocatorIcEEE5__repES5_EC2B8ue170006INS_18__default_init_tagESA_EEOT_OT0_, symObjAddr: 0x18E4, symBinAddr: 0x1000049BC, symSize: 0x3C }
  - { offsetInCU: 0x1A347, offset: 0x1A347, size: 0x8, addend: 0x0, symName: __ZNSt3__122__compressed_pair_elemINS_12basic_stringIcNS_11char_traitsIcEENS_9allocatorIcEEE5__repELi0ELb0EEC2B8ue170006ENS_18__default_init_tagE, symObjAddr: 0x1920, symBinAddr: 0x1000049F8, symSize: 0x14 }
  - { offsetInCU: 0x1A379, offset: 0x1A379, size: 0x8, addend: 0x0, symName: __ZNSt3__122__compressed_pair_elemINS_9allocatorIcEELi1ELb1EEC2B8ue170006ENS_18__default_init_tagE, symObjAddr: 0x1934, symBinAddr: 0x100004A0C, symSize: 0x2C }
  - { offsetInCU: 0x1A3AC, offset: 0x1A3AC, size: 0x8, addend: 0x0, symName: __ZNSt3__19allocatorIcEC2B8ue170006Ev, symObjAddr: 0x1960, symBinAddr: 0x100004A38, symSize: 0x2C }
  - { offsetInCU: 0x1A3D5, offset: 0x1A3D5, size: 0x8, addend: 0x0, symName: __ZNSt3__116__non_trivial_ifILb1ENS_9allocatorIcEEEC2B8ue170006Ev, symObjAddr: 0x198C, symBinAddr: 0x100004A64, symSize: 0x14 }
  - { offsetInCU: 0x4107, offset: 0x1E5A3, size: 0x8, addend: 0x0, symName: __ZNSt3__17advanceB8ue170006IPNS_6vectorI11RenderChunkNS_9allocatorIS2_EEEEllvEEvRT_T0_, symObjAddr: 0x1964, symBinAddr: 0x1000063D4, symSize: 0x38 }
  - { offsetInCU: 0x459D, offset: 0x1EA39, size: 0x8, addend: 0x0, symName: __ZNSt3__17advanceB8ue170006IP11RenderChunkllvEEvRT_T0_, symObjAddr: 0x2FD8, symBinAddr: 0x100007940, symSize: 0x38 }
  - { offsetInCU: 0x5544, offset: 0x1F9E0, size: 0x8, addend: 0x0, symName: __ZNSt3__122__make_exception_guardB8ue170006INS_6vectorINS1_I11RenderChunkNS_9allocatorIS2_EEEENS3_IS5_EEE16__destroy_vectorEEENS_28__exception_guard_exceptionsIT_EESA_, symObjAddr: 0x7D0, symBinAddr: 0x10000526C, symSize: 0x40 }
  - { offsetInCU: 0x5579, offset: 0x1FA15, size: 0x8, addend: 0x0, symName: __ZNSt3__119__allocate_at_leastB8ue170006INS_9allocatorINS_6vectorI11RenderChunkNS1_IS3_EEEEEEEENS_19__allocation_resultINS_16allocator_traitsIT_E7pointerEEERS9_m, symObjAddr: 0xAC0, symBinAddr: 0x10000555C, symSize: 0x40 }
  - { offsetInCU: 0x55BC, offset: 0x1FA58, size: 0x8, addend: 0x0, symName: __ZNSt3__13minB8ue170006ImEERKT_S3_S3_, symObjAddr: 0xC18, symBinAddr: 0x1000056B4, symSize: 0x2C }
  - { offsetInCU: 0x57F2, offset: 0x1FC8E, size: 0x8, addend: 0x0, symName: __ZNSt3__13minB8ue170006ImNS_6__lessIvvEEEERKT_S5_S5_T0_, symObjAddr: 0xC8C, symBinAddr: 0x10000571C, symSize: 0x54 }
  - { offsetInCU: 0x5A88, offset: 0x1FF24, size: 0x8, addend: 0x0, symName: __ZNSt3__120__throw_length_errorB8ue170006EPKc, symObjAddr: 0xD38, symBinAddr: 0x1000057C8, symSize: 0x64 }
  - { offsetInCU: 0x5AB3, offset: 0x1FF4F, size: 0x8, addend: 0x0, symName: __ZNSt3__117__libcpp_allocateB8ue170006Emm, symObjAddr: 0xEAC, symBinAddr: 0x10000593C, symSize: 0x60 }
  - { offsetInCU: 0x5B0D, offset: 0x1FFA9, size: 0x8, addend: 0x0, symName: __ZNSt3__121__libcpp_operator_newB8ue170006IJmSt11align_val_tEEEPvDpT_, symObjAddr: 0xF2C, symBinAddr: 0x10000599C, symSize: 0x2C }
  - { offsetInCU: 0x5B5A, offset: 0x1FFF6, size: 0x8, addend: 0x0, symName: __ZNSt3__121__libcpp_operator_newB8ue170006IJmEEEPvDpT_, symObjAddr: 0xF58, symBinAddr: 0x1000059C8, symSize: 0x24 }
  - { offsetInCU: 0x5B93, offset: 0x2002F, size: 0x8, addend: 0x0, symName: __ZNSt3__112__to_addressB8ue170006INS_6vectorI11RenderChunkNS_9allocatorIS2_EEEEEEPT_S7_, symObjAddr: 0x1074, symBinAddr: 0x100005AE4, symSize: 0x14 }
  - { offsetInCU: 0x5BC8, offset: 0x20064, size: 0x8, addend: 0x0, symName: __ZNSt3__130__uninitialized_allocator_copyB8ue170006INS_9allocatorINS_6vectorI11RenderChunkNS1_IS3_EEEEEEPS5_S7_S7_EET2_RT_T0_T1_S8_, symObjAddr: 0x1124, symBinAddr: 0x100005B94, symSize: 0x80 }
  - { offsetInCU: 0x5C65, offset: 0x20101, size: 0x8, addend: 0x0, symName: __ZNSt3__114__unwrap_rangeB8ue170006IPNS_6vectorI11RenderChunkNS_9allocatorIS2_EEEES6_EEDaT_T0_, symObjAddr: 0x121C, symBinAddr: 0x100005C8C, symSize: 0x3C }
  - { offsetInCU: 0x5CB1, offset: 0x2014D, size: 0x8, addend: 0x0, symName: __ZNSt3__135__uninitialized_allocator_copy_implB8ue170006INS_9allocatorINS_6vectorI11RenderChunkNS1_IS3_EEEEEEPS5_S7_S7_EET2_RT_T0_T1_S8_, symObjAddr: 0x1258, symBinAddr: 0x100005CC8, symSize: 0xF4 }
  - { offsetInCU: 0x5D4F, offset: 0x201EB, size: 0x8, addend: 0x0, symName: __ZNSt3__113__unwrap_iterB8ue170006IPNS_6vectorI11RenderChunkNS_9allocatorIS2_EEEENS_18__unwrap_iter_implIS6_Lb1EEELi0EEEDTclsrT0_8__unwrapclsr3stdE7declvalIT_EEEESA_, symObjAddr: 0x134C, symBinAddr: 0x100005DBC, symSize: 0x24 }
  - { offsetInCU: 0x5D93, offset: 0x2022F, size: 0x8, addend: 0x0, symName: __ZNSt3__113__rewrap_iterB8ue170006IPNS_6vectorI11RenderChunkNS_9allocatorIS2_EEEES6_NS_18__unwrap_iter_implIS6_Lb1EEEEET_S9_T0_, symObjAddr: 0x1370, symBinAddr: 0x100005DE0, symSize: 0x3C }
  - { offsetInCU: 0x5EEB, offset: 0x20387, size: 0x8, addend: 0x0, symName: __ZNSt3__122__make_exception_guardB8ue170006INS_29_AllocatorDestroyRangeReverseINS_9allocatorINS_6vectorI11RenderChunkNS2_IS4_EEEEEEPS6_EEEENS_28__exception_guard_exceptionsIT_EESB_, symObjAddr: 0x1474, symBinAddr: 0x100005EE4, symSize: 0x4C }
  - { offsetInCU: 0x5F48, offset: 0x203E4, size: 0x8, addend: 0x0, symName: __ZNSt3__112construct_atB8ue170006INS_6vectorI11RenderChunkNS_9allocatorIS2_EEEEJRS5_EPS5_EEPT_S9_DpOT0_, symObjAddr: 0x1618, symBinAddr: 0x100006088, symSize: 0x3C }
  - { offsetInCU: 0x5FBA, offset: 0x20456, size: 0x8, addend: 0x0, symName: __ZNSt3__119__allocator_destroyB8ue170006INS_9allocatorINS_6vectorI11RenderChunkNS1_IS3_EEEEEENS_16reverse_iteratorIPS5_EES9_EEvRT_T0_T1_, symObjAddr: 0x170C, symBinAddr: 0x10000617C, symSize: 0x70 }
  - { offsetInCU: 0x601D, offset: 0x204B9, size: 0x8, addend: 0x0, symName: __ZNSt3__1neB8ue170006IPNS_6vectorI11RenderChunkNS_9allocatorIS2_EEEES6_EEbRKNS_16reverse_iteratorIT_EERKNS7_IT0_EE, symObjAddr: 0x17B0, symBinAddr: 0x100006220, symSize: 0x48 }
  - { offsetInCU: 0x6069, offset: 0x20505, size: 0x8, addend: 0x0, symName: __ZNSt3__112__to_addressB8ue170006INS_16reverse_iteratorIPNS_6vectorI11RenderChunkNS_9allocatorIS3_EEEEEEvEEu7__decayIDTclsr19__to_address_helperIT_EE6__callclsr3stdE7declvalIRKS9_EEEEESB_, symObjAddr: 0x1820, symBinAddr: 0x100006290, symSize: 0x24 }
  - { offsetInCU: 0x609F, offset: 0x2053B, size: 0x8, addend: 0x0, symName: __ZNSt3__110destroy_atB8ue170006INS_6vectorI11RenderChunkNS_9allocatorIS2_EEEELi0EEEvPT_, symObjAddr: 0x187C, symBinAddr: 0x1000062EC, symSize: 0x24 }
  - { offsetInCU: 0x60D6, offset: 0x20572, size: 0x8, addend: 0x0, symName: __ZNSt3__112__destroy_atB8ue170006INS_6vectorI11RenderChunkNS_9allocatorIS2_EEEELi0EEEvPT_, symObjAddr: 0x18A0, symBinAddr: 0x100006310, symSize: 0x24 }
  - { offsetInCU: 0x6137, offset: 0x205D3, size: 0x8, addend: 0x0, symName: __ZNSt3__14prevB8ue170006IPNS_6vectorI11RenderChunkNS_9allocatorIS2_EEEEEENS_9enable_ifIXsr29__has_input_iterator_categoryIT_EE5valueES8_E4typeES8_NS_15iterator_traitsIS8_E15difference_typeE, symObjAddr: 0x1928, symBinAddr: 0x100006398, symSize: 0x3C }
  - { offsetInCU: 0x617A, offset: 0x20616, size: 0x8, addend: 0x0, symName: __ZNSt3__121__convert_to_integralB8ue170006El, symObjAddr: 0x199C, symBinAddr: 0x10000640C, symSize: 0x14 }
  - { offsetInCU: 0x61A6, offset: 0x20642, size: 0x8, addend: 0x0, symName: __ZNSt3__19__advanceB8ue170006IPNS_6vectorI11RenderChunkNS_9allocatorIS2_EEEEEEvRT_NS_15iterator_traitsIS7_E15difference_typeENS_26random_access_iterator_tagE, symObjAddr: 0x19B0, symBinAddr: 0x100006420, symSize: 0x30 }
  - { offsetInCU: 0x6244, offset: 0x206E0, size: 0x8, addend: 0x0, symName: __ZNSt3__122__make_exception_guardB8ue170006INS_6vectorI11RenderChunkNS_9allocatorIS2_EEE16__destroy_vectorEEENS_28__exception_guard_exceptionsIT_EES8_, symObjAddr: 0x20FC, symBinAddr: 0x100006A64, symSize: 0x40 }
  - { offsetInCU: 0x6279, offset: 0x20715, size: 0x8, addend: 0x0, symName: __ZNSt3__119__allocate_at_leastB8ue170006INS_9allocatorI11RenderChunkEEEENS_19__allocation_resultINS_16allocator_traitsIT_E7pointerEEERS6_m, symObjAddr: 0x23E4, symBinAddr: 0x100006D4C, symSize: 0x40 }
  - { offsetInCU: 0x62BC, offset: 0x20758, size: 0x8, addend: 0x0, symName: __ZNSt3__112__to_addressB8ue170006I11RenderChunkEEPT_S3_, symObjAddr: 0x2698, symBinAddr: 0x100007000, symSize: 0x14 }
  - { offsetInCU: 0x62F1, offset: 0x2078D, size: 0x8, addend: 0x0, symName: __ZNSt3__130__uninitialized_allocator_copyB8ue170006INS_9allocatorI11RenderChunkEEPS2_S4_S4_EET2_RT_T0_T1_S5_, symObjAddr: 0x2748, symBinAddr: 0x1000070B0, symSize: 0x80 }
  - { offsetInCU: 0x638E, offset: 0x2082A, size: 0x8, addend: 0x0, symName: __ZNSt3__114__unwrap_rangeB8ue170006IP11RenderChunkS2_EEDaT_T0_, symObjAddr: 0x2838, symBinAddr: 0x1000071A0, symSize: 0x3C }
  - { offsetInCU: 0x63DA, offset: 0x20876, size: 0x8, addend: 0x0, symName: __ZNSt3__135__uninitialized_allocator_copy_implB8ue170006INS_9allocatorI11RenderChunkEEPS2_S4_S4_EET2_RT_T0_T1_S5_, symObjAddr: 0x2874, symBinAddr: 0x1000071DC, symSize: 0xF4 }
  - { offsetInCU: 0x6478, offset: 0x20914, size: 0x8, addend: 0x0, symName: __ZNSt3__113__unwrap_iterB8ue170006IP11RenderChunkNS_18__unwrap_iter_implIS2_Lb1EEELi0EEEDTclsrT0_8__unwrapclsr3stdE7declvalIT_EEEES6_, symObjAddr: 0x2968, symBinAddr: 0x1000072D0, symSize: 0x24 }
  - { offsetInCU: 0x64BC, offset: 0x20958, size: 0x8, addend: 0x0, symName: __ZNSt3__113__rewrap_iterB8ue170006IP11RenderChunkS2_NS_18__unwrap_iter_implIS2_Lb1EEEEET_S5_T0_, symObjAddr: 0x298C, symBinAddr: 0x1000072F4, symSize: 0x3C }
  - { offsetInCU: 0x6614, offset: 0x20AB0, size: 0x8, addend: 0x0, symName: __ZNSt3__122__make_exception_guardB8ue170006INS_29_AllocatorDestroyRangeReverseINS_9allocatorI11RenderChunkEEPS3_EEEENS_28__exception_guard_exceptionsIT_EES8_, symObjAddr: 0x2A90, symBinAddr: 0x1000073F8, symSize: 0x4C }
  - { offsetInCU: 0x6671, offset: 0x20B0D, size: 0x8, addend: 0x0, symName: __ZNSt3__112construct_atB8ue170006I11RenderChunkJRS1_EPS1_EEPT_S5_DpOT0_, symObjAddr: 0x2C34, symBinAddr: 0x10000759C, symSize: 0x3C }
  - { offsetInCU: 0x66E3, offset: 0x20B7F, size: 0x8, addend: 0x0, symName: __ZNSt3__119__allocator_destroyB8ue170006INS_9allocatorI11RenderChunkEENS_16reverse_iteratorIPS2_EES6_EEvRT_T0_T1_, symObjAddr: 0x2D28, symBinAddr: 0x100007690, symSize: 0x70 }
  - { offsetInCU: 0x6746, offset: 0x20BE2, size: 0x8, addend: 0x0, symName: __ZNSt3__1neB8ue170006IP11RenderChunkS2_EEbRKNS_16reverse_iteratorIT_EERKNS3_IT0_EE, symObjAddr: 0x2DCC, symBinAddr: 0x100007734, symSize: 0x48 }
  - { offsetInCU: 0x6792, offset: 0x20C2E, size: 0x8, addend: 0x0, symName: __ZNSt3__112__to_addressB8ue170006INS_16reverse_iteratorIP11RenderChunkEEvEEu7__decayIDTclsr19__to_address_helperIT_EE6__callclsr3stdE7declvalIRKS5_EEEEES7_, symObjAddr: 0x2E3C, symBinAddr: 0x1000077A4, symSize: 0x24 }
  - { offsetInCU: 0x67C8, offset: 0x20C64, size: 0x8, addend: 0x0, symName: __ZNSt3__110destroy_atB8ue170006I11RenderChunkLi0EEEvPT_, symObjAddr: 0x2E98, symBinAddr: 0x100007800, symSize: 0x24 }
  - { offsetInCU: 0x67FF, offset: 0x20C9B, size: 0x8, addend: 0x0, symName: __ZNSt3__112__destroy_atB8ue170006I11RenderChunkLi0EEEvPT_, symObjAddr: 0x2EBC, symBinAddr: 0x100007824, symSize: 0x24 }
  - { offsetInCU: 0x6860, offset: 0x20CFC, size: 0x8, addend: 0x0, symName: __ZNSt3__14prevB8ue170006IP11RenderChunkEENS_9enable_ifIXsr29__has_input_iterator_categoryIT_EE5valueES4_E4typeES4_NS_15iterator_traitsIS4_E15difference_typeE, symObjAddr: 0x2F9C, symBinAddr: 0x100007904, symSize: 0x3C }
  - { offsetInCU: 0x68A3, offset: 0x20D3F, size: 0x8, addend: 0x0, symName: __ZNSt3__19__advanceB8ue170006IP11RenderChunkEEvRT_NS_15iterator_traitsIS3_E15difference_typeENS_26random_access_iterator_tagE, symObjAddr: 0x3010, symBinAddr: 0x100007978, symSize: 0x28 }
  - { offsetInCU: 0x6941, offset: 0x20DDD, size: 0x8, addend: 0x0, symName: __ZNSt3__120__throw_out_of_rangeB8ue170006EPKc, symObjAddr: 0x3450, symBinAddr: 0x100007DB8, symSize: 0x64 }
  - { offsetInCU: 0x6D0F, offset: 0x211AB, size: 0x8, addend: 0x0, symName: __ZSt28__throw_bad_array_new_lengthB8ue170006v, symObjAddr: 0xE78, symBinAddr: 0x100005908, symSize: 0x34 }
  - { offsetInCU: 0x90E2, offset: 0x2357E, size: 0x8, addend: 0x0, symName: __ZN10RenderInfoC2ENSt3__16vectorINS1_I11RenderChunkNS0_9allocatorIS2_EEEENS3_IS5_EEEES7_S5_iS5_8Positionb, symObjAddr: 0x0, symBinAddr: 0x100004A9C, symSize: 0x118 }
  - { offsetInCU: 0x9174, offset: 0x23610, size: 0x8, addend: 0x0, symName: __ZNSt3__16vectorINS0_I11RenderChunkNS_9allocatorIS1_EEEENS2_IS4_EEEC1ERKS6_, symObjAddr: 0x118, symBinAddr: 0x100004BB4, symSize: 0x34 }
  - { offsetInCU: 0x91AE, offset: 0x2364A, size: 0x8, addend: 0x0, symName: __ZNSt3__16vectorI11RenderChunkNS_9allocatorIS1_EEEC1ERKS4_, symObjAddr: 0x14C, symBinAddr: 0x100004BE8, symSize: 0x34 }
  - { offsetInCU: 0x91E8, offset: 0x23684, size: 0x8, addend: 0x0, symName: __ZNSt3__16vectorI11RenderChunkNS_9allocatorIS1_EEED1B8ue170006Ev, symObjAddr: 0x180, symBinAddr: 0x100004C1C, symSize: 0x2C }
  - { offsetInCU: 0x9210, offset: 0x236AC, size: 0x8, addend: 0x0, symName: __ZNSt3__16vectorINS0_I11RenderChunkNS_9allocatorIS1_EEEENS2_IS4_EEED1B8ue170006Ev, symObjAddr: 0x1AC, symBinAddr: 0x100004C48, symSize: 0x2C }
  - { offsetInCU: 0x9237, offset: 0x236D3, size: 0x8, addend: 0x0, symName: __ZN10RenderInfoC1ENSt3__16vectorINS1_I11RenderChunkNS0_9allocatorIS2_EEEENS3_IS5_EEEES7_S5_iS5_8Positionb, symObjAddr: 0x1D8, symBinAddr: 0x100004C74, symSize: 0x70 }
  - { offsetInCU: 0x92C9, offset: 0x23765, size: 0x8, addend: 0x0, symName: __ZNK10RenderInfo14getTextAreaRowEi, symObjAddr: 0x248, symBinAddr: 0x100004CE4, symSize: 0x2C }
  - { offsetInCU: 0x92FE, offset: 0x2379A, size: 0x8, addend: 0x0, symName: __ZNKSt3__16vectorINS0_I11RenderChunkNS_9allocatorIS1_EEEENS2_IS4_EEE2atEm, symObjAddr: 0x274, symBinAddr: 0x100004D10, symSize: 0x68 }
  - { offsetInCU: 0x9334, offset: 0x237D0, size: 0x8, addend: 0x0, symName: __ZNK10RenderInfo19getTextAreaRowCountEv, symObjAddr: 0x2DC, symBinAddr: 0x100004D78, symSize: 0x24 }
  - { offsetInCU: 0x935B, offset: 0x237F7, size: 0x8, addend: 0x0, symName: __ZNKSt3__16vectorINS0_I11RenderChunkNS_9allocatorIS1_EEEENS2_IS4_EEE4sizeB8ue170006Ev, symObjAddr: 0x300, symBinAddr: 0x100004D9C, symSize: 0x28 }
  - { offsetInCU: 0x9380, offset: 0x2381C, size: 0x8, addend: 0x0, symName: __ZNK10RenderInfo11getPanelRowEi, symObjAddr: 0x328, symBinAddr: 0x100004DC4, symSize: 0x30 }
  - { offsetInCU: 0x93B5, offset: 0x23851, size: 0x8, addend: 0x0, symName: __ZNK10RenderInfo16getPanelRowCountEv, symObjAddr: 0x358, symBinAddr: 0x100004DF4, symSize: 0x28 }
  - { offsetInCU: 0x93DC, offset: 0x23878, size: 0x8, addend: 0x0, symName: __ZNK10RenderInfo11getAsideRowEi, symObjAddr: 0x380, symBinAddr: 0x100004E1C, symSize: 0x44 }
  - { offsetInCU: 0x9411, offset: 0x238AD, size: 0x8, addend: 0x0, symName: __ZNKSt3__16vectorI11RenderChunkNS_9allocatorIS1_EEE2atEm, symObjAddr: 0x3C4, symBinAddr: 0x100004E60, symSize: 0x60 }
  - { offsetInCU: 0x9450, offset: 0x238EC, size: 0x8, addend: 0x0, symName: __ZN11RenderChunkC1ERKS_, symObjAddr: 0x424, symBinAddr: 0x100004EC0, symSize: 0x34 }
  - { offsetInCU: 0x9485, offset: 0x23921, size: 0x8, addend: 0x0, symName: __ZNK10RenderInfo16getAsideRowCountEv, symObjAddr: 0x458, symBinAddr: 0x100004EF4, symSize: 0x28 }
  - { offsetInCU: 0x94AC, offset: 0x23948, size: 0x8, addend: 0x0, symName: __ZNKSt3__16vectorI11RenderChunkNS_9allocatorIS1_EEE4sizeB8ue170006Ev, symObjAddr: 0x480, symBinAddr: 0x100004F1C, symSize: 0x28 }
  - { offsetInCU: 0x94D1, offset: 0x2396D, size: 0x8, addend: 0x0, symName: __ZNK10RenderInfo13getAsideWidthEv, symObjAddr: 0x4A8, symBinAddr: 0x100004F44, symSize: 0x18 }
  - { offsetInCU: 0x94F8, offset: 0x23994, size: 0x8, addend: 0x0, symName: __ZNK10RenderInfo13getOverlayRowEi, symObjAddr: 0x4C0, symBinAddr: 0x100004F5C, symSize: 0x44 }
  - { offsetInCU: 0x952D, offset: 0x239C9, size: 0x8, addend: 0x0, symName: __ZNK10RenderInfo18getOverlayRowCountEv, symObjAddr: 0x504, symBinAddr: 0x100004FA0, symSize: 0x28 }
  - { offsetInCU: 0x9554, offset: 0x239F0, size: 0x8, addend: 0x0, symName: __ZNK10RenderInfo18shouldRenderColorsEv, symObjAddr: 0x52C, symBinAddr: 0x100004FC8, symSize: 0x1C }
  - { offsetInCU: 0x957B, offset: 0x23A17, size: 0x8, addend: 0x0, symName: __ZNK10RenderInfo17getCursorPositionEv, symObjAddr: 0x548, symBinAddr: 0x100004FE4, symSize: 0x18 }
  - { offsetInCU: 0x95A1, offset: 0x23A3D, size: 0x8, addend: 0x0, symName: __ZNSt3__16vectorINS0_I11RenderChunkNS_9allocatorIS1_EEEENS2_IS4_EEEC2ERKS6_, symObjAddr: 0x560, symBinAddr: 0x100004FFC, symSize: 0x94 }
  - { offsetInCU: 0x95E5, offset: 0x23A81, size: 0x8, addend: 0x0, symName: __ZNSt3__116allocator_traitsINS_9allocatorINS_6vectorI11RenderChunkNS1_IS3_EEEEEEE37select_on_container_copy_constructionB8ue170006IS6_vvEES6_RKS6_, symObjAddr: 0x5F4, symBinAddr: 0x100005090, symSize: 0x10 }
  - { offsetInCU: 0x9614, offset: 0x23AB0, size: 0x8, addend: 0x0, symName: __ZNKSt3__16vectorINS0_I11RenderChunkNS_9allocatorIS1_EEEENS2_IS4_EEE7__allocB8ue170006Ev, symObjAddr: 0x604, symBinAddr: 0x1000050A0, symSize: 0x28 }
  - { offsetInCU: 0x9643, offset: 0x23ADF, size: 0x8, addend: 0x0, symName: __ZNSt3__117__compressed_pairIPNS_6vectorI11RenderChunkNS_9allocatorIS2_EEEENS3_IS5_EEEC1B8ue170006IDnS7_EEOT_OT0_, symObjAddr: 0x62C, symBinAddr: 0x1000050C8, symSize: 0x3C }
  - { offsetInCU: 0x9699, offset: 0x23B35, size: 0x8, addend: 0x0, symName: __ZNSt3__16vectorINS0_I11RenderChunkNS_9allocatorIS1_EEEENS2_IS4_EEE16__init_with_sizeB8ue170006IPS4_S8_EEvT_T0_m, symObjAddr: 0x668, symBinAddr: 0x100005104, symSize: 0xB8 }
  - { offsetInCU: 0x970C, offset: 0x23BA8, size: 0x8, addend: 0x0, symName: __ZNKSt3__117__compressed_pairIPNS_6vectorI11RenderChunkNS_9allocatorIS2_EEEENS3_IS5_EEE6secondB8ue170006Ev, symObjAddr: 0x720, symBinAddr: 0x1000051BC, symSize: 0x24 }
  - { offsetInCU: 0x9731, offset: 0x23BCD, size: 0x8, addend: 0x0, symName: __ZNKSt3__122__compressed_pair_elemINS_9allocatorINS_6vectorI11RenderChunkNS1_IS3_EEEEEELi1ELb1EE5__getB8ue170006Ev, symObjAddr: 0x744, symBinAddr: 0x1000051E0, symSize: 0x14 }
  - { offsetInCU: 0x9756, offset: 0x23BF2, size: 0x8, addend: 0x0, symName: __ZNSt3__117__compressed_pairIPNS_6vectorI11RenderChunkNS_9allocatorIS2_EEEENS3_IS5_EEEC2B8ue170006IDnS7_EEOT_OT0_, symObjAddr: 0x758, symBinAddr: 0x1000051F4, symSize: 0x44 }
  - { offsetInCU: 0x97AC, offset: 0x23C48, size: 0x8, addend: 0x0, symName: __ZNSt3__122__compressed_pair_elemIPNS_6vectorI11RenderChunkNS_9allocatorIS2_EEEELi0ELb0EEC2B8ue170006IDnvEEOT_, symObjAddr: 0x79C, symBinAddr: 0x100005238, symSize: 0x1C }
  - { offsetInCU: 0x97EC, offset: 0x23C88, size: 0x8, addend: 0x0, symName: __ZNSt3__122__compressed_pair_elemINS_9allocatorINS_6vectorI11RenderChunkNS1_IS3_EEEEEELi1ELb1EEC2B8ue170006IS6_vEEOT_, symObjAddr: 0x7B8, symBinAddr: 0x100005254, symSize: 0x18 }
  - { offsetInCU: 0x982C, offset: 0x23CC8, size: 0x8, addend: 0x0, symName: __ZNSt3__16vectorINS0_I11RenderChunkNS_9allocatorIS1_EEEENS2_IS4_EEE16__destroy_vectorC1B8ue170006ERS6_, symObjAddr: 0x810, symBinAddr: 0x1000052AC, symSize: 0x34 }
  - { offsetInCU: 0x9863, offset: 0x23CFF, size: 0x8, addend: 0x0, symName: __ZNSt3__16vectorINS0_I11RenderChunkNS_9allocatorIS1_EEEENS2_IS4_EEE11__vallocateB8ue170006Em, symObjAddr: 0x844, symBinAddr: 0x1000052E0, symSize: 0xB4 }
  - { offsetInCU: 0x98A6, offset: 0x23D42, size: 0x8, addend: 0x0, symName: __ZNSt3__16vectorINS0_I11RenderChunkNS_9allocatorIS1_EEEENS2_IS4_EEE18__construct_at_endIPS4_S8_EEvT_T0_m, symObjAddr: 0x8F8, symBinAddr: 0x100005394, symSize: 0x8C }
  - { offsetInCU: 0x991B, offset: 0x23DB7, size: 0x8, addend: 0x0, symName: __ZNSt3__128__exception_guard_exceptionsINS_6vectorINS1_I11RenderChunkNS_9allocatorIS2_EEEENS3_IS5_EEE16__destroy_vectorEE10__completeB8ue170006Ev, symObjAddr: 0x984, symBinAddr: 0x100005420, symSize: 0x1C }
  - { offsetInCU: 0x9940, offset: 0x23DDC, size: 0x8, addend: 0x0, symName: __ZNSt3__128__exception_guard_exceptionsINS_6vectorINS1_I11RenderChunkNS_9allocatorIS2_EEEENS3_IS5_EEE16__destroy_vectorEED1B8ue170006Ev, symObjAddr: 0x9A0, symBinAddr: 0x10000543C, symSize: 0x2C }
  - { offsetInCU: 0x9968, offset: 0x23E04, size: 0x8, addend: 0x0, symName: __ZNSt3__128__exception_guard_exceptionsINS_6vectorINS1_I11RenderChunkNS_9allocatorIS2_EEEENS3_IS5_EEE16__destroy_vectorEEC1B8ue170006ES8_, symObjAddr: 0x9CC, symBinAddr: 0x100005468, symSize: 0x34 }
  - { offsetInCU: 0x999E, offset: 0x23E3A, size: 0x8, addend: 0x0, symName: __ZNSt3__128__exception_guard_exceptionsINS_6vectorINS1_I11RenderChunkNS_9allocatorIS2_EEEENS3_IS5_EEE16__destroy_vectorEEC2B8ue170006ES8_, symObjAddr: 0xA00, symBinAddr: 0x10000549C, symSize: 0x24 }
  - { offsetInCU: 0x99D4, offset: 0x23E70, size: 0x8, addend: 0x0, symName: __ZNSt3__16vectorINS0_I11RenderChunkNS_9allocatorIS1_EEEENS2_IS4_EEE16__destroy_vectorC2B8ue170006ERS6_, symObjAddr: 0xA24, symBinAddr: 0x1000054C0, symSize: 0x20 }
  - { offsetInCU: 0x9A0B, offset: 0x23EA7, size: 0x8, addend: 0x0, symName: __ZNKSt3__16vectorINS0_I11RenderChunkNS_9allocatorIS1_EEEENS2_IS4_EEE8max_sizeEv, symObjAddr: 0xA44, symBinAddr: 0x1000054E0, symSize: 0x60 }
  - { offsetInCU: 0x9A32, offset: 0x23ECE, size: 0x8, addend: 0x0, symName: __ZNKSt3__16vectorINS0_I11RenderChunkNS_9allocatorIS1_EEEENS2_IS4_EEE20__throw_length_errorB8ue170006Ev, symObjAddr: 0xAA4, symBinAddr: 0x100005540, symSize: 0x1C }
  - { offsetInCU: 0x9A57, offset: 0x23EF3, size: 0x8, addend: 0x0, symName: __ZNSt3__16vectorINS0_I11RenderChunkNS_9allocatorIS1_EEEENS2_IS4_EEE7__allocB8ue170006Ev, symObjAddr: 0xB00, symBinAddr: 0x10000559C, symSize: 0x28 }
  - { offsetInCU: 0x9A7C, offset: 0x23F18, size: 0x8, addend: 0x0, symName: __ZNSt3__16vectorINS0_I11RenderChunkNS_9allocatorIS1_EEEENS2_IS4_EEE9__end_capB8ue170006Ev, symObjAddr: 0xB28, symBinAddr: 0x1000055C4, symSize: 0x28 }
  - { offsetInCU: 0x9AA1, offset: 0x23F3D, size: 0x8, addend: 0x0, symName: __ZNKSt3__16vectorINS0_I11RenderChunkNS_9allocatorIS1_EEEENS2_IS4_EEE14__annotate_newB8ue170006Em, symObjAddr: 0xB50, symBinAddr: 0x1000055EC, symSize: 0xC8 }
  - { offsetInCU: 0x9AD5, offset: 0x23F71, size: 0x8, addend: 0x0, symName: __ZNSt3__116allocator_traitsINS_9allocatorINS_6vectorI11RenderChunkNS1_IS3_EEEEEEE8max_sizeB8ue170006IS6_vvEEmRKS6_, symObjAddr: 0xC44, symBinAddr: 0x1000056E0, symSize: 0x28 }
  - { offsetInCU: 0x9B00, offset: 0x23F9C, size: 0x8, addend: 0x0, symName: __ZNSt3__114numeric_limitsIlE3maxB8ue170006Ev, symObjAddr: 0xC6C, symBinAddr: 0x100005708, symSize: 0x14 }
  - { offsetInCU: 0x9B28, offset: 0x23FC4, size: 0x8, addend: 0x0, symName: __ZNKSt3__16__lessIvvEclB8ue170006ImmEEbRKT_RKT0_, symObjAddr: 0xCE0, symBinAddr: 0x100005770, symSize: 0x34 }
  - { offsetInCU: 0x9B7B, offset: 0x24017, size: 0x8, addend: 0x0, symName: __ZNSt3__114numeric_limitsImE3maxB8ue170006Ev, symObjAddr: 0xD14, symBinAddr: 0x1000057A4, symSize: 0x14 }
  - { offsetInCU: 0x9B8F, offset: 0x2402B, size: 0x8, addend: 0x0, symName: __ZNSt3__123__libcpp_numeric_limitsImLb1EE3maxB8ue170006Ev, symObjAddr: 0xD28, symBinAddr: 0x1000057B8, symSize: 0x8 }
  - { offsetInCU: 0x9BA3, offset: 0x2403F, size: 0x8, addend: 0x0, symName: __ZNSt3__123__libcpp_numeric_limitsIlLb1EE3maxB8ue170006Ev, symObjAddr: 0xD30, symBinAddr: 0x1000057C0, symSize: 0x8 }
  - { offsetInCU: 0x9BB7, offset: 0x24053, size: 0x8, addend: 0x0, symName: __ZNSt12length_errorC1B8ue170006EPKc, symObjAddr: 0xD9C, symBinAddr: 0x10000582C, symSize: 0x34 }
  - { offsetInCU: 0x9BED, offset: 0x24089, size: 0x8, addend: 0x0, symName: __ZNSt12length_errorC2B8ue170006EPKc, symObjAddr: 0xDD0, symBinAddr: 0x100005860, symSize: 0x4C }
  - { offsetInCU: 0x9C23, offset: 0x240BF, size: 0x8, addend: 0x0, symName: __ZNSt3__19allocatorINS_6vectorI11RenderChunkNS0_IS2_EEEEE8allocateB8ue170006Em, symObjAddr: 0xE1C, symBinAddr: 0x1000058AC, symSize: 0x5C }
  - { offsetInCU: 0x9C56, offset: 0x240F2, size: 0x8, addend: 0x0, symName: __ZNSt3__117__compressed_pairIPNS_6vectorI11RenderChunkNS_9allocatorIS2_EEEENS3_IS5_EEE6secondB8ue170006Ev, symObjAddr: 0xF7C, symBinAddr: 0x1000059EC, symSize: 0x24 }
  - { offsetInCU: 0x9C7B, offset: 0x24117, size: 0x8, addend: 0x0, symName: __ZNSt3__122__compressed_pair_elemINS_9allocatorINS_6vectorI11RenderChunkNS1_IS3_EEEEEELi1ELb1EE5__getB8ue170006Ev, symObjAddr: 0xFA0, symBinAddr: 0x100005A10, symSize: 0x14 }
  - { offsetInCU: 0x9CA0, offset: 0x2413C, size: 0x8, addend: 0x0, symName: __ZNSt3__117__compressed_pairIPNS_6vectorI11RenderChunkNS_9allocatorIS2_EEEENS3_IS5_EEE5firstB8ue170006Ev, symObjAddr: 0xFB4, symBinAddr: 0x100005A24, symSize: 0x24 }
  - { offsetInCU: 0x9CC5, offset: 0x24161, size: 0x8, addend: 0x0, symName: __ZNSt3__122__compressed_pair_elemIPNS_6vectorI11RenderChunkNS_9allocatorIS2_EEEELi0ELb0EE5__getB8ue170006Ev, symObjAddr: 0xFD8, symBinAddr: 0x100005A48, symSize: 0x14 }
  - { offsetInCU: 0x9CEA, offset: 0x24186, size: 0x8, addend: 0x0, symName: __ZNKSt3__16vectorINS0_I11RenderChunkNS_9allocatorIS1_EEEENS2_IS4_EEE31__annotate_contiguous_containerB8ue170006EPKvS8_S8_S8_, symObjAddr: 0xFEC, symBinAddr: 0x100005A5C, symSize: 0x20 }
  - { offsetInCU: 0x9D3B, offset: 0x241D7, size: 0x8, addend: 0x0, symName: __ZNKSt3__16vectorINS0_I11RenderChunkNS_9allocatorIS1_EEEENS2_IS4_EEE4dataB8ue170006Ev, symObjAddr: 0x100C, symBinAddr: 0x100005A7C, symSize: 0x28 }
  - { offsetInCU: 0x9D60, offset: 0x241FC, size: 0x8, addend: 0x0, symName: __ZNKSt3__16vectorINS0_I11RenderChunkNS_9allocatorIS1_EEEENS2_IS4_EEE8capacityB8ue170006Ev, symObjAddr: 0x1034, symBinAddr: 0x100005AA4, symSize: 0x40 }
  - { offsetInCU: 0x9D85, offset: 0x24221, size: 0x8, addend: 0x0, symName: __ZNKSt3__16vectorINS0_I11RenderChunkNS_9allocatorIS1_EEEENS2_IS4_EEE9__end_capB8ue170006Ev, symObjAddr: 0x1088, symBinAddr: 0x100005AF8, symSize: 0x28 }
  - { offsetInCU: 0x9DAA, offset: 0x24246, size: 0x8, addend: 0x0, symName: __ZNKSt3__117__compressed_pairIPNS_6vectorI11RenderChunkNS_9allocatorIS2_EEEENS3_IS5_EEE5firstB8ue170006Ev, symObjAddr: 0x10B0, symBinAddr: 0x100005B20, symSize: 0x24 }
  - { offsetInCU: 0x9DCF, offset: 0x2426B, size: 0x8, addend: 0x0, symName: __ZNKSt3__122__compressed_pair_elemIPNS_6vectorI11RenderChunkNS_9allocatorIS2_EEEELi0ELb0EE5__getB8ue170006Ev, symObjAddr: 0x10D4, symBinAddr: 0x100005B44, symSize: 0x14 }
  - { offsetInCU: 0x9E0D, offset: 0x242A9, size: 0x8, addend: 0x0, symName: __ZNSt3__16vectorINS0_I11RenderChunkNS_9allocatorIS1_EEEENS2_IS4_EEE21_ConstructTransactionC1B8ue170006ERS6_m, symObjAddr: 0x10E8, symBinAddr: 0x100005B58, symSize: 0x3C }
  - { offsetInCU: 0x9E53, offset: 0x242EF, size: 0x8, addend: 0x0, symName: __ZNSt3__16vectorINS0_I11RenderChunkNS_9allocatorIS1_EEEENS2_IS4_EEE21_ConstructTransactionD1B8ue170006Ev, symObjAddr: 0x11A4, symBinAddr: 0x100005C14, symSize: 0x2C }
  - { offsetInCU: 0x9E7B, offset: 0x24317, size: 0x8, addend: 0x0, symName: __ZNSt3__16vectorINS0_I11RenderChunkNS_9allocatorIS1_EEEENS2_IS4_EEE21_ConstructTransactionC2B8ue170006ERS6_m, symObjAddr: 0x11D0, symBinAddr: 0x100005C40, symSize: 0x4C }
  - { offsetInCU: 0x9EDA, offset: 0x24376, size: 0x8, addend: 0x0, symName: __ZNSt3__119__unwrap_range_implIPNS_6vectorI11RenderChunkNS_9allocatorIS2_EEEES6_E8__unwrapB8ue170006ES6_S6_, symObjAddr: 0x13AC, symBinAddr: 0x100005E1C, symSize: 0x58 }
  - { offsetInCU: 0x9F10, offset: 0x243AC, size: 0x8, addend: 0x0, symName: __ZNSt3__14pairIPNS_6vectorI11RenderChunkNS_9allocatorIS2_EEEES6_EC1B8ue170006IS6_S6_LPv0EEEOT_OT0_, symObjAddr: 0x1404, symBinAddr: 0x100005E74, symSize: 0x3C }
  - { offsetInCU: 0x9F6D, offset: 0x24409, size: 0x8, addend: 0x0, symName: __ZNSt3__14pairIPNS_6vectorI11RenderChunkNS_9allocatorIS2_EEEES6_EC2B8ue170006IS6_S6_LPv0EEEOT_OT0_, symObjAddr: 0x1440, symBinAddr: 0x100005EB0, symSize: 0x34 }
  - { offsetInCU: 0x9FCA, offset: 0x24466, size: 0x8, addend: 0x0, symName: __ZNSt3__129_AllocatorDestroyRangeReverseINS_9allocatorINS_6vectorI11RenderChunkNS1_IS3_EEEEEEPS5_EC1B8ue170006ERS6_RS7_SA_, symObjAddr: 0x14C0, symBinAddr: 0x100005F30, symSize: 0x44 }
  - { offsetInCU: 0xA01F, offset: 0x244BB, size: 0x8, addend: 0x0, symName: __ZNSt3__116allocator_traitsINS_9allocatorINS_6vectorI11RenderChunkNS1_IS3_EEEEEEE9constructB8ue170006IS5_JRS5_EvvEEvRS6_PT_DpOT0_, symObjAddr: 0x1504, symBinAddr: 0x100005F74, symSize: 0x30 }
  - { offsetInCU: 0xA073, offset: 0x2450F, size: 0x8, addend: 0x0, symName: __ZNSt3__128__exception_guard_exceptionsINS_29_AllocatorDestroyRangeReverseINS_9allocatorINS_6vectorI11RenderChunkNS2_IS4_EEEEEEPS6_EEE10__completeB8ue170006Ev, symObjAddr: 0x1534, symBinAddr: 0x100005FA4, symSize: 0x1C }
  - { offsetInCU: 0xA098, offset: 0x24534, size: 0x8, addend: 0x0, symName: __ZNSt3__128__exception_guard_exceptionsINS_29_AllocatorDestroyRangeReverseINS_9allocatorINS_6vectorI11RenderChunkNS2_IS4_EEEEEEPS6_EEED1B8ue170006Ev, symObjAddr: 0x1550, symBinAddr: 0x100005FC0, symSize: 0x2C }
  - { offsetInCU: 0xA0C0, offset: 0x2455C, size: 0x8, addend: 0x0, symName: __ZNSt3__128__exception_guard_exceptionsINS_29_AllocatorDestroyRangeReverseINS_9allocatorINS_6vectorI11RenderChunkNS2_IS4_EEEEEEPS6_EEEC1B8ue170006ES9_, symObjAddr: 0x157C, symBinAddr: 0x100005FEC, symSize: 0x34 }
  - { offsetInCU: 0xA0F7, offset: 0x24593, size: 0x8, addend: 0x0, symName: __ZNSt3__128__exception_guard_exceptionsINS_29_AllocatorDestroyRangeReverseINS_9allocatorINS_6vectorI11RenderChunkNS2_IS4_EEEEEEPS6_EEEC2B8ue170006ES9_, symObjAddr: 0x15B0, symBinAddr: 0x100006020, symSize: 0x30 }
  - { offsetInCU: 0xA12E, offset: 0x245CA, size: 0x8, addend: 0x0, symName: __ZNSt3__129_AllocatorDestroyRangeReverseINS_9allocatorINS_6vectorI11RenderChunkNS1_IS3_EEEEEEPS5_EC2B8ue170006ERS6_RS7_SA_, symObjAddr: 0x15E0, symBinAddr: 0x100006050, symSize: 0x38 }
  - { offsetInCU: 0xA183, offset: 0x2461F, size: 0x8, addend: 0x0, symName: __ZNSt3__128__exception_guard_exceptionsINS_29_AllocatorDestroyRangeReverseINS_9allocatorINS_6vectorI11RenderChunkNS2_IS4_EEEEEEPS6_EEED2B8ue170006Ev, symObjAddr: 0x1654, symBinAddr: 0x1000060C4, symSize: 0x50 }
  - { offsetInCU: 0xA1AB, offset: 0x24647, size: 0x8, addend: 0x0, symName: __ZNKSt3__129_AllocatorDestroyRangeReverseINS_9allocatorINS_6vectorI11RenderChunkNS1_IS3_EEEEEEPS5_EclB8ue170006Ev, symObjAddr: 0x16A4, symBinAddr: 0x100006114, symSize: 0x68 }
  - { offsetInCU: 0xA1D0, offset: 0x2466C, size: 0x8, addend: 0x0, symName: __ZNSt3__116reverse_iteratorIPNS_6vectorI11RenderChunkNS_9allocatorIS2_EEEEEC1B8ue170006ES6_, symObjAddr: 0x177C, symBinAddr: 0x1000061EC, symSize: 0x34 }
  - { offsetInCU: 0xA206, offset: 0x246A2, size: 0x8, addend: 0x0, symName: __ZNSt3__116allocator_traitsINS_9allocatorINS_6vectorI11RenderChunkNS1_IS3_EEEEEEE7destroyB8ue170006IS5_vvEEvRS6_PT_, symObjAddr: 0x17F8, symBinAddr: 0x100006268, symSize: 0x28 }
  - { offsetInCU: 0xA240, offset: 0x246DC, size: 0x8, addend: 0x0, symName: __ZNSt3__116reverse_iteratorIPNS_6vectorI11RenderChunkNS_9allocatorIS2_EEEEEppB8ue170006Ev, symObjAddr: 0x1844, symBinAddr: 0x1000062B4, symSize: 0x20 }
  - { offsetInCU: 0xA265, offset: 0x24701, size: 0x8, addend: 0x0, symName: __ZNKSt3__116reverse_iteratorIPNS_6vectorI11RenderChunkNS_9allocatorIS2_EEEEE4baseB8ue170006Ev, symObjAddr: 0x1864, symBinAddr: 0x1000062D4, symSize: 0x18 }
  - { offsetInCU: 0xA28F, offset: 0x2472B, size: 0x8, addend: 0x0, symName: __ZNSt3__119__to_address_helperINS_16reverse_iteratorIPNS_6vectorI11RenderChunkNS_9allocatorIS3_EEEEEEvE6__callB8ue170006ERKS8_, symObjAddr: 0x18C4, symBinAddr: 0x100006334, symSize: 0x38 }
  - { offsetInCU: 0xA2B2, offset: 0x2474E, size: 0x8, addend: 0x0, symName: __ZNKSt3__116reverse_iteratorIPNS_6vectorI11RenderChunkNS_9allocatorIS2_EEEEEptB8ue170006Ev, symObjAddr: 0x18FC, symBinAddr: 0x10000636C, symSize: 0x2C }
  - { offsetInCU: 0xA2D7, offset: 0x24773, size: 0x8, addend: 0x0, symName: __ZNSt3__116reverse_iteratorIPNS_6vectorI11RenderChunkNS_9allocatorIS2_EEEEEC2B8ue170006ES6_, symObjAddr: 0x19E0, symBinAddr: 0x100006450, symSize: 0x28 }
  - { offsetInCU: 0xA30D, offset: 0x247A9, size: 0x8, addend: 0x0, symName: __ZNSt3__118__unwrap_iter_implIPNS_6vectorI11RenderChunkNS_9allocatorIS2_EEEELb1EE8__unwrapB8ue170006ES6_, symObjAddr: 0x1A08, symBinAddr: 0x100006478, symSize: 0x24 }
  - { offsetInCU: 0xA330, offset: 0x247CC, size: 0x8, addend: 0x0, symName: __ZNSt3__118__unwrap_iter_implIPNS_6vectorI11RenderChunkNS_9allocatorIS2_EEEELb1EE8__rewrapB8ue170006ES6_S6_, symObjAddr: 0x1A2C, symBinAddr: 0x10000649C, symSize: 0x58 }
  - { offsetInCU: 0xA361, offset: 0x247FD, size: 0x8, addend: 0x0, symName: __ZNSt3__16vectorINS0_I11RenderChunkNS_9allocatorIS1_EEEENS2_IS4_EEE21_ConstructTransactionD2B8ue170006Ev, symObjAddr: 0x1A84, symBinAddr: 0x1000064F4, symSize: 0x20 }
  - { offsetInCU: 0xA389, offset: 0x24825, size: 0x8, addend: 0x0, symName: __ZNSt3__128__exception_guard_exceptionsINS_6vectorINS1_I11RenderChunkNS_9allocatorIS2_EEEENS3_IS5_EEE16__destroy_vectorEED2B8ue170006Ev, symObjAddr: 0x1AA4, symBinAddr: 0x100006514, symSize: 0x50 }
  - { offsetInCU: 0xA3B1, offset: 0x2484D, size: 0x8, addend: 0x0, symName: __ZNSt3__16vectorINS0_I11RenderChunkNS_9allocatorIS1_EEEENS2_IS4_EEE16__destroy_vectorclB8ue170006Ev, symObjAddr: 0x1AF4, symBinAddr: 0x100006564, symSize: 0x90 }
  - { offsetInCU: 0xA3D6, offset: 0x24872, size: 0x8, addend: 0x0, symName: __ZNSt3__16vectorINS0_I11RenderChunkNS_9allocatorIS1_EEEENS2_IS4_EEE7__clearB8ue170006Ev, symObjAddr: 0x1B84, symBinAddr: 0x1000065F4, symSize: 0x28 }
  - { offsetInCU: 0xA3FB, offset: 0x24897, size: 0x8, addend: 0x0, symName: __ZNKSt3__16vectorINS0_I11RenderChunkNS_9allocatorIS1_EEEENS2_IS4_EEE17__annotate_deleteB8ue170006Ev, symObjAddr: 0x1BAC, symBinAddr: 0x10000661C, symSize: 0xD4 }
  - { offsetInCU: 0xA420, offset: 0x248BC, size: 0x8, addend: 0x0, symName: __ZNSt3__116allocator_traitsINS_9allocatorINS_6vectorI11RenderChunkNS1_IS3_EEEEEEE10deallocateB8ue170006ERS6_PS5_m, symObjAddr: 0x1C80, symBinAddr: 0x1000066F0, symSize: 0x34 }
  - { offsetInCU: 0xA462, offset: 0x248FE, size: 0x8, addend: 0x0, symName: __ZNSt3__16vectorINS0_I11RenderChunkNS_9allocatorIS1_EEEENS2_IS4_EEE22__base_destruct_at_endB8ue170006EPS4_, symObjAddr: 0x1CB4, symBinAddr: 0x100006724, symSize: 0x8C }
  - { offsetInCU: 0xA4A5, offset: 0x24941, size: 0x8, addend: 0x0, symName: __ZNSt3__19allocatorINS_6vectorI11RenderChunkNS0_IS2_EEEEE10deallocateB8ue170006EPS4_m, symObjAddr: 0x1D40, symBinAddr: 0x1000067B0, symSize: 0x44 }
  - { offsetInCU: 0xA4E6, offset: 0x24982, size: 0x8, addend: 0x0, symName: __ZNSt3__16vectorI11RenderChunkNS_9allocatorIS1_EEEC2ERKS4_, symObjAddr: 0x1E8C, symBinAddr: 0x1000067F4, symSize: 0x94 }
  - { offsetInCU: 0xA52A, offset: 0x249C6, size: 0x8, addend: 0x0, symName: __ZNSt3__116allocator_traitsINS_9allocatorI11RenderChunkEEE37select_on_container_copy_constructionB8ue170006IS3_vvEES3_RKS3_, symObjAddr: 0x1F20, symBinAddr: 0x100006888, symSize: 0x10 }
  - { offsetInCU: 0xA559, offset: 0x249F5, size: 0x8, addend: 0x0, symName: __ZNKSt3__16vectorI11RenderChunkNS_9allocatorIS1_EEE7__allocB8ue170006Ev, symObjAddr: 0x1F30, symBinAddr: 0x100006898, symSize: 0x28 }
  - { offsetInCU: 0xA583, offset: 0x24A1F, size: 0x8, addend: 0x0, symName: __ZNSt3__117__compressed_pairIP11RenderChunkNS_9allocatorIS1_EEEC1B8ue170006IDnS4_EEOT_OT0_, symObjAddr: 0x1F58, symBinAddr: 0x1000068C0, symSize: 0x3C }
  - { offsetInCU: 0xA5D9, offset: 0x24A75, size: 0x8, addend: 0x0, symName: __ZNSt3__16vectorI11RenderChunkNS_9allocatorIS1_EEE16__init_with_sizeB8ue170006IPS1_S6_EEvT_T0_m, symObjAddr: 0x1F94, symBinAddr: 0x1000068FC, symSize: 0xB8 }
  - { offsetInCU: 0xA64C, offset: 0x24AE8, size: 0x8, addend: 0x0, symName: __ZNKSt3__117__compressed_pairIP11RenderChunkNS_9allocatorIS1_EEE6secondB8ue170006Ev, symObjAddr: 0x204C, symBinAddr: 0x1000069B4, symSize: 0x24 }
  - { offsetInCU: 0xA671, offset: 0x24B0D, size: 0x8, addend: 0x0, symName: __ZNKSt3__122__compressed_pair_elemINS_9allocatorI11RenderChunkEELi1ELb1EE5__getB8ue170006Ev, symObjAddr: 0x2070, symBinAddr: 0x1000069D8, symSize: 0x14 }
  - { offsetInCU: 0xA696, offset: 0x24B32, size: 0x8, addend: 0x0, symName: __ZNSt3__117__compressed_pairIP11RenderChunkNS_9allocatorIS1_EEEC2B8ue170006IDnS4_EEOT_OT0_, symObjAddr: 0x2084, symBinAddr: 0x1000069EC, symSize: 0x44 }
  - { offsetInCU: 0xA6EC, offset: 0x24B88, size: 0x8, addend: 0x0, symName: __ZNSt3__122__compressed_pair_elemIP11RenderChunkLi0ELb0EEC2B8ue170006IDnvEEOT_, symObjAddr: 0x20C8, symBinAddr: 0x100006A30, symSize: 0x1C }
  - { offsetInCU: 0xA72C, offset: 0x24BC8, size: 0x8, addend: 0x0, symName: __ZNSt3__122__compressed_pair_elemINS_9allocatorI11RenderChunkEELi1ELb1EEC2B8ue170006IS3_vEEOT_, symObjAddr: 0x20E4, symBinAddr: 0x100006A4C, symSize: 0x18 }
  - { offsetInCU: 0xA76C, offset: 0x24C08, size: 0x8, addend: 0x0, symName: __ZNSt3__16vectorI11RenderChunkNS_9allocatorIS1_EEE16__destroy_vectorC1B8ue170006ERS4_, symObjAddr: 0x213C, symBinAddr: 0x100006AA4, symSize: 0x34 }
  - { offsetInCU: 0xA7A3, offset: 0x24C3F, size: 0x8, addend: 0x0, symName: __ZNSt3__16vectorI11RenderChunkNS_9allocatorIS1_EEE11__vallocateB8ue170006Em, symObjAddr: 0x2170, symBinAddr: 0x100006AD8, symSize: 0xAC }
  - { offsetInCU: 0xA7E6, offset: 0x24C82, size: 0x8, addend: 0x0, symName: __ZNSt3__16vectorI11RenderChunkNS_9allocatorIS1_EEE18__construct_at_endIPS1_S6_EEvT_T0_m, symObjAddr: 0x221C, symBinAddr: 0x100006B84, symSize: 0x8C }
  - { offsetInCU: 0xA85B, offset: 0x24CF7, size: 0x8, addend: 0x0, symName: __ZNSt3__128__exception_guard_exceptionsINS_6vectorI11RenderChunkNS_9allocatorIS2_EEE16__destroy_vectorEE10__completeB8ue170006Ev, symObjAddr: 0x22A8, symBinAddr: 0x100006C10, symSize: 0x1C }
  - { offsetInCU: 0xA880, offset: 0x24D1C, size: 0x8, addend: 0x0, symName: __ZNSt3__128__exception_guard_exceptionsINS_6vectorI11RenderChunkNS_9allocatorIS2_EEE16__destroy_vectorEED1B8ue170006Ev, symObjAddr: 0x22C4, symBinAddr: 0x100006C2C, symSize: 0x2C }
  - { offsetInCU: 0xA8A8, offset: 0x24D44, size: 0x8, addend: 0x0, symName: __ZNSt3__128__exception_guard_exceptionsINS_6vectorI11RenderChunkNS_9allocatorIS2_EEE16__destroy_vectorEEC1B8ue170006ES6_, symObjAddr: 0x22F0, symBinAddr: 0x100006C58, symSize: 0x34 }
  - { offsetInCU: 0xA8DE, offset: 0x24D7A, size: 0x8, addend: 0x0, symName: __ZNSt3__128__exception_guard_exceptionsINS_6vectorI11RenderChunkNS_9allocatorIS2_EEE16__destroy_vectorEEC2B8ue170006ES6_, symObjAddr: 0x2324, symBinAddr: 0x100006C8C, symSize: 0x24 }
  - { offsetInCU: 0xA914, offset: 0x24DB0, size: 0x8, addend: 0x0, symName: __ZNSt3__16vectorI11RenderChunkNS_9allocatorIS1_EEE16__destroy_vectorC2B8ue170006ERS4_, symObjAddr: 0x2348, symBinAddr: 0x100006CB0, symSize: 0x20 }
  - { offsetInCU: 0xA94B, offset: 0x24DE7, size: 0x8, addend: 0x0, symName: __ZNKSt3__16vectorI11RenderChunkNS_9allocatorIS1_EEE8max_sizeEv, symObjAddr: 0x2368, symBinAddr: 0x100006CD0, symSize: 0x60 }
  - { offsetInCU: 0xA972, offset: 0x24E0E, size: 0x8, addend: 0x0, symName: __ZNKSt3__16vectorI11RenderChunkNS_9allocatorIS1_EEE20__throw_length_errorB8ue170006Ev, symObjAddr: 0x23C8, symBinAddr: 0x100006D30, symSize: 0x1C }
  - { offsetInCU: 0xA997, offset: 0x24E33, size: 0x8, addend: 0x0, symName: __ZNSt3__16vectorI11RenderChunkNS_9allocatorIS1_EEE7__allocB8ue170006Ev, symObjAddr: 0x2424, symBinAddr: 0x100006D8C, symSize: 0x28 }
  - { offsetInCU: 0xA9BC, offset: 0x24E58, size: 0x8, addend: 0x0, symName: __ZNSt3__16vectorI11RenderChunkNS_9allocatorIS1_EEE9__end_capB8ue170006Ev, symObjAddr: 0x244C, symBinAddr: 0x100006DB4, symSize: 0x28 }
  - { offsetInCU: 0xA9E1, offset: 0x24E7D, size: 0x8, addend: 0x0, symName: __ZNKSt3__16vectorI11RenderChunkNS_9allocatorIS1_EEE14__annotate_newB8ue170006Em, symObjAddr: 0x2474, symBinAddr: 0x100006DDC, symSize: 0xAC }
  - { offsetInCU: 0xAA15, offset: 0x24EB1, size: 0x8, addend: 0x0, symName: __ZNSt3__116allocator_traitsINS_9allocatorI11RenderChunkEEE8max_sizeB8ue170006IS3_vvEEmRKS3_, symObjAddr: 0x2520, symBinAddr: 0x100006E88, symSize: 0x28 }
  - { offsetInCU: 0xAA40, offset: 0x24EDC, size: 0x8, addend: 0x0, symName: __ZNSt3__19allocatorI11RenderChunkE8allocateB8ue170006Em, symObjAddr: 0x2548, symBinAddr: 0x100006EB0, symSize: 0x58 }
  - { offsetInCU: 0xAA73, offset: 0x24F0F, size: 0x8, addend: 0x0, symName: __ZNSt3__117__compressed_pairIP11RenderChunkNS_9allocatorIS1_EEE6secondB8ue170006Ev, symObjAddr: 0x25A0, symBinAddr: 0x100006F08, symSize: 0x24 }
  - { offsetInCU: 0xAA98, offset: 0x24F34, size: 0x8, addend: 0x0, symName: __ZNSt3__122__compressed_pair_elemINS_9allocatorI11RenderChunkEELi1ELb1EE5__getB8ue170006Ev, symObjAddr: 0x25C4, symBinAddr: 0x100006F2C, symSize: 0x14 }
  - { offsetInCU: 0xAABD, offset: 0x24F59, size: 0x8, addend: 0x0, symName: __ZNSt3__117__compressed_pairIP11RenderChunkNS_9allocatorIS1_EEE5firstB8ue170006Ev, symObjAddr: 0x25D8, symBinAddr: 0x100006F40, symSize: 0x24 }
  - { offsetInCU: 0xAAE2, offset: 0x24F7E, size: 0x8, addend: 0x0, symName: __ZNSt3__122__compressed_pair_elemIP11RenderChunkLi0ELb0EE5__getB8ue170006Ev, symObjAddr: 0x25FC, symBinAddr: 0x100006F64, symSize: 0x14 }
  - { offsetInCU: 0xAB07, offset: 0x24FA3, size: 0x8, addend: 0x0, symName: __ZNKSt3__16vectorI11RenderChunkNS_9allocatorIS1_EEE31__annotate_contiguous_containerB8ue170006EPKvS6_S6_S6_, symObjAddr: 0x2610, symBinAddr: 0x100006F78, symSize: 0x20 }
  - { offsetInCU: 0xAB58, offset: 0x24FF4, size: 0x8, addend: 0x0, symName: __ZNKSt3__16vectorI11RenderChunkNS_9allocatorIS1_EEE4dataB8ue170006Ev, symObjAddr: 0x2630, symBinAddr: 0x100006F98, symSize: 0x28 }
  - { offsetInCU: 0xAB7D, offset: 0x25019, size: 0x8, addend: 0x0, symName: __ZNKSt3__16vectorI11RenderChunkNS_9allocatorIS1_EEE8capacityB8ue170006Ev, symObjAddr: 0x2658, symBinAddr: 0x100006FC0, symSize: 0x40 }
  - { offsetInCU: 0xABA2, offset: 0x2503E, size: 0x8, addend: 0x0, symName: __ZNKSt3__16vectorI11RenderChunkNS_9allocatorIS1_EEE9__end_capB8ue170006Ev, symObjAddr: 0x26AC, symBinAddr: 0x100007014, symSize: 0x28 }
  - { offsetInCU: 0xABC7, offset: 0x25063, size: 0x8, addend: 0x0, symName: __ZNKSt3__117__compressed_pairIP11RenderChunkNS_9allocatorIS1_EEE5firstB8ue170006Ev, symObjAddr: 0x26D4, symBinAddr: 0x10000703C, symSize: 0x24 }
  - { offsetInCU: 0xABEC, offset: 0x25088, size: 0x8, addend: 0x0, symName: __ZNKSt3__122__compressed_pair_elemIP11RenderChunkLi0ELb0EE5__getB8ue170006Ev, symObjAddr: 0x26F8, symBinAddr: 0x100007060, symSize: 0x14 }
  - { offsetInCU: 0xAC2A, offset: 0x250C6, size: 0x8, addend: 0x0, symName: __ZNSt3__16vectorI11RenderChunkNS_9allocatorIS1_EEE21_ConstructTransactionC1B8ue170006ERS4_m, symObjAddr: 0x270C, symBinAddr: 0x100007074, symSize: 0x3C }
  - { offsetInCU: 0xAC70, offset: 0x2510C, size: 0x8, addend: 0x0, symName: __ZNSt3__16vectorI11RenderChunkNS_9allocatorIS1_EEE21_ConstructTransactionD1B8ue170006Ev, symObjAddr: 0x27C8, symBinAddr: 0x100007130, symSize: 0x2C }
  - { offsetInCU: 0xAC98, offset: 0x25134, size: 0x8, addend: 0x0, symName: __ZNSt3__16vectorI11RenderChunkNS_9allocatorIS1_EEE21_ConstructTransactionC2B8ue170006ERS4_m, symObjAddr: 0x27F4, symBinAddr: 0x10000715C, symSize: 0x44 }
  - { offsetInCU: 0xACF7, offset: 0x25193, size: 0x8, addend: 0x0, symName: __ZNSt3__119__unwrap_range_implIP11RenderChunkS2_E8__unwrapB8ue170006ES2_S2_, symObjAddr: 0x29C8, symBinAddr: 0x100007330, symSize: 0x58 }
  - { offsetInCU: 0xAD2D, offset: 0x251C9, size: 0x8, addend: 0x0, symName: __ZNSt3__14pairIP11RenderChunkS2_EC1B8ue170006IS2_S2_LPv0EEEOT_OT0_, symObjAddr: 0x2A20, symBinAddr: 0x100007388, symSize: 0x3C }
  - { offsetInCU: 0xAD8A, offset: 0x25226, size: 0x8, addend: 0x0, symName: __ZNSt3__14pairIP11RenderChunkS2_EC2B8ue170006IS2_S2_LPv0EEEOT_OT0_, symObjAddr: 0x2A5C, symBinAddr: 0x1000073C4, symSize: 0x34 }
  - { offsetInCU: 0xADE7, offset: 0x25283, size: 0x8, addend: 0x0, symName: __ZNSt3__129_AllocatorDestroyRangeReverseINS_9allocatorI11RenderChunkEEPS2_EC1B8ue170006ERS3_RS4_S7_, symObjAddr: 0x2ADC, symBinAddr: 0x100007444, symSize: 0x44 }
  - { offsetInCU: 0xAE3C, offset: 0x252D8, size: 0x8, addend: 0x0, symName: __ZNSt3__116allocator_traitsINS_9allocatorI11RenderChunkEEE9constructB8ue170006IS2_JRS2_EvvEEvRS3_PT_DpOT0_, symObjAddr: 0x2B20, symBinAddr: 0x100007488, symSize: 0x30 }
  - { offsetInCU: 0xAE90, offset: 0x2532C, size: 0x8, addend: 0x0, symName: __ZNSt3__128__exception_guard_exceptionsINS_29_AllocatorDestroyRangeReverseINS_9allocatorI11RenderChunkEEPS3_EEE10__completeB8ue170006Ev, symObjAddr: 0x2B50, symBinAddr: 0x1000074B8, symSize: 0x1C }
  - { offsetInCU: 0xAEB5, offset: 0x25351, size: 0x8, addend: 0x0, symName: __ZNSt3__128__exception_guard_exceptionsINS_29_AllocatorDestroyRangeReverseINS_9allocatorI11RenderChunkEEPS3_EEED1B8ue170006Ev, symObjAddr: 0x2B6C, symBinAddr: 0x1000074D4, symSize: 0x2C }
  - { offsetInCU: 0xAEDD, offset: 0x25379, size: 0x8, addend: 0x0, symName: __ZNSt3__128__exception_guard_exceptionsINS_29_AllocatorDestroyRangeReverseINS_9allocatorI11RenderChunkEEPS3_EEEC1B8ue170006ES6_, symObjAddr: 0x2B98, symBinAddr: 0x100007500, symSize: 0x34 }
  - { offsetInCU: 0xAF14, offset: 0x253B0, size: 0x8, addend: 0x0, symName: __ZNSt3__128__exception_guard_exceptionsINS_29_AllocatorDestroyRangeReverseINS_9allocatorI11RenderChunkEEPS3_EEEC2B8ue170006ES6_, symObjAddr: 0x2BCC, symBinAddr: 0x100007534, symSize: 0x30 }
  - { offsetInCU: 0xAF4B, offset: 0x253E7, size: 0x8, addend: 0x0, symName: __ZNSt3__129_AllocatorDestroyRangeReverseINS_9allocatorI11RenderChunkEEPS2_EC2B8ue170006ERS3_RS4_S7_, symObjAddr: 0x2BFC, symBinAddr: 0x100007564, symSize: 0x38 }
  - { offsetInCU: 0xAFA0, offset: 0x2543C, size: 0x8, addend: 0x0, symName: __ZNSt3__128__exception_guard_exceptionsINS_29_AllocatorDestroyRangeReverseINS_9allocatorI11RenderChunkEEPS3_EEED2B8ue170006Ev, symObjAddr: 0x2C70, symBinAddr: 0x1000075D8, symSize: 0x50 }
  - { offsetInCU: 0xAFC8, offset: 0x25464, size: 0x8, addend: 0x0, symName: __ZNKSt3__129_AllocatorDestroyRangeReverseINS_9allocatorI11RenderChunkEEPS2_EclB8ue170006Ev, symObjAddr: 0x2CC0, symBinAddr: 0x100007628, symSize: 0x68 }
  - { offsetInCU: 0xAFED, offset: 0x25489, size: 0x8, addend: 0x0, symName: __ZNSt3__116reverse_iteratorIP11RenderChunkEC1B8ue170006ES2_, symObjAddr: 0x2D98, symBinAddr: 0x100007700, symSize: 0x34 }
  - { offsetInCU: 0xB023, offset: 0x254BF, size: 0x8, addend: 0x0, symName: __ZNSt3__116allocator_traitsINS_9allocatorI11RenderChunkEEE7destroyB8ue170006IS2_vvEEvRS3_PT_, symObjAddr: 0x2E14, symBinAddr: 0x10000777C, symSize: 0x28 }
  - { offsetInCU: 0xB05D, offset: 0x254F9, size: 0x8, addend: 0x0, symName: __ZNSt3__116reverse_iteratorIP11RenderChunkEppB8ue170006Ev, symObjAddr: 0x2E60, symBinAddr: 0x1000077C8, symSize: 0x20 }
  - { offsetInCU: 0xB082, offset: 0x2551E, size: 0x8, addend: 0x0, symName: __ZNKSt3__116reverse_iteratorIP11RenderChunkE4baseB8ue170006Ev, symObjAddr: 0x2E80, symBinAddr: 0x1000077E8, symSize: 0x18 }
  - { offsetInCU: 0xB0A6, offset: 0x25542, size: 0x8, addend: 0x0, symName: __ZN11RenderChunkD1Ev, symObjAddr: 0x2EE0, symBinAddr: 0x100007848, symSize: 0x2C }
  - { offsetInCU: 0xB0D1, offset: 0x2556D, size: 0x8, addend: 0x0, symName: __ZN11RenderChunkD2Ev, symObjAddr: 0x2F0C, symBinAddr: 0x100007874, symSize: 0x2C }
  - { offsetInCU: 0xB102, offset: 0x2559E, size: 0x8, addend: 0x0, symName: __ZNSt3__119__to_address_helperINS_16reverse_iteratorIP11RenderChunkEEvE6__callB8ue170006ERKS4_, symObjAddr: 0x2F38, symBinAddr: 0x1000078A0, symSize: 0x38 }
  - { offsetInCU: 0xB125, offset: 0x255C1, size: 0x8, addend: 0x0, symName: __ZNKSt3__116reverse_iteratorIP11RenderChunkEptB8ue170006Ev, symObjAddr: 0x2F70, symBinAddr: 0x1000078D8, symSize: 0x2C }
  - { offsetInCU: 0xB14A, offset: 0x255E6, size: 0x8, addend: 0x0, symName: __ZNSt3__116reverse_iteratorIP11RenderChunkEC2B8ue170006ES2_, symObjAddr: 0x3038, symBinAddr: 0x1000079A0, symSize: 0x28 }
  - { offsetInCU: 0xB180, offset: 0x2561C, size: 0x8, addend: 0x0, symName: __ZNSt3__118__unwrap_iter_implIP11RenderChunkLb1EE8__unwrapB8ue170006ES2_, symObjAddr: 0x3060, symBinAddr: 0x1000079C8, symSize: 0x24 }
  - { offsetInCU: 0xB1A3, offset: 0x2563F, size: 0x8, addend: 0x0, symName: __ZNSt3__118__unwrap_iter_implIP11RenderChunkLb1EE8__rewrapB8ue170006ES2_S2_, symObjAddr: 0x3084, symBinAddr: 0x1000079EC, symSize: 0x50 }
  - { offsetInCU: 0xB1D4, offset: 0x25670, size: 0x8, addend: 0x0, symName: __ZNSt3__16vectorI11RenderChunkNS_9allocatorIS1_EEE21_ConstructTransactionD2B8ue170006Ev, symObjAddr: 0x30D4, symBinAddr: 0x100007A3C, symSize: 0x20 }
  - { offsetInCU: 0xB1FC, offset: 0x25698, size: 0x8, addend: 0x0, symName: __ZNSt3__128__exception_guard_exceptionsINS_6vectorI11RenderChunkNS_9allocatorIS2_EEE16__destroy_vectorEED2B8ue170006Ev, symObjAddr: 0x30F4, symBinAddr: 0x100007A5C, symSize: 0x50 }
  - { offsetInCU: 0xB224, offset: 0x256C0, size: 0x8, addend: 0x0, symName: __ZNSt3__16vectorI11RenderChunkNS_9allocatorIS1_EEE16__destroy_vectorclB8ue170006Ev, symObjAddr: 0x3144, symBinAddr: 0x100007AAC, symSize: 0x90 }
  - { offsetInCU: 0xB249, offset: 0x256E5, size: 0x8, addend: 0x0, symName: __ZNSt3__16vectorI11RenderChunkNS_9allocatorIS1_EEE7__clearB8ue170006Ev, symObjAddr: 0x31D4, symBinAddr: 0x100007B3C, symSize: 0x28 }
  - { offsetInCU: 0xB26E, offset: 0x2570A, size: 0x8, addend: 0x0, symName: __ZNKSt3__16vectorI11RenderChunkNS_9allocatorIS1_EEE17__annotate_deleteB8ue170006Ev, symObjAddr: 0x31FC, symBinAddr: 0x100007B64, symSize: 0xB8 }
  - { offsetInCU: 0xB293, offset: 0x2572F, size: 0x8, addend: 0x0, symName: __ZNSt3__116allocator_traitsINS_9allocatorI11RenderChunkEEE10deallocateB8ue170006ERS3_PS2_m, symObjAddr: 0x32B4, symBinAddr: 0x100007C1C, symSize: 0x34 }
  - { offsetInCU: 0xB2D5, offset: 0x25771, size: 0x8, addend: 0x0, symName: __ZNSt3__16vectorI11RenderChunkNS_9allocatorIS1_EEE22__base_destruct_at_endB8ue170006EPS1_, symObjAddr: 0x32E8, symBinAddr: 0x100007C50, symSize: 0x8C }
  - { offsetInCU: 0xB318, offset: 0x257B4, size: 0x8, addend: 0x0, symName: __ZNSt3__19allocatorI11RenderChunkE10deallocateB8ue170006EPS1_m, symObjAddr: 0x3374, symBinAddr: 0x100007CDC, symSize: 0x40 }
  - { offsetInCU: 0xB359, offset: 0x257F5, size: 0x8, addend: 0x0, symName: __ZNSt3__16vectorI11RenderChunkNS_9allocatorIS1_EEED2B8ue170006Ev, symObjAddr: 0x33B4, symBinAddr: 0x100007D1C, symSize: 0x40 }
  - { offsetInCU: 0xB381, offset: 0x2581D, size: 0x8, addend: 0x0, symName: __ZNSt3__16vectorINS0_I11RenderChunkNS_9allocatorIS1_EEEENS2_IS4_EEED2B8ue170006Ev, symObjAddr: 0x33F4, symBinAddr: 0x100007D5C, symSize: 0x40 }
  - { offsetInCU: 0xB3A9, offset: 0x25845, size: 0x8, addend: 0x0, symName: __ZNKSt3__16vectorINS0_I11RenderChunkNS_9allocatorIS1_EEEENS2_IS4_EEE20__throw_out_of_rangeB8ue170006Ev, symObjAddr: 0x3434, symBinAddr: 0x100007D9C, symSize: 0x1C }
  - { offsetInCU: 0xB3CE, offset: 0x2586A, size: 0x8, addend: 0x0, symName: __ZNSt12out_of_rangeC1B8ue170006EPKc, symObjAddr: 0x34B4, symBinAddr: 0x100007E1C, symSize: 0x34 }
  - { offsetInCU: 0xB404, offset: 0x258A0, size: 0x8, addend: 0x0, symName: __ZNSt12out_of_rangeC2B8ue170006EPKc, symObjAddr: 0x34E8, symBinAddr: 0x100007E50, symSize: 0x4C }
  - { offsetInCU: 0xB43A, offset: 0x258D6, size: 0x8, addend: 0x0, symName: __ZNKSt3__16vectorI11RenderChunkNS_9allocatorIS1_EEE20__throw_out_of_rangeB8ue170006Ev, symObjAddr: 0x3534, symBinAddr: 0x100007E9C, symSize: 0x1C }
  - { offsetInCU: 0xB45E, offset: 0x258FA, size: 0x8, addend: 0x0, symName: __ZN11RenderChunkC2ERKS_, symObjAddr: 0x3550, symBinAddr: 0x100007EB8, symSize: 0x40 }
  - { offsetInCU: 0x26, offset: 0x259FE, size: 0x8, addend: 0x0, symName: __Z20getOppositeDirection9Direction, symObjAddr: 0x0, symBinAddr: 0x100007EF8, symSize: 0x78 }
  - { offsetInCU: 0x3B, offset: 0x25A13, size: 0x8, addend: 0x0, symName: __Z20getOppositeDirection9Direction, symObjAddr: 0x0, symBinAddr: 0x100007EF8, symSize: 0x78 }
  - { offsetInCU: 0x37B4, offset: 0x291F3, size: 0x8, addend: 0x0, symName: __ZNSt3__17advanceB8ue170006IPNS_12basic_stringIcNS_11char_traitsIcEENS_9allocatorIcEEEEllvEEvRT_T0_, symObjAddr: 0x2490, symBinAddr: 0x100009BFC, symSize: 0x38 }
  - { offsetInCU: 0x3B76, offset: 0x295B5, size: 0x8, addend: 0x0, symName: __ZNSt3__17advanceB8ue170006INS_16reverse_iteratorIPNS_12basic_stringIcNS_11char_traitsIcEENS_9allocatorIcEEEEEEllvEEvRT_T0_, symObjAddr: 0x37B0, symBinAddr: 0x10000AB70, symSize: 0x38 }
  - { offsetInCU: 0x46F3, offset: 0x2A132, size: 0x8, addend: 0x0, symName: __ZNSt3__112__to_addressB8ue170006IKcEEPT_S3_, symObjAddr: 0xC88, symBinAddr: 0x100008A88, symSize: 0x14 }
  - { offsetInCU: 0x475B, offset: 0x2A19A, size: 0x8, addend: 0x0, symName: __ZNSt3__122__make_exception_guardB8ue170006INS_6vectorINS_12basic_stringIcNS_11char_traitsIcEENS_9allocatorIcEEEENS5_IS7_EEE16__destroy_vectorEEENS_28__exception_guard_exceptionsIT_EESC_, symObjAddr: 0x112C, symBinAddr: 0x100008D8C, symSize: 0x40 }
  - { offsetInCU: 0x4790, offset: 0x2A1CF, size: 0x8, addend: 0x0, symName: __ZNSt3__119__allocate_at_leastB8ue170006INS_9allocatorINS_12basic_stringIcNS_11char_traitsIcEENS1_IcEEEEEEEENS_19__allocation_resultINS_16allocator_traitsIT_E7pointerEEERSA_m, symObjAddr: 0x153C, symBinAddr: 0x100009148, symSize: 0x40 }
  - { offsetInCU: 0x47D3, offset: 0x2A212, size: 0x8, addend: 0x0, symName: __ZNSt3__130__uninitialized_allocator_copyB8ue170006INS_9allocatorINS_12basic_stringIcNS_11char_traitsIcEENS1_IcEEEEEEPKS6_S9_PS6_EET2_RT_T0_T1_SB_, symObjAddr: 0x1BF4, symBinAddr: 0x1000093D0, symSize: 0x80 }
  - { offsetInCU: 0x4870, offset: 0x2A2AF, size: 0x8, addend: 0x0, symName: __ZNSt3__114__unwrap_rangeB8ue170006IPKNS_12basic_stringIcNS_11char_traitsIcEENS_9allocatorIcEEEES8_EEDaT_T0_, symObjAddr: 0x1CEC, symBinAddr: 0x1000094C8, symSize: 0x3C }
  - { offsetInCU: 0x48BC, offset: 0x2A2FB, size: 0x8, addend: 0x0, symName: __ZNSt3__135__uninitialized_allocator_copy_implB8ue170006INS_9allocatorINS_12basic_stringIcNS_11char_traitsIcEENS1_IcEEEEEEPKS6_S9_PS6_EET2_RT_T0_T1_SB_, symObjAddr: 0x1D28, symBinAddr: 0x100009504, symSize: 0xF4 }
  - { offsetInCU: 0x495A, offset: 0x2A399, size: 0x8, addend: 0x0, symName: __ZNSt3__113__unwrap_iterB8ue170006IPNS_12basic_stringIcNS_11char_traitsIcEENS_9allocatorIcEEEENS_18__unwrap_iter_implIS7_Lb1EEELi0EEEDTclsrT0_8__unwrapclsr3stdE7declvalIT_EEEESB_, symObjAddr: 0x1E1C, symBinAddr: 0x1000095F8, symSize: 0x24 }
  - { offsetInCU: 0x499E, offset: 0x2A3DD, size: 0x8, addend: 0x0, symName: __ZNSt3__113__rewrap_iterB8ue170006IPNS_12basic_stringIcNS_11char_traitsIcEENS_9allocatorIcEEEES7_NS_18__unwrap_iter_implIS7_Lb1EEEEET_SA_T0_, symObjAddr: 0x1E40, symBinAddr: 0x10000961C, symSize: 0x3C }
  - { offsetInCU: 0x4AF6, offset: 0x2A535, size: 0x8, addend: 0x0, symName: __ZNSt3__113__unwrap_iterB8ue170006IPKNS_12basic_stringIcNS_11char_traitsIcEENS_9allocatorIcEEEENS_18__unwrap_iter_implIS8_Lb1EEELi0EEEDTclsrT0_8__unwrapclsr3stdE7declvalIT_EEEESC_, symObjAddr: 0x1ED4, symBinAddr: 0x1000096B0, symSize: 0x24 }
  - { offsetInCU: 0x4B8D, offset: 0x2A5CC, size: 0x8, addend: 0x0, symName: __ZNSt3__112__to_addressB8ue170006IKNS_12basic_stringIcNS_11char_traitsIcEENS_9allocatorIcEEEEEEPT_S9_, symObjAddr: 0x1F58, symBinAddr: 0x100009734, symSize: 0x14 }
  - { offsetInCU: 0x4BC2, offset: 0x2A601, size: 0x8, addend: 0x0, symName: __ZNSt3__122__make_exception_guardB8ue170006INS_29_AllocatorDestroyRangeReverseINS_9allocatorINS_12basic_stringIcNS_11char_traitsIcEENS2_IcEEEEEEPS7_EEEENS_28__exception_guard_exceptionsIT_EESC_, symObjAddr: 0x1FA0, symBinAddr: 0x10000977C, symSize: 0x4C }
  - { offsetInCU: 0x4C1F, offset: 0x2A65E, size: 0x8, addend: 0x0, symName: __ZNSt3__112construct_atB8ue170006INS_12basic_stringIcNS_11char_traitsIcEENS_9allocatorIcEEEEJRKS6_EPS6_EEPT_SB_DpOT0_, symObjAddr: 0x2144, symBinAddr: 0x100009920, symSize: 0x3C }
  - { offsetInCU: 0x4C91, offset: 0x2A6D0, size: 0x8, addend: 0x0, symName: __ZNSt3__119__allocator_destroyB8ue170006INS_9allocatorINS_12basic_stringIcNS_11char_traitsIcEENS1_IcEEEEEENS_16reverse_iteratorIPS6_EESA_EEvRT_T0_T1_, symObjAddr: 0x2238, symBinAddr: 0x100009A14, symSize: 0x70 }
  - { offsetInCU: 0x4CF4, offset: 0x2A733, size: 0x8, addend: 0x0, symName: __ZNSt3__1neB8ue170006IPNS_12basic_stringIcNS_11char_traitsIcEENS_9allocatorIcEEEES7_EEbRKNS_16reverse_iteratorIT_EERKNS8_IT0_EE, symObjAddr: 0x22DC, symBinAddr: 0x100009AB8, symSize: 0x48 }
  - { offsetInCU: 0x4D40, offset: 0x2A77F, size: 0x8, addend: 0x0, symName: __ZNSt3__112__to_addressB8ue170006INS_16reverse_iteratorIPNS_12basic_stringIcNS_11char_traitsIcEENS_9allocatorIcEEEEEEvEEu7__decayIDTclsr19__to_address_helperIT_EE6__callclsr3stdE7declvalIRKSA_EEEEESC_, symObjAddr: 0x234C, symBinAddr: 0x100009B00, symSize: 0x24 }
  - { offsetInCU: 0x4DA0, offset: 0x2A7DF, size: 0x8, addend: 0x0, symName: __ZNSt3__14prevB8ue170006IPNS_12basic_stringIcNS_11char_traitsIcEENS_9allocatorIcEEEEEENS_9enable_ifIXsr29__has_input_iterator_categoryIT_EE5valueES9_E4typeES9_NS_15iterator_traitsIS9_E15difference_typeE, symObjAddr: 0x2454, symBinAddr: 0x100009BC0, symSize: 0x3C }
  - { offsetInCU: 0x4DE3, offset: 0x2A822, size: 0x8, addend: 0x0, symName: __ZNSt3__19__advanceB8ue170006IPNS_12basic_stringIcNS_11char_traitsIcEENS_9allocatorIcEEEEEEvRT_NS_15iterator_traitsIS8_E15difference_typeENS_26random_access_iterator_tagE, symObjAddr: 0x24DC, symBinAddr: 0x100009C34, symSize: 0x30 }
  - { offsetInCU: 0x4E81, offset: 0x2A8C0, size: 0x8, addend: 0x0, symName: __ZNSt3__112construct_atB8ue170006INS_12basic_stringIcNS_11char_traitsIcEENS_9allocatorIcEEEEJS6_EPS6_EEPT_S9_DpOT0_, symObjAddr: 0x2BB8, symBinAddr: 0x100009F78, symSize: 0x3C }
  - { offsetInCU: 0x4EF3, offset: 0x2A932, size: 0x8, addend: 0x0, symName: __ZNSt3__13maxB8ue170006ImEERKT_S3_S3_, symObjAddr: 0x2EA4, symBinAddr: 0x10000A264, symSize: 0x2C }
  - { offsetInCU: 0x4F36, offset: 0x2A975, size: 0x8, addend: 0x0, symName: __ZNSt3__13maxB8ue170006ImNS_6__lessIvvEEEERKT_S5_S5_T0_, symObjAddr: 0x2ED0, symBinAddr: 0x10000A290, symSize: 0x54 }
  - { offsetInCU: 0x4F90, offset: 0x2A9CF, size: 0x8, addend: 0x0, symName: __ZNSt3__142__uninitialized_allocator_move_if_noexceptB8ue170006INS_9allocatorINS_12basic_stringIcNS_11char_traitsIcEENS1_IcEEEEEENS_16reverse_iteratorIPS6_EESA_SA_EET2_RT_T0_T1_SB_, symObjAddr: 0x315C, symBinAddr: 0x10000A51C, symSize: 0x124 }
  - { offsetInCU: 0x5030, offset: 0x2AA6F, size: 0x8, addend: 0x0, symName: __ZNSt3__14swapB8ue170006IPNS_12basic_stringIcNS_11char_traitsIcEENS_9allocatorIcEEEEEENS_9enable_ifIXaasr21is_move_constructibleIT_EE5valuesr18is_move_assignableIS9_EE5valueEvE4typeERS9_SC_, symObjAddr: 0x3280, symBinAddr: 0x10000A640, symSize: 0x3C }
  - { offsetInCU: 0x5081, offset: 0x2AAC0, size: 0x8, addend: 0x0, symName: __ZNSt3__122__make_exception_guardB8ue170006INS_29_AllocatorDestroyRangeReverseINS_9allocatorINS_12basic_stringIcNS_11char_traitsIcEENS2_IcEEEEEENS_16reverse_iteratorIPS7_EEEEEENS_28__exception_guard_exceptionsIT_EESE_, symObjAddr: 0x32BC, symBinAddr: 0x10000A67C, symSize: 0x4C }
  - { offsetInCU: 0x50B7, offset: 0x2AAF6, size: 0x8, addend: 0x0, symName: __ZNSt3__119__allocator_destroyB8ue170006INS_9allocatorINS_12basic_stringIcNS_11char_traitsIcEENS1_IcEEEEEENS_16reverse_iteratorINS8_IPS6_EEEESB_EEvRT_T0_T1_, symObjAddr: 0x355C, symBinAddr: 0x10000A91C, symSize: 0x70 }
  - { offsetInCU: 0x511C, offset: 0x2AB5B, size: 0x8, addend: 0x0, symName: __ZNSt3__1neB8ue170006INS_16reverse_iteratorIPNS_12basic_stringIcNS_11char_traitsIcEENS_9allocatorIcEEEEEES9_EEbRKNS1_IT_EERKNS1_IT0_EE, symObjAddr: 0x3608, symBinAddr: 0x10000A9C8, symSize: 0x60 }
  - { offsetInCU: 0x5168, offset: 0x2ABA7, size: 0x8, addend: 0x0, symName: __ZNSt3__112__to_addressB8ue170006INS_16reverse_iteratorINS1_IPNS_12basic_stringIcNS_11char_traitsIcEENS_9allocatorIcEEEEEEEEvEEu7__decayIDTclsr19__to_address_helperIT_EE6__callclsr3stdE7declvalIRKSB_EEEEESD_, symObjAddr: 0x3668, symBinAddr: 0x10000AA28, symSize: 0x24 }
  - { offsetInCU: 0x51C8, offset: 0x2AC07, size: 0x8, addend: 0x0, symName: __ZNSt3__14prevB8ue170006INS_16reverse_iteratorIPNS_12basic_stringIcNS_11char_traitsIcEENS_9allocatorIcEEEEEEEENS_9enable_ifIXsr29__has_input_iterator_categoryIT_EE5valueESB_E4typeESB_NS_15iterator_traitsISB_E15difference_typeE, symObjAddr: 0x3764, symBinAddr: 0x10000AB24, symSize: 0x4C }
  - { offsetInCU: 0x520B, offset: 0x2AC4A, size: 0x8, addend: 0x0, symName: __ZNSt3__19__advanceB8ue170006INS_16reverse_iteratorIPNS_12basic_stringIcNS_11char_traitsIcEENS_9allocatorIcEEEEEEEEvRT_NS_15iterator_traitsISA_E15difference_typeENS_26random_access_iterator_tagE, symObjAddr: 0x37E8, symBinAddr: 0x10000ABA8, symSize: 0x2C }
  - { offsetInCU: 0x559E, offset: 0x2AFDD, size: 0x8, addend: 0x0, symName: __ZNSt3__16vectorINS_12basic_stringIcNS_11char_traitsIcEENS_9allocatorIcEEEENS4_IS6_EEE26__swap_out_circular_bufferERNS_14__split_bufferIS6_RS7_EE, symObjAddr: 0x2D68, symBinAddr: 0x10000A128, symSize: 0x110 }
  - { offsetInCU: 0x73CC, offset: 0x2CE0B, size: 0x8, addend: 0x0, symName: __ZN13StringHelpers9leftAlignERKNSt3__112basic_stringIcNS0_11char_traitsIcEENS0_9allocatorIcEEEEjRKc, symObjAddr: 0x0, symBinAddr: 0x100007F80, symSize: 0x13C }
  - { offsetInCU: 0x7431, offset: 0x2CE70, size: 0x8, addend: 0x0, symName: __ZN13StringHelpers10rightAlignERKNSt3__112basic_stringIcNS0_11char_traitsIcEENS0_9allocatorIcEEEEjRKc, symObjAddr: 0x230, symBinAddr: 0x1000081B0, symSize: 0x10C }
  - { offsetInCU: 0x7496, offset: 0x2CED5, size: 0x8, addend: 0x0, symName: __ZN13StringHelpers4joinERKNSt3__16vectorINS0_12basic_stringIcNS0_11char_traitsIcEENS0_9allocatorIcEEEENS5_IS7_EEEERKS7_, symObjAddr: 0x33C, symBinAddr: 0x1000082BC, symSize: 0x134 }
  - { offsetInCU: 0x74F3, offset: 0x2CF32, size: 0x8, addend: 0x0, symName: __ZN13StringHelpers13padToMulitpleERKNSt3__112basic_stringIcNS0_11char_traitsIcEENS0_9allocatorIcEEEEiRKc, symObjAddr: 0x52C, symBinAddr: 0x100008484, symSize: 0x70 }
  - { offsetInCU: 0x7549, offset: 0x2CF88, size: 0x8, addend: 0x0, symName: __ZN13StringHelpers13splitIntoRowsERKNSt3__112basic_stringIcNS0_11char_traitsIcEENS0_9allocatorIcEEEEii, symObjAddr: 0x5B4, symBinAddr: 0x10000850C, symSize: 0x294 }
  - { offsetInCU: 0x75BF, offset: 0x2CFFE, size: 0x8, addend: 0x0, symName: __ZNKSt3__112basic_stringIcNS_11char_traitsIcEENS_9allocatorIcEEE6lengthB8ue170006Ev, symObjAddr: 0x13C, symBinAddr: 0x1000080BC, symSize: 0x24 }
  - { offsetInCU: 0x75E4, offset: 0x2D023, size: 0x8, addend: 0x0, symName: __ZNKSt3__112basic_stringIcNS_11char_traitsIcEENS_9allocatorIcEEE6substrB8ue170006Emm, symObjAddr: 0x160, symBinAddr: 0x1000080E0, symSize: 0x68 }
  - { offsetInCU: 0x7627, offset: 0x2D066, size: 0x8, addend: 0x0, symName: __ZNSt3__112basic_stringIcNS_11char_traitsIcEENS_9allocatorIcEEEC1B8ue170006Emc, symObjAddr: 0x1C8, symBinAddr: 0x100008148, symSize: 0x3C }
  - { offsetInCU: 0x766D, offset: 0x2D0AC, size: 0x8, addend: 0x0, symName: __ZNSt3__112basic_stringIcNS_11char_traitsIcEENS_9allocatorIcEEEpLB8ue170006ERKS5_, symObjAddr: 0x204, symBinAddr: 0x100008184, symSize: 0x2C }
  - { offsetInCU: 0x76A1, offset: 0x2D0E0, size: 0x8, addend: 0x0, symName: __ZNSt3__112basic_stringIcNS_11char_traitsIcEENS_9allocatorIcEEEC1B8ue170006Ev, symObjAddr: 0x470, symBinAddr: 0x1000083F0, symSize: 0x2C }
  - { offsetInCU: 0x76C8, offset: 0x2D107, size: 0x8, addend: 0x0, symName: __ZNKSt3__16vectorINS_12basic_stringIcNS_11char_traitsIcEENS_9allocatorIcEEEENS4_IS6_EEE2atEm, symObjAddr: 0x4C4, symBinAddr: 0x10000841C, symSize: 0x68 }
  - { offsetInCU: 0x76FE, offset: 0x2D13D, size: 0x8, addend: 0x0, symName: __Z4ceilB8ue170006f, symObjAddr: 0x59C, symBinAddr: 0x1000084F4, symSize: 0x18 }
  - { offsetInCU: 0x7732, offset: 0x2D171, size: 0x8, addend: 0x0, symName: __ZNSt3__16vectorINS_12basic_stringIcNS_11char_traitsIcEENS_9allocatorIcEEEENS4_IS6_EEEC1B8ue170006ESt16initializer_listIS6_E, symObjAddr: 0x87C, symBinAddr: 0x1000087A0, symSize: 0x3C }
  - { offsetInCU: 0x776C, offset: 0x2D1AB, size: 0x8, addend: 0x0, symName: __ZNSt3__16vectorINS_12basic_stringIcNS_11char_traitsIcEENS_9allocatorIcEEEENS4_IS6_EEEC1B8ue170006Ev, symObjAddr: 0x8B8, symBinAddr: 0x1000087DC, symSize: 0x2C }
  - { offsetInCU: 0x7798, offset: 0x2D1D7, size: 0x8, addend: 0x0, symName: __ZNSt3__16vectorINS_12basic_stringIcNS_11char_traitsIcEENS_9allocatorIcEEEENS4_IS6_EEE12emplace_backIJS6_EEERS6_DpOT_, symObjAddr: 0x8E4, symBinAddr: 0x100008808, symSize: 0x74 }
  - { offsetInCU: 0x77DA, offset: 0x2D219, size: 0x8, addend: 0x0, symName: __ZNKSt3__112basic_stringIcNS_11char_traitsIcEENS_9allocatorIcEEE4sizeB8ue170006Ev, symObjAddr: 0x984, symBinAddr: 0x10000887C, symSize: 0x54 }
  - { offsetInCU: 0x77FF, offset: 0x2D23E, size: 0x8, addend: 0x0, symName: __ZNKSt3__112basic_stringIcNS_11char_traitsIcEENS_9allocatorIcEEE9__is_longB8ue170006Ev, symObjAddr: 0x9D8, symBinAddr: 0x1000088D0, symSize: 0x38 }
  - { offsetInCU: 0x7824, offset: 0x2D263, size: 0x8, addend: 0x0, symName: __ZNKSt3__112basic_stringIcNS_11char_traitsIcEENS_9allocatorIcEEE15__get_long_sizeB8ue170006Ev, symObjAddr: 0xA10, symBinAddr: 0x100008908, symSize: 0x28 }
  - { offsetInCU: 0x7849, offset: 0x2D288, size: 0x8, addend: 0x0, symName: __ZNKSt3__112basic_stringIcNS_11char_traitsIcEENS_9allocatorIcEEE16__get_short_sizeB8ue170006Ev, symObjAddr: 0xA38, symBinAddr: 0x100008930, symSize: 0x34 }
  - { offsetInCU: 0x786E, offset: 0x2D2AD, size: 0x8, addend: 0x0, symName: __ZNKSt3__117__compressed_pairINS_12basic_stringIcNS_11char_traitsIcEENS_9allocatorIcEEE5__repES5_E5firstB8ue170006Ev, symObjAddr: 0xA6C, symBinAddr: 0x100008964, symSize: 0x24 }
  - { offsetInCU: 0x7893, offset: 0x2D2D2, size: 0x8, addend: 0x0, symName: __ZNKSt3__122__compressed_pair_elemINS_12basic_stringIcNS_11char_traitsIcEENS_9allocatorIcEEE5__repELi0ELb0EE5__getB8ue170006Ev, symObjAddr: 0xA90, symBinAddr: 0x100008988, symSize: 0x14 }
  - { offsetInCU: 0x78B8, offset: 0x2D2F7, size: 0x8, addend: 0x0, symName: __ZNSt3__19allocatorIcEC1B8ue170006Ev, symObjAddr: 0xAA4, symBinAddr: 0x10000899C, symSize: 0x2C }
  - { offsetInCU: 0x78E0, offset: 0x2D31F, size: 0x8, addend: 0x0, symName: __ZNSt3__112basic_stringIcNS_11char_traitsIcEENS_9allocatorIcEEEC2B8ue170006Emc, symObjAddr: 0xB10, symBinAddr: 0x1000089C8, symSize: 0x4C }
  - { offsetInCU: 0x792B, offset: 0x2D36A, size: 0x8, addend: 0x0, symName: __ZNSt3__112basic_stringIcNS_11char_traitsIcEENS_9allocatorIcEEE6appendB8ue170006ERKS5_, symObjAddr: 0xC14, symBinAddr: 0x100008A14, symSize: 0x4C }
  - { offsetInCU: 0x795F, offset: 0x2D39E, size: 0x8, addend: 0x0, symName: __ZNKSt3__112basic_stringIcNS_11char_traitsIcEENS_9allocatorIcEEE4dataB8ue170006Ev, symObjAddr: 0xC60, symBinAddr: 0x100008A60, symSize: 0x28 }
  - { offsetInCU: 0x7984, offset: 0x2D3C3, size: 0x8, addend: 0x0, symName: __ZNKSt3__112basic_stringIcNS_11char_traitsIcEENS_9allocatorIcEEE13__get_pointerB8ue170006Ev, symObjAddr: 0xC9C, symBinAddr: 0x100008A9C, symSize: 0x54 }
  - { offsetInCU: 0x79A9, offset: 0x2D3E8, size: 0x8, addend: 0x0, symName: __ZNKSt3__112basic_stringIcNS_11char_traitsIcEENS_9allocatorIcEEE18__get_long_pointerB8ue170006Ev, symObjAddr: 0xCF0, symBinAddr: 0x100008AF0, symSize: 0x28 }
  - { offsetInCU: 0x79CE, offset: 0x2D40D, size: 0x8, addend: 0x0, symName: __ZNKSt3__112basic_stringIcNS_11char_traitsIcEENS_9allocatorIcEEE19__get_short_pointerB8ue170006Ev, symObjAddr: 0xD18, symBinAddr: 0x100008B18, symSize: 0x28 }
  - { offsetInCU: 0x79F3, offset: 0x2D432, size: 0x8, addend: 0x0, symName: __ZNSt3__114pointer_traitsIPKcE10pointer_toB8ue170006ERS1_, symObjAddr: 0xD40, symBinAddr: 0x100008B40, symSize: 0x14 }
  - { offsetInCU: 0x7A16, offset: 0x2D455, size: 0x8, addend: 0x0, symName: __ZNSt3__112basic_stringIcNS_11char_traitsIcEENS_9allocatorIcEEEC2B8ue170006Ev, symObjAddr: 0xD54, symBinAddr: 0x100008B54, symSize: 0x48 }
  - { offsetInCU: 0x7A3E, offset: 0x2D47D, size: 0x8, addend: 0x0, symName: __ZNSt3__112basic_stringIcNS_11char_traitsIcEENS_9allocatorIcEEE14__default_initB8ue170006Ev, symObjAddr: 0xDA8, symBinAddr: 0x100008B9C, symSize: 0x40 }
  - { offsetInCU: 0x7A63, offset: 0x2D4A2, size: 0x8, addend: 0x0, symName: __ZNSt3__117__compressed_pairINS_12basic_stringIcNS_11char_traitsIcEENS_9allocatorIcEEE5__repES5_E5firstB8ue170006Ev, symObjAddr: 0xDE8, symBinAddr: 0x100008BDC, symSize: 0x24 }
  - { offsetInCU: 0x7A88, offset: 0x2D4C7, size: 0x8, addend: 0x0, symName: __ZNSt3__122__compressed_pair_elemINS_12basic_stringIcNS_11char_traitsIcEENS_9allocatorIcEEE5__repELi0ELb0EE5__getB8ue170006Ev, symObjAddr: 0xE0C, symBinAddr: 0x100008C00, symSize: 0x14 }
  - { offsetInCU: 0x7AAD, offset: 0x2D4EC, size: 0x8, addend: 0x0, symName: __ZNKSt3__16vectorINS_12basic_stringIcNS_11char_traitsIcEENS_9allocatorIcEEEENS4_IS6_EEE20__throw_out_of_rangeB8ue170006Ev, symObjAddr: 0xE20, symBinAddr: 0x100008C14, symSize: 0x1C }
  - { offsetInCU: 0x7AD2, offset: 0x2D511, size: 0x8, addend: 0x0, symName: __ZNSt3__16vectorINS_12basic_stringIcNS_11char_traitsIcEENS_9allocatorIcEEEENS4_IS6_EEEC2B8ue170006ESt16initializer_listIS6_E, symObjAddr: 0xFD0, symBinAddr: 0x100008C30, symSize: 0x120 }
  - { offsetInCU: 0x7B26, offset: 0x2D565, size: 0x8, addend: 0x0, symName: __ZNSt3__117__compressed_pairIPNS_12basic_stringIcNS_11char_traitsIcEENS_9allocatorIcEEEENS4_IS6_EEEC1B8ue170006IDnNS_18__default_init_tagEEEOT_OT0_, symObjAddr: 0x10F0, symBinAddr: 0x100008D50, symSize: 0x3C }
  - { offsetInCU: 0x7B7C, offset: 0x2D5BB, size: 0x8, addend: 0x0, symName: __ZNKSt16initializer_listINSt3__112basic_stringIcNS0_11char_traitsIcEENS0_9allocatorIcEEEEE4sizeB8ue170006Ev, symObjAddr: 0x11A0, symBinAddr: 0x100008DCC, symSize: 0x18 }
  - { offsetInCU: 0x7BA1, offset: 0x2D5E0, size: 0x8, addend: 0x0, symName: __ZNSt3__16vectorINS_12basic_stringIcNS_11char_traitsIcEENS_9allocatorIcEEEENS4_IS6_EEE11__vallocateB8ue170006Em, symObjAddr: 0x11B8, symBinAddr: 0x100008DE4, symSize: 0xB4 }
  - { offsetInCU: 0x7BE3, offset: 0x2D622, size: 0x8, addend: 0x0, symName: __ZNSt3__16vectorINS_12basic_stringIcNS_11char_traitsIcEENS_9allocatorIcEEEENS4_IS6_EEE18__construct_at_endIPKS6_SB_EEvT_T0_m, symObjAddr: 0x126C, symBinAddr: 0x100008E98, symSize: 0x8C }
  - { offsetInCU: 0x7C59, offset: 0x2D698, size: 0x8, addend: 0x0, symName: __ZNKSt16initializer_listINSt3__112basic_stringIcNS0_11char_traitsIcEENS0_9allocatorIcEEEEE5beginB8ue170006Ev, symObjAddr: 0x12F8, symBinAddr: 0x100008F24, symSize: 0x18 }
  - { offsetInCU: 0x7C7E, offset: 0x2D6BD, size: 0x8, addend: 0x0, symName: __ZNKSt16initializer_listINSt3__112basic_stringIcNS0_11char_traitsIcEENS0_9allocatorIcEEEEE3endB8ue170006Ev, symObjAddr: 0x1310, symBinAddr: 0x100008F3C, symSize: 0x28 }
  - { offsetInCU: 0x7CA3, offset: 0x2D6E2, size: 0x8, addend: 0x0, symName: __ZNSt3__128__exception_guard_exceptionsINS_6vectorINS_12basic_stringIcNS_11char_traitsIcEENS_9allocatorIcEEEENS5_IS7_EEE16__destroy_vectorEE10__completeB8ue170006Ev, symObjAddr: 0x1338, symBinAddr: 0x100008F64, symSize: 0x1C }
  - { offsetInCU: 0x7CC8, offset: 0x2D707, size: 0x8, addend: 0x0, symName: __ZNSt3__128__exception_guard_exceptionsINS_6vectorINS_12basic_stringIcNS_11char_traitsIcEENS_9allocatorIcEEEENS5_IS7_EEE16__destroy_vectorEED1B8ue170006Ev, symObjAddr: 0x1354, symBinAddr: 0x100008F80, symSize: 0x2C }
  - { offsetInCU: 0x7CF0, offset: 0x2D72F, size: 0x8, addend: 0x0, symName: __ZNSt3__117__compressed_pairIPNS_12basic_stringIcNS_11char_traitsIcEENS_9allocatorIcEEEENS4_IS6_EEEC2B8ue170006IDnNS_18__default_init_tagEEEOT_OT0_, symObjAddr: 0x1380, symBinAddr: 0x100008FAC, symSize: 0x40 }
  - { offsetInCU: 0x7D46, offset: 0x2D785, size: 0x8, addend: 0x0, symName: __ZNSt3__122__compressed_pair_elemIPNS_12basic_stringIcNS_11char_traitsIcEENS_9allocatorIcEEEELi0ELb0EEC2B8ue170006IDnvEEOT_, symObjAddr: 0x13C0, symBinAddr: 0x100008FEC, symSize: 0x1C }
  - { offsetInCU: 0x7D86, offset: 0x2D7C5, size: 0x8, addend: 0x0, symName: __ZNSt3__122__compressed_pair_elemINS_9allocatorINS_12basic_stringIcNS_11char_traitsIcEENS1_IcEEEEEELi1ELb1EEC2B8ue170006ENS_18__default_init_tagE, symObjAddr: 0x13DC, symBinAddr: 0x100009008, symSize: 0x2C }
  - { offsetInCU: 0x7DB9, offset: 0x2D7F8, size: 0x8, addend: 0x0, symName: __ZNSt3__19allocatorINS_12basic_stringIcNS_11char_traitsIcEENS0_IcEEEEEC2B8ue170006Ev, symObjAddr: 0x1408, symBinAddr: 0x100009034, symSize: 0x2C }
  - { offsetInCU: 0x7DE1, offset: 0x2D820, size: 0x8, addend: 0x0, symName: __ZNSt3__116__non_trivial_ifILb1ENS_9allocatorINS_12basic_stringIcNS_11char_traitsIcEENS1_IcEEEEEEEC2B8ue170006Ev, symObjAddr: 0x1434, symBinAddr: 0x100009060, symSize: 0x14 }
  - { offsetInCU: 0x7E09, offset: 0x2D848, size: 0x8, addend: 0x0, symName: __ZNSt3__128__exception_guard_exceptionsINS_6vectorINS_12basic_stringIcNS_11char_traitsIcEENS_9allocatorIcEEEENS5_IS7_EEE16__destroy_vectorEEC1B8ue170006ESA_, symObjAddr: 0x1448, symBinAddr: 0x100009074, symSize: 0x34 }
  - { offsetInCU: 0x7E3F, offset: 0x2D87E, size: 0x8, addend: 0x0, symName: __ZNSt3__128__exception_guard_exceptionsINS_6vectorINS_12basic_stringIcNS_11char_traitsIcEENS_9allocatorIcEEEENS5_IS7_EEE16__destroy_vectorEEC2B8ue170006ESA_, symObjAddr: 0x147C, symBinAddr: 0x1000090A8, symSize: 0x24 }
  - { offsetInCU: 0x7E74, offset: 0x2D8B3, size: 0x8, addend: 0x0, symName: __ZNKSt3__16vectorINS_12basic_stringIcNS_11char_traitsIcEENS_9allocatorIcEEEENS4_IS6_EEE8max_sizeEv, symObjAddr: 0x14C0, symBinAddr: 0x1000090CC, symSize: 0x60 }
  - { offsetInCU: 0x7E9C, offset: 0x2D8DB, size: 0x8, addend: 0x0, symName: __ZNKSt3__16vectorINS_12basic_stringIcNS_11char_traitsIcEENS_9allocatorIcEEEENS4_IS6_EEE20__throw_length_errorB8ue170006Ev, symObjAddr: 0x1520, symBinAddr: 0x10000912C, symSize: 0x1C }
  - { offsetInCU: 0x7EC1, offset: 0x2D900, size: 0x8, addend: 0x0, symName: __ZNSt3__16vectorINS_12basic_stringIcNS_11char_traitsIcEENS_9allocatorIcEEEENS4_IS6_EEE9__end_capB8ue170006Ev, symObjAddr: 0x15A4, symBinAddr: 0x100009188, symSize: 0x28 }
  - { offsetInCU: 0x7EE6, offset: 0x2D925, size: 0x8, addend: 0x0, symName: __ZNKSt3__16vectorINS_12basic_stringIcNS_11char_traitsIcEENS_9allocatorIcEEEENS4_IS6_EEE14__annotate_newB8ue170006Em, symObjAddr: 0x15CC, symBinAddr: 0x1000091B0, symSize: 0xC8 }
  - { offsetInCU: 0x7F24, offset: 0x2D963, size: 0x8, addend: 0x0, symName: __ZNSt3__116allocator_traitsINS_9allocatorINS_12basic_stringIcNS_11char_traitsIcEENS1_IcEEEEEEE8max_sizeB8ue170006IS7_vvEEmRKS7_, symObjAddr: 0x16C0, symBinAddr: 0x100009278, symSize: 0x28 }
  - { offsetInCU: 0x7F4F, offset: 0x2D98E, size: 0x8, addend: 0x0, symName: __ZNKSt3__16vectorINS_12basic_stringIcNS_11char_traitsIcEENS_9allocatorIcEEEENS4_IS6_EEE7__allocB8ue170006Ev, symObjAddr: 0x16E8, symBinAddr: 0x1000092A0, symSize: 0x28 }
  - { offsetInCU: 0x7F7E, offset: 0x2D9BD, size: 0x8, addend: 0x0, symName: __ZNKSt3__117__compressed_pairIPNS_12basic_stringIcNS_11char_traitsIcEENS_9allocatorIcEEEENS4_IS6_EEE6secondB8ue170006Ev, symObjAddr: 0x17C8, symBinAddr: 0x1000092C8, symSize: 0x24 }
  - { offsetInCU: 0x7FA3, offset: 0x2D9E2, size: 0x8, addend: 0x0, symName: __ZNKSt3__122__compressed_pair_elemINS_9allocatorINS_12basic_stringIcNS_11char_traitsIcEENS1_IcEEEEEELi1ELb1EE5__getB8ue170006Ev, symObjAddr: 0x17EC, symBinAddr: 0x1000092EC, symSize: 0x14 }
  - { offsetInCU: 0x7FC8, offset: 0x2DA07, size: 0x8, addend: 0x0, symName: __ZNSt3__19allocatorINS_12basic_stringIcNS_11char_traitsIcEENS0_IcEEEEE8allocateB8ue170006Em, symObjAddr: 0x18EC, symBinAddr: 0x100009300, symSize: 0x5C }
  - { offsetInCU: 0x7FFB, offset: 0x2DA3A, size: 0x8, addend: 0x0, symName: __ZNSt3__117__compressed_pairIPNS_12basic_stringIcNS_11char_traitsIcEENS_9allocatorIcEEEENS4_IS6_EEE5firstB8ue170006Ev, symObjAddr: 0x1A84, symBinAddr: 0x10000935C, symSize: 0x24 }
  - { offsetInCU: 0x8020, offset: 0x2DA5F, size: 0x8, addend: 0x0, symName: __ZNSt3__122__compressed_pair_elemIPNS_12basic_stringIcNS_11char_traitsIcEENS_9allocatorIcEEEELi0ELb0EE5__getB8ue170006Ev, symObjAddr: 0x1AA8, symBinAddr: 0x100009380, symSize: 0x14 }
  - { offsetInCU: 0x805E, offset: 0x2DA9D, size: 0x8, addend: 0x0, symName: __ZNSt3__16vectorINS_12basic_stringIcNS_11char_traitsIcEENS_9allocatorIcEEEENS4_IS6_EEE21_ConstructTransactionC1B8ue170006ERS8_m, symObjAddr: 0x1BB8, symBinAddr: 0x100009394, symSize: 0x3C }
  - { offsetInCU: 0x80A4, offset: 0x2DAE3, size: 0x8, addend: 0x0, symName: __ZNSt3__16vectorINS_12basic_stringIcNS_11char_traitsIcEENS_9allocatorIcEEEENS4_IS6_EEE21_ConstructTransactionD1B8ue170006Ev, symObjAddr: 0x1C74, symBinAddr: 0x100009450, symSize: 0x2C }
  - { offsetInCU: 0x80CC, offset: 0x2DB0B, size: 0x8, addend: 0x0, symName: __ZNSt3__16vectorINS_12basic_stringIcNS_11char_traitsIcEENS_9allocatorIcEEEENS4_IS6_EEE21_ConstructTransactionC2B8ue170006ERS8_m, symObjAddr: 0x1CA0, symBinAddr: 0x10000947C, symSize: 0x4C }
  - { offsetInCU: 0x812B, offset: 0x2DB6A, size: 0x8, addend: 0x0, symName: __ZNSt3__119__unwrap_range_implIPKNS_12basic_stringIcNS_11char_traitsIcEENS_9allocatorIcEEEES8_E8__unwrapB8ue170006ES8_S8_, symObjAddr: 0x1E7C, symBinAddr: 0x100009658, symSize: 0x58 }
  - { offsetInCU: 0x8161, offset: 0x2DBA0, size: 0x8, addend: 0x0, symName: __ZNSt3__14pairIPKNS_12basic_stringIcNS_11char_traitsIcEENS_9allocatorIcEEEES8_EC1B8ue170006IS8_S8_LPv0EEEOT_OT0_, symObjAddr: 0x1EF8, symBinAddr: 0x1000096D4, symSize: 0x3C }
  - { offsetInCU: 0x81BE, offset: 0x2DBFD, size: 0x8, addend: 0x0, symName: __ZNSt3__118__unwrap_iter_implIPKNS_12basic_stringIcNS_11char_traitsIcEENS_9allocatorIcEEEELb1EE8__unwrapB8ue170006ES8_, symObjAddr: 0x1F34, symBinAddr: 0x100009710, symSize: 0x24 }
  - { offsetInCU: 0x81E1, offset: 0x2DC20, size: 0x8, addend: 0x0, symName: __ZNSt3__14pairIPKNS_12basic_stringIcNS_11char_traitsIcEENS_9allocatorIcEEEES8_EC2B8ue170006IS8_S8_LPv0EEEOT_OT0_, symObjAddr: 0x1F6C, symBinAddr: 0x100009748, symSize: 0x34 }
  - { offsetInCU: 0x823E, offset: 0x2DC7D, size: 0x8, addend: 0x0, symName: __ZNSt3__129_AllocatorDestroyRangeReverseINS_9allocatorINS_12basic_stringIcNS_11char_traitsIcEENS1_IcEEEEEEPS6_EC1B8ue170006ERS7_RS8_SB_, symObjAddr: 0x1FEC, symBinAddr: 0x1000097C8, symSize: 0x44 }
  - { offsetInCU: 0x8293, offset: 0x2DCD2, size: 0x8, addend: 0x0, symName: __ZNSt3__116allocator_traitsINS_9allocatorINS_12basic_stringIcNS_11char_traitsIcEENS1_IcEEEEEEE9constructB8ue170006IS6_JRKS6_EvvEEvRS7_PT_DpOT0_, symObjAddr: 0x2030, symBinAddr: 0x10000980C, symSize: 0x30 }
  - { offsetInCU: 0x82E7, offset: 0x2DD26, size: 0x8, addend: 0x0, symName: __ZNSt3__128__exception_guard_exceptionsINS_29_AllocatorDestroyRangeReverseINS_9allocatorINS_12basic_stringIcNS_11char_traitsIcEENS2_IcEEEEEEPS7_EEE10__completeB8ue170006Ev, symObjAddr: 0x2060, symBinAddr: 0x10000983C, symSize: 0x1C }
  - { offsetInCU: 0x830C, offset: 0x2DD4B, size: 0x8, addend: 0x0, symName: __ZNSt3__128__exception_guard_exceptionsINS_29_AllocatorDestroyRangeReverseINS_9allocatorINS_12basic_stringIcNS_11char_traitsIcEENS2_IcEEEEEEPS7_EEED1B8ue170006Ev, symObjAddr: 0x207C, symBinAddr: 0x100009858, symSize: 0x2C }
  - { offsetInCU: 0x8334, offset: 0x2DD73, size: 0x8, addend: 0x0, symName: __ZNSt3__128__exception_guard_exceptionsINS_29_AllocatorDestroyRangeReverseINS_9allocatorINS_12basic_stringIcNS_11char_traitsIcEENS2_IcEEEEEEPS7_EEEC1B8ue170006ESA_, symObjAddr: 0x20A8, symBinAddr: 0x100009884, symSize: 0x34 }
  - { offsetInCU: 0x836B, offset: 0x2DDAA, size: 0x8, addend: 0x0, symName: __ZNSt3__128__exception_guard_exceptionsINS_29_AllocatorDestroyRangeReverseINS_9allocatorINS_12basic_stringIcNS_11char_traitsIcEENS2_IcEEEEEEPS7_EEEC2B8ue170006ESA_, symObjAddr: 0x20DC, symBinAddr: 0x1000098B8, symSize: 0x30 }
  - { offsetInCU: 0x83A2, offset: 0x2DDE1, size: 0x8, addend: 0x0, symName: __ZNSt3__129_AllocatorDestroyRangeReverseINS_9allocatorINS_12basic_stringIcNS_11char_traitsIcEENS1_IcEEEEEEPS6_EC2B8ue170006ERS7_RS8_SB_, symObjAddr: 0x210C, symBinAddr: 0x1000098E8, symSize: 0x38 }
  - { offsetInCU: 0x83F7, offset: 0x2DE36, size: 0x8, addend: 0x0, symName: __ZNSt3__128__exception_guard_exceptionsINS_29_AllocatorDestroyRangeReverseINS_9allocatorINS_12basic_stringIcNS_11char_traitsIcEENS2_IcEEEEEEPS7_EEED2B8ue170006Ev, symObjAddr: 0x2180, symBinAddr: 0x10000995C, symSize: 0x50 }
  - { offsetInCU: 0x841F, offset: 0x2DE5E, size: 0x8, addend: 0x0, symName: __ZNKSt3__129_AllocatorDestroyRangeReverseINS_9allocatorINS_12basic_stringIcNS_11char_traitsIcEENS1_IcEEEEEEPS6_EclB8ue170006Ev, symObjAddr: 0x21D0, symBinAddr: 0x1000099AC, symSize: 0x68 }
  - { offsetInCU: 0x8444, offset: 0x2DE83, size: 0x8, addend: 0x0, symName: __ZNSt3__116reverse_iteratorIPNS_12basic_stringIcNS_11char_traitsIcEENS_9allocatorIcEEEEEC1B8ue170006ES7_, symObjAddr: 0x22A8, symBinAddr: 0x100009A84, symSize: 0x34 }
  - { offsetInCU: 0x847A, offset: 0x2DEB9, size: 0x8, addend: 0x0, symName: __ZNSt3__116reverse_iteratorIPNS_12basic_stringIcNS_11char_traitsIcEENS_9allocatorIcEEEEEppB8ue170006Ev, symObjAddr: 0x2370, symBinAddr: 0x100009B24, symSize: 0x20 }
  - { offsetInCU: 0x849F, offset: 0x2DEDE, size: 0x8, addend: 0x0, symName: __ZNKSt3__116reverse_iteratorIPNS_12basic_stringIcNS_11char_traitsIcEENS_9allocatorIcEEEEE4baseB8ue170006Ev, symObjAddr: 0x2390, symBinAddr: 0x100009B44, symSize: 0x18 }
  - { offsetInCU: 0x84C9, offset: 0x2DF08, size: 0x8, addend: 0x0, symName: __ZNSt3__119__to_address_helperINS_16reverse_iteratorIPNS_12basic_stringIcNS_11char_traitsIcEENS_9allocatorIcEEEEEEvE6__callB8ue170006ERKS9_, symObjAddr: 0x23F0, symBinAddr: 0x100009B5C, symSize: 0x38 }
  - { offsetInCU: 0x84EC, offset: 0x2DF2B, size: 0x8, addend: 0x0, symName: __ZNKSt3__116reverse_iteratorIPNS_12basic_stringIcNS_11char_traitsIcEENS_9allocatorIcEEEEEptB8ue170006Ev, symObjAddr: 0x2428, symBinAddr: 0x100009B94, symSize: 0x2C }
  - { offsetInCU: 0x8511, offset: 0x2DF50, size: 0x8, addend: 0x0, symName: __ZNSt3__116reverse_iteratorIPNS_12basic_stringIcNS_11char_traitsIcEENS_9allocatorIcEEEEEC2B8ue170006ES7_, symObjAddr: 0x250C, symBinAddr: 0x100009C64, symSize: 0x28 }
  - { offsetInCU: 0x8547, offset: 0x2DF86, size: 0x8, addend: 0x0, symName: __ZNSt3__118__unwrap_iter_implIPNS_12basic_stringIcNS_11char_traitsIcEENS_9allocatorIcEEEELb1EE8__unwrapB8ue170006ES7_, symObjAddr: 0x2534, symBinAddr: 0x100009C8C, symSize: 0x24 }
  - { offsetInCU: 0x856A, offset: 0x2DFA9, size: 0x8, addend: 0x0, symName: __ZNSt3__118__unwrap_iter_implIPNS_12basic_stringIcNS_11char_traitsIcEENS_9allocatorIcEEEELb1EE8__rewrapB8ue170006ES7_S7_, symObjAddr: 0x2558, symBinAddr: 0x100009CB0, symSize: 0x58 }
  - { offsetInCU: 0x859B, offset: 0x2DFDA, size: 0x8, addend: 0x0, symName: __ZNSt3__16vectorINS_12basic_stringIcNS_11char_traitsIcEENS_9allocatorIcEEEENS4_IS6_EEE21_ConstructTransactionD2B8ue170006Ev, symObjAddr: 0x25B0, symBinAddr: 0x100009D08, symSize: 0x20 }
  - { offsetInCU: 0x85C3, offset: 0x2E002, size: 0x8, addend: 0x0, symName: __ZNSt3__128__exception_guard_exceptionsINS_6vectorINS_12basic_stringIcNS_11char_traitsIcEENS_9allocatorIcEEEENS5_IS7_EEE16__destroy_vectorEED2B8ue170006Ev, symObjAddr: 0x25D0, symBinAddr: 0x100009D28, symSize: 0x50 }
  - { offsetInCU: 0x85EB, offset: 0x2E02A, size: 0x8, addend: 0x0, symName: __ZNSt3__16vectorINS_12basic_stringIcNS_11char_traitsIcEENS_9allocatorIcEEEENS4_IS6_EEEC2B8ue170006Ev, symObjAddr: 0x29B8, symBinAddr: 0x100009D78, symSize: 0x4C }
  - { offsetInCU: 0x8613, offset: 0x2E052, size: 0x8, addend: 0x0, symName: __ZNSt3__16vectorINS_12basic_stringIcNS_11char_traitsIcEENS_9allocatorIcEEEENS4_IS6_EEE22__construct_one_at_endB8ue170006IJS6_EEEvDpOT_, symObjAddr: 0x2A04, symBinAddr: 0x100009DC4, symSize: 0x90 }
  - { offsetInCU: 0x8660, offset: 0x2E09F, size: 0x8, addend: 0x0, symName: __ZNSt3__16vectorINS_12basic_stringIcNS_11char_traitsIcEENS_9allocatorIcEEEENS4_IS6_EEE24__emplace_back_slow_pathIJS6_EEEvDpOT_, symObjAddr: 0x2A94, symBinAddr: 0x100009E54, symSize: 0xD8 }
  - { offsetInCU: 0x86C0, offset: 0x2E0FF, size: 0x8, addend: 0x0, symName: __ZNSt3__16vectorINS_12basic_stringIcNS_11char_traitsIcEENS_9allocatorIcEEEENS4_IS6_EEE4backB8ue170006Ev, symObjAddr: 0x2B6C, symBinAddr: 0x100009F2C, symSize: 0x1C }
  - { offsetInCU: 0x86E5, offset: 0x2E124, size: 0x8, addend: 0x0, symName: __ZNSt3__116allocator_traitsINS_9allocatorINS_12basic_stringIcNS_11char_traitsIcEENS1_IcEEEEEEE9constructB8ue170006IS6_JS6_EvvEEvRS7_PT_DpOT0_, symObjAddr: 0x2B88, symBinAddr: 0x100009F48, symSize: 0x30 }
  - { offsetInCU: 0x8739, offset: 0x2E178, size: 0x8, addend: 0x0, symName: __ZNSt3__112basic_stringIcNS_11char_traitsIcEENS_9allocatorIcEEEC1B8ue170006EOS5_, symObjAddr: 0x2BF4, symBinAddr: 0x100009FB4, symSize: 0x34 }
  - { offsetInCU: 0x8770, offset: 0x2E1AF, size: 0x8, addend: 0x0, symName: __ZNSt3__112basic_stringIcNS_11char_traitsIcEENS_9allocatorIcEEEC2B8ue170006EOS5_, symObjAddr: 0x2C28, symBinAddr: 0x100009FE8, symSize: 0x48 }
  - { offsetInCU: 0x87A6, offset: 0x2E1E5, size: 0x8, addend: 0x0, symName: __ZNKSt3__16vectorINS_12basic_stringIcNS_11char_traitsIcEENS_9allocatorIcEEEENS4_IS6_EEE11__recommendB8ue170006Em, symObjAddr: 0x2C70, symBinAddr: 0x10000A030, symSize: 0xB4 }
  - { offsetInCU: 0x87FB, offset: 0x2E23A, size: 0x8, addend: 0x0, symName: __ZNSt3__114__split_bufferINS_12basic_stringIcNS_11char_traitsIcEENS_9allocatorIcEEEERNS4_IS6_EEEC1EmmS8_, symObjAddr: 0x2D24, symBinAddr: 0x10000A0E4, symSize: 0x44 }
  - { offsetInCU: 0x8850, offset: 0x2E28F, size: 0x8, addend: 0x0, symName: __ZNSt3__114__split_bufferINS_12basic_stringIcNS_11char_traitsIcEENS_9allocatorIcEEEERNS4_IS6_EEED1Ev, symObjAddr: 0x2E78, symBinAddr: 0x10000A238, symSize: 0x2C }
  - { offsetInCU: 0x887B, offset: 0x2E2BA, size: 0x8, addend: 0x0, symName: __ZNSt3__114__split_bufferINS_12basic_stringIcNS_11char_traitsIcEENS_9allocatorIcEEEERNS4_IS6_EEEC2EmmS8_, symObjAddr: 0x2F24, symBinAddr: 0x10000A2E4, symSize: 0xE0 }
  - { offsetInCU: 0x88ED, offset: 0x2E32C, size: 0x8, addend: 0x0, symName: __ZNSt3__117__compressed_pairIPNS_12basic_stringIcNS_11char_traitsIcEENS_9allocatorIcEEEERNS4_IS6_EEEC1B8ue170006IDnS9_EEOT_OT0_, symObjAddr: 0x3004, symBinAddr: 0x10000A3C4, symSize: 0x3C }
  - { offsetInCU: 0x8943, offset: 0x2E382, size: 0x8, addend: 0x0, symName: __ZNSt3__114__split_bufferINS_12basic_stringIcNS_11char_traitsIcEENS_9allocatorIcEEEERNS4_IS6_EEE7__allocB8ue170006Ev, symObjAddr: 0x3040, symBinAddr: 0x10000A400, symSize: 0x28 }
  - { offsetInCU: 0x8968, offset: 0x2E3A7, size: 0x8, addend: 0x0, symName: __ZNSt3__114__split_bufferINS_12basic_stringIcNS_11char_traitsIcEENS_9allocatorIcEEEERNS4_IS6_EEE9__end_capB8ue170006Ev, symObjAddr: 0x3068, symBinAddr: 0x10000A428, symSize: 0x28 }
  - { offsetInCU: 0x898D, offset: 0x2E3CC, size: 0x8, addend: 0x0, symName: __ZNSt3__117__compressed_pairIPNS_12basic_stringIcNS_11char_traitsIcEENS_9allocatorIcEEEERNS4_IS6_EEEC2B8ue170006IDnS9_EEOT_OT0_, symObjAddr: 0x3090, symBinAddr: 0x10000A450, symSize: 0x48 }
  - { offsetInCU: 0x89E3, offset: 0x2E422, size: 0x8, addend: 0x0, symName: __ZNSt3__122__compressed_pair_elemIRNS_9allocatorINS_12basic_stringIcNS_11char_traitsIcEENS1_IcEEEEEELi1ELb0EEC2B8ue170006IS8_vEEOT_, symObjAddr: 0x30D8, symBinAddr: 0x10000A498, symSize: 0x20 }
  - { offsetInCU: 0x8A23, offset: 0x2E462, size: 0x8, addend: 0x0, symName: __ZNSt3__117__compressed_pairIPNS_12basic_stringIcNS_11char_traitsIcEENS_9allocatorIcEEEERNS4_IS6_EEE6secondB8ue170006Ev, symObjAddr: 0x30F8, symBinAddr: 0x10000A4B8, symSize: 0x28 }
  - { offsetInCU: 0x8A48, offset: 0x2E487, size: 0x8, addend: 0x0, symName: __ZNSt3__122__compressed_pair_elemIRNS_9allocatorINS_12basic_stringIcNS_11char_traitsIcEENS1_IcEEEEEELi1ELb0EE5__getB8ue170006Ev, symObjAddr: 0x3120, symBinAddr: 0x10000A4E0, symSize: 0x18 }
  - { offsetInCU: 0x8A6D, offset: 0x2E4AC, size: 0x8, addend: 0x0, symName: __ZNSt3__117__compressed_pairIPNS_12basic_stringIcNS_11char_traitsIcEENS_9allocatorIcEEEERNS4_IS6_EEE5firstB8ue170006Ev, symObjAddr: 0x3138, symBinAddr: 0x10000A4F8, symSize: 0x24 }
  - { offsetInCU: 0x8A92, offset: 0x2E4D1, size: 0x8, addend: 0x0, symName: __ZNSt3__129_AllocatorDestroyRangeReverseINS_9allocatorINS_12basic_stringIcNS_11char_traitsIcEENS1_IcEEEEEENS_16reverse_iteratorIPS6_EEEC1B8ue170006ERS7_RSA_SD_, symObjAddr: 0x3308, symBinAddr: 0x10000A6C8, symSize: 0x44 }
  - { offsetInCU: 0x8AE7, offset: 0x2E526, size: 0x8, addend: 0x0, symName: __ZNKSt3__116reverse_iteratorIPNS_12basic_stringIcNS_11char_traitsIcEENS_9allocatorIcEEEEEdeB8ue170006Ev, symObjAddr: 0x334C, symBinAddr: 0x10000A70C, symSize: 0x28 }
  - { offsetInCU: 0x8B1A, offset: 0x2E559, size: 0x8, addend: 0x0, symName: __ZNSt3__128__exception_guard_exceptionsINS_29_AllocatorDestroyRangeReverseINS_9allocatorINS_12basic_stringIcNS_11char_traitsIcEENS2_IcEEEEEENS_16reverse_iteratorIPS7_EEEEE10__completeB8ue170006Ev, symObjAddr: 0x3374, symBinAddr: 0x10000A734, symSize: 0x1C }
  - { offsetInCU: 0x8B3F, offset: 0x2E57E, size: 0x8, addend: 0x0, symName: __ZNSt3__128__exception_guard_exceptionsINS_29_AllocatorDestroyRangeReverseINS_9allocatorINS_12basic_stringIcNS_11char_traitsIcEENS2_IcEEEEEENS_16reverse_iteratorIPS7_EEEEED1B8ue170006Ev, symObjAddr: 0x3390, symBinAddr: 0x10000A750, symSize: 0x2C }
  - { offsetInCU: 0x8B67, offset: 0x2E5A6, size: 0x8, addend: 0x0, symName: __ZNSt3__128__exception_guard_exceptionsINS_29_AllocatorDestroyRangeReverseINS_9allocatorINS_12basic_stringIcNS_11char_traitsIcEENS2_IcEEEEEENS_16reverse_iteratorIPS7_EEEEEC1B8ue170006ESC_, symObjAddr: 0x33BC, symBinAddr: 0x10000A77C, symSize: 0x34 }
  - { offsetInCU: 0x8B9E, offset: 0x2E5DD, size: 0x8, addend: 0x0, symName: __ZNSt3__128__exception_guard_exceptionsINS_29_AllocatorDestroyRangeReverseINS_9allocatorINS_12basic_stringIcNS_11char_traitsIcEENS2_IcEEEEEENS_16reverse_iteratorIPS7_EEEEEC2B8ue170006ESC_, symObjAddr: 0x33F0, symBinAddr: 0x10000A7B0, symSize: 0x30 }
  - { offsetInCU: 0x8BD5, offset: 0x2E614, size: 0x8, addend: 0x0, symName: __ZNSt3__129_AllocatorDestroyRangeReverseINS_9allocatorINS_12basic_stringIcNS_11char_traitsIcEENS1_IcEEEEEENS_16reverse_iteratorIPS6_EEEC2B8ue170006ERS7_RSA_SD_, symObjAddr: 0x3420, symBinAddr: 0x10000A7E0, symSize: 0x38 }
  - { offsetInCU: 0x8C2A, offset: 0x2E669, size: 0x8, addend: 0x0, symName: __ZNSt3__128__exception_guard_exceptionsINS_29_AllocatorDestroyRangeReverseINS_9allocatorINS_12basic_stringIcNS_11char_traitsIcEENS2_IcEEEEEENS_16reverse_iteratorIPS7_EEEEED2B8ue170006Ev, symObjAddr: 0x3458, symBinAddr: 0x10000A818, symSize: 0x50 }
  - { offsetInCU: 0x8C52, offset: 0x2E691, size: 0x8, addend: 0x0, symName: __ZNKSt3__129_AllocatorDestroyRangeReverseINS_9allocatorINS_12basic_stringIcNS_11char_traitsIcEENS1_IcEEEEEENS_16reverse_iteratorIPS6_EEEclB8ue170006Ev, symObjAddr: 0x34A8, symBinAddr: 0x10000A868, symSize: 0xB4 }
  - { offsetInCU: 0x8C78, offset: 0x2E6B7, size: 0x8, addend: 0x0, symName: __ZNSt3__116reverse_iteratorINS0_IPNS_12basic_stringIcNS_11char_traitsIcEENS_9allocatorIcEEEEEEEC1B8ue170006ES8_, symObjAddr: 0x35CC, symBinAddr: 0x10000A98C, symSize: 0x3C }
  - { offsetInCU: 0x8CAE, offset: 0x2E6ED, size: 0x8, addend: 0x0, symName: __ZNSt3__116reverse_iteratorINS0_IPNS_12basic_stringIcNS_11char_traitsIcEENS_9allocatorIcEEEEEEEppB8ue170006Ev, symObjAddr: 0x368C, symBinAddr: 0x10000AA4C, symSize: 0x30 }
  - { offsetInCU: 0x8CD3, offset: 0x2E712, size: 0x8, addend: 0x0, symName: __ZNKSt3__116reverse_iteratorINS0_IPNS_12basic_stringIcNS_11char_traitsIcEENS_9allocatorIcEEEEEEE4baseB8ue170006Ev, symObjAddr: 0x36BC, symBinAddr: 0x10000AA7C, symSize: 0x24 }
  - { offsetInCU: 0x8CFD, offset: 0x2E73C, size: 0x8, addend: 0x0, symName: __ZNSt3__119__to_address_helperINS_16reverse_iteratorINS1_IPNS_12basic_stringIcNS_11char_traitsIcEENS_9allocatorIcEEEEEEEEvE6__callB8ue170006ERKSA_, symObjAddr: 0x36E0, symBinAddr: 0x10000AAA0, symSize: 0x38 }
  - { offsetInCU: 0x8D20, offset: 0x2E75F, size: 0x8, addend: 0x0, symName: __ZNKSt3__116reverse_iteratorINS0_IPNS_12basic_stringIcNS_11char_traitsIcEENS_9allocatorIcEEEEEEEptB8ue170006Ev, symObjAddr: 0x3718, symBinAddr: 0x10000AAD8, symSize: 0x4C }
  - { offsetInCU: 0x8D45, offset: 0x2E784, size: 0x8, addend: 0x0, symName: __ZNSt3__116reverse_iteratorIPNS_12basic_stringIcNS_11char_traitsIcEENS_9allocatorIcEEEEEpLB8ue170006El, symObjAddr: 0x3814, symBinAddr: 0x10000ABD4, symSize: 0x30 }
  - { offsetInCU: 0x8D78, offset: 0x2E7B7, size: 0x8, addend: 0x0, symName: __ZNSt3__116reverse_iteratorIPNS_12basic_stringIcNS_11char_traitsIcEENS_9allocatorIcEEEEEmmB8ue170006Ev, symObjAddr: 0x3844, symBinAddr: 0x10000AC04, symSize: 0x20 }
  - { offsetInCU: 0x8D9D, offset: 0x2E7DC, size: 0x8, addend: 0x0, symName: __ZNSt3__116reverse_iteratorINS0_IPNS_12basic_stringIcNS_11char_traitsIcEENS_9allocatorIcEEEEEEEC2B8ue170006ES8_, symObjAddr: 0x3864, symBinAddr: 0x10000AC24, symSize: 0x2C }
  - { offsetInCU: 0x8DD3, offset: 0x2E812, size: 0x8, addend: 0x0, symName: __ZNSt3__114__split_bufferINS_12basic_stringIcNS_11char_traitsIcEENS_9allocatorIcEEEERNS4_IS6_EEED2Ev, symObjAddr: 0x3890, symBinAddr: 0x10000AC50, symSize: 0x8C }
  - { offsetInCU: 0x8DFE, offset: 0x2E83D, size: 0x8, addend: 0x0, symName: __ZNSt3__114__split_bufferINS_12basic_stringIcNS_11char_traitsIcEENS_9allocatorIcEEEERNS4_IS6_EEE5clearB8ue170006Ev, symObjAddr: 0x391C, symBinAddr: 0x10000ACDC, symSize: 0x28 }
  - { offsetInCU: 0x8E23, offset: 0x2E862, size: 0x8, addend: 0x0, symName: __ZNKSt3__114__split_bufferINS_12basic_stringIcNS_11char_traitsIcEENS_9allocatorIcEEEERNS4_IS6_EEE8capacityB8ue170006Ev, symObjAddr: 0x3944, symBinAddr: 0x10000AD04, symSize: 0x40 }
  - { offsetInCU: 0x8E48, offset: 0x2E887, size: 0x8, addend: 0x0, symName: __ZNSt3__114__split_bufferINS_12basic_stringIcNS_11char_traitsIcEENS_9allocatorIcEEEERNS4_IS6_EEE17__destruct_at_endB8ue170006EPS6_, symObjAddr: 0x3984, symBinAddr: 0x10000AD44, symSize: 0x2C }
  - { offsetInCU: 0x8E7A, offset: 0x2E8B9, size: 0x8, addend: 0x0, symName: __ZNSt3__114__split_bufferINS_12basic_stringIcNS_11char_traitsIcEENS_9allocatorIcEEEERNS4_IS6_EEE17__destruct_at_endB8ue170006EPS6_NS_17integral_constantIbLb0EEE, symObjAddr: 0x39B0, symBinAddr: 0x10000AD70, symSize: 0x80 }
  - { offsetInCU: 0x8EBB, offset: 0x2E8FA, size: 0x8, addend: 0x0, symName: __ZNKSt3__114__split_bufferINS_12basic_stringIcNS_11char_traitsIcEENS_9allocatorIcEEEERNS4_IS6_EEE9__end_capB8ue170006Ev, symObjAddr: 0x3A30, symBinAddr: 0x10000ADF0, symSize: 0x28 }
  - { offsetInCU: 0x8EE0, offset: 0x2E91F, size: 0x8, addend: 0x0, symName: __ZNKSt3__117__compressed_pairIPNS_12basic_stringIcNS_11char_traitsIcEENS_9allocatorIcEEEERNS4_IS6_EEE5firstB8ue170006Ev, symObjAddr: 0x3A58, symBinAddr: 0x10000AE18, symSize: 0x24 }
  - { offsetInCU: 0x69EB, offset: 0x353B5, size: 0x8, addend: 0x0, symName: __ZNSt3__1plB8ue170006IcNS_11char_traitsIcEENS_9allocatorIcEEEENS_12basic_stringIT_T0_T1_EEOS9_PKS6_, symObjAddr: 0x2700, symBinAddr: 0x10000D448, symSize: 0x40 }
  - { offsetInCU: 0x6ABD, offset: 0x35487, size: 0x8, addend: 0x0, symName: __ZNSt3__130__uninitialized_allocator_copyB8ue170006INS_9allocatorINS_12basic_stringIcNS_11char_traitsIcEENS1_IcEEEEEEPS6_S8_S8_EET2_RT_T0_T1_S9_, symObjAddr: 0x4BBC, symBinAddr: 0x10000DD40, symSize: 0x80 }
  - { offsetInCU: 0x6B5A, offset: 0x35524, size: 0x8, addend: 0x0, symName: __ZNSt3__114__unwrap_rangeB8ue170006IPNS_12basic_stringIcNS_11char_traitsIcEENS_9allocatorIcEEEES7_EEDaT_T0_, symObjAddr: 0x4C3C, symBinAddr: 0x10000DDC0, symSize: 0x3C }
  - { offsetInCU: 0x6BA6, offset: 0x35570, size: 0x8, addend: 0x0, symName: __ZNSt3__135__uninitialized_allocator_copy_implB8ue170006INS_9allocatorINS_12basic_stringIcNS_11char_traitsIcEENS1_IcEEEEEEPS6_S8_S8_EET2_RT_T0_T1_S9_, symObjAddr: 0x4C78, symBinAddr: 0x10000DDFC, symSize: 0xF4 }
  - { offsetInCU: 0x6D61, offset: 0x3572B, size: 0x8, addend: 0x0, symName: __ZNSt3__112construct_atB8ue170006INS_12basic_stringIcNS_11char_traitsIcEENS_9allocatorIcEEEEJRS6_EPS6_EEPT_SA_DpOT0_, symObjAddr: 0x4E64, symBinAddr: 0x10000DFE8, symSize: 0x3C }
  - { offsetInCU: 0x6DD3, offset: 0x3579D, size: 0x8, addend: 0x0, symName: __ZNSt3__18distanceB8ue170006IPNS_12basic_stringIcNS_11char_traitsIcEENS_9allocatorIcEEEEEENS_15iterator_traitsIT_E15difference_typeES9_S9_, symObjAddr: 0x5330, symBinAddr: 0x10000E2D8, symSize: 0x2C }
  - { offsetInCU: 0x6E16, offset: 0x357E0, size: 0x8, addend: 0x0, symName: __ZNSt3__14nextB8ue170006IPNS_12basic_stringIcNS_11char_traitsIcEENS_9allocatorIcEEEEEENS_9enable_ifIXsr29__has_input_iterator_categoryIT_EE5valueES9_E4typeES9_NS_15iterator_traitsIS9_E15difference_typeE, symObjAddr: 0x535C, symBinAddr: 0x10000E304, symSize: 0x34 }
  - { offsetInCU: 0x6E59, offset: 0x35823, size: 0x8, addend: 0x0, symName: __ZNSt3__14copyB8ue170006IPNS_12basic_stringIcNS_11char_traitsIcEENS_9allocatorIcEEEES7_EET0_T_S9_S8_, symObjAddr: 0x5390, symBinAddr: 0x10000E338, symSize: 0x40 }
  - { offsetInCU: 0x6EB3, offset: 0x3587D, size: 0x8, addend: 0x0, symName: __ZNSt3__16__copyB8ue170006INS_17_ClassicAlgPolicyEPNS_12basic_stringIcNS_11char_traitsIcEENS_9allocatorIcEEEES8_S8_EENS_4pairIT0_T2_EESA_T1_SB_, symObjAddr: 0x53D0, symBinAddr: 0x10000E378, symSize: 0x44 }
  - { offsetInCU: 0x6F1F, offset: 0x358E9, size: 0x8, addend: 0x0, symName: __ZNSt3__123__dispatch_copy_or_moveB8ue170006INS_17_ClassicAlgPolicyENS_11__copy_loopIS1_EENS_14__copy_trivialEPNS_12basic_stringIcNS_11char_traitsIcEENS_9allocatorIcEEEESB_SB_EENS_4pairIT2_T4_EESD_T3_SE_, symObjAddr: 0x55A8, symBinAddr: 0x10000E49C, symSize: 0x44 }
  - { offsetInCU: 0x6F9D, offset: 0x35967, size: 0x8, addend: 0x0, symName: __ZNSt3__121__unwrap_and_dispatchB8ue170006INS_10__overloadINS_11__copy_loopINS_17_ClassicAlgPolicyEEENS_14__copy_trivialEEEPNS_12basic_stringIcNS_11char_traitsIcEENS_9allocatorIcEEEESD_SD_Li0EEENS_4pairIT0_T2_EESF_T1_SG_, symObjAddr: 0x55EC, symBinAddr: 0x10000E4E0, symSize: 0xB4 }
  - { offsetInCU: 0x7086, offset: 0x35A50, size: 0x8, addend: 0x0, symName: __ZNSt3__19make_pairB8ue170006IPNS_12basic_stringIcNS_11char_traitsIcEENS_9allocatorIcEEEES7_EENS_4pairINS_18__unwrap_ref_decayIT_E4typeENS9_IT0_E4typeEEEOSA_OSD_, symObjAddr: 0x5728, symBinAddr: 0x10000E61C, symSize: 0x38 }
  - { offsetInCU: 0x70D5, offset: 0x35A9F, size: 0x8, addend: 0x0, symName: __ZNSt3__114__rewrap_rangeB8ue170006IPNS_12basic_stringIcNS_11char_traitsIcEENS_9allocatorIcEEEES7_S7_EET0_S8_T1_, symObjAddr: 0x5760, symBinAddr: 0x10000E654, symSize: 0x2C }
  - { offsetInCU: 0x712A, offset: 0x35AF4, size: 0x8, addend: 0x0, symName: __ZNSt3__110__distanceB8ue170006IPNS_12basic_stringIcNS_11char_traitsIcEENS_9allocatorIcEEEEEENS_15iterator_traitsIT_E15difference_typeES9_S9_NS_26random_access_iterator_tagE, symObjAddr: 0x594C, symBinAddr: 0x10000E7C0, symSize: 0x28 }
  - { offsetInCU: 0x7178, offset: 0x35B42, size: 0x8, addend: 0x0, symName: __ZNSt3__116__do_string_hashB8ue170006IPKcEEmT_S3_, symObjAddr: 0x725C, symBinAddr: 0x10000FA90, symSize: 0x3C }
  - { offsetInCU: 0x71BE, offset: 0x35B88, size: 0x8, addend: 0x0, symName: __ZNSt3__110__loadwordB8ue170006ImEET_PKv, symObjAddr: 0x7CCC, symBinAddr: 0x100010484, symSize: 0x20 }
  - { offsetInCU: 0x7201, offset: 0x35BCB, size: 0x8, addend: 0x0, symName: __ZNSt3__14swapB8ue170006ImEENS_9enable_ifIXaasr21is_move_constructibleIT_EE5valuesr18is_move_assignableIS2_EE5valueEvE4typeERS2_S5_, symObjAddr: 0x7E88, symBinAddr: 0x100010640, symSize: 0x3C }
  - { offsetInCU: 0x7252, offset: 0x35C1C, size: 0x8, addend: 0x0, symName: __ZNSt3__110__loadwordB8ue170006IjEET_PKv, symObjAddr: 0x7F18, symBinAddr: 0x1000106D0, symSize: 0x20 }
  - { offsetInCU: 0x7295, offset: 0x35C5F, size: 0x8, addend: 0x0, symName: __ZNSt3__17launderB8ue170006IKNS_4pairIKNS_12basic_stringIcNS_11char_traitsIcEENS_9allocatorIcEEEE14BooleanSettingEEEEPT_SD_, symObjAddr: 0x8218, symBinAddr: 0x100010838, symSize: 0x24 }
  - { offsetInCU: 0x72CC, offset: 0x35C96, size: 0x8, addend: 0x0, symName: __ZNSt3__19__launderB8ue170006IKNS_4pairIKNS_12basic_stringIcNS_11char_traitsIcEENS_9allocatorIcEEEE14BooleanSettingEEEEPT_SD_, symObjAddr: 0x823C, symBinAddr: 0x10001085C, symSize: 0x14 }
  - { offsetInCU: 0x7303, offset: 0x35CCD, size: 0x8, addend: 0x0, symName: __ZNSt3__116__constrain_hashB8ue170006Emm, symObjAddr: 0x8250, symBinAddr: 0x100010870, symSize: 0x98 }
  - { offsetInCU: 0x733D, offset: 0x35D07, size: 0x8, addend: 0x0, symName: __ZNSt3__116__is_hash_power2B8ue170006Em, symObjAddr: 0x83B8, symBinAddr: 0x1000109D8, symSize: 0x50 }
  - { offsetInCU: 0x7369, offset: 0x35D33, size: 0x8, addend: 0x0, symName: __ZNSt3__1eqB8ue170006INS_9allocatorIcEEEEbRKNS_12basic_stringIcNS_11char_traitsIcEET_EES9_, symObjAddr: 0x848C, symBinAddr: 0x100010A94, symSize: 0x148 }
  - { offsetInCU: 0x73DC, offset: 0x35DA6, size: 0x8, addend: 0x0, symName: __ZNSt3__116__next_hash_pow2B8ue170006Em, symObjAddr: 0x8A70, symBinAddr: 0x100011078, symSize: 0x6C }
  - { offsetInCU: 0x7408, offset: 0x35DD2, size: 0x8, addend: 0x0, symName: __ZNSt3__112__libcpp_clzB8ue170006Em, symObjAddr: 0x8C24, symBinAddr: 0x10001122C, symSize: 0x1C }
  - { offsetInCU: 0x7479, offset: 0x35E43, size: 0x8, addend: 0x0, symName: __ZNSt3__112construct_atB8ue170006INS_4pairIKNS_12basic_stringIcNS_11char_traitsIcEENS_9allocatorIcEEEE14BooleanSettingEEJRKSA_EPSA_EEPT_SF_DpOT0_, symObjAddr: 0x9694, symBinAddr: 0x100011C9C, symSize: 0x3C }
  - { offsetInCU: 0x74EB, offset: 0x35EB5, size: 0x8, addend: 0x0, symName: __ZNSt3__1eqB8ue170006ERKNS_25__hash_map_const_iteratorINS_21__hash_const_iteratorIPNS_11__hash_nodeINS_17__hash_value_typeINS_12basic_stringIcNS_11char_traitsIcEENS_9allocatorIcEEEE14BooleanSettingEEPvEEEEEESI_, symObjAddr: 0x9960, symBinAddr: 0x100011F68, symSize: 0x30 }
  - { offsetInCU: 0x7528, offset: 0x35EF2, size: 0x8, addend: 0x0, symName: __ZNSt3__1eqB8ue170006ERKNS_21__hash_const_iteratorIPNS_11__hash_nodeINS_17__hash_value_typeINS_12basic_stringIcNS_11char_traitsIcEENS_9allocatorIcEEEE14BooleanSettingEEPvEEEESG_, symObjAddr: 0x9A08, symBinAddr: 0x100012010, symSize: 0x30 }
  - { offsetInCU: 0x75CB, offset: 0x35F95, size: 0x8, addend: 0x0, symName: __ZNSt3__1eqB8ue170006ERKNS_19__hash_map_iteratorINS_15__hash_iteratorIPNS_11__hash_nodeINS_17__hash_value_typeINS_12basic_stringIcNS_11char_traitsIcEENS_9allocatorIcEEEE14BooleanSettingEEPvEEEEEESI_, symObjAddr: 0x9F2C, symBinAddr: 0x100012450, symSize: 0x30 }
  - { offsetInCU: 0x7608, offset: 0x35FD2, size: 0x8, addend: 0x0, symName: __ZNSt3__1eqB8ue170006ERKNS_15__hash_iteratorIPNS_11__hash_nodeINS_17__hash_value_typeINS_12basic_stringIcNS_11char_traitsIcEENS_9allocatorIcEEEE14BooleanSettingEEPvEEEESG_, symObjAddr: 0xA1F0, symBinAddr: 0x100012714, symSize: 0x30 }
  - { offsetInCU: 0x9DE2, offset: 0x387AC, size: 0x8, addend: 0x0, symName: __ZN8SettingsC2Ev, symObjAddr: 0x0, symBinAddr: 0x10000AE3C, symSize: 0x22F8 }
  - { offsetInCU: 0x9E0E, offset: 0x387D8, size: 0x8, addend: 0x0, symName: __ZNSt3__113unordered_mapINS_12basic_stringIcNS_11char_traitsIcEENS_9allocatorIcEEEE14BooleanSettingNS_4hashIS6_EENS_8equal_toIS6_EENS4_INS_4pairIKS6_S7_EEEEEC1B8ue170006Ev, symObjAddr: 0x22F8, symBinAddr: 0x10000D134, symSize: 0x2C }
  - { offsetInCU: 0x9E3B, offset: 0x38805, size: 0x8, addend: 0x0, symName: __ZNSt3__14pairIKNS_12basic_stringIcNS_11char_traitsIcEENS_9allocatorIcEEEE14BooleanSettingEC1B8ue170006ILb1ELPv0EEERS7_RKS8_, symObjAddr: 0x2394, symBinAddr: 0x10000D160, symSize: 0x3C }
  - { offsetInCU: 0x9E90, offset: 0x3885A, size: 0x8, addend: 0x0, symName: __ZNSt3__113unordered_mapINS_12basic_stringIcNS_11char_traitsIcEENS_9allocatorIcEEEE14BooleanSettingNS_4hashIS6_EENS_8equal_toIS6_EENS4_INS_4pairIKS6_S7_EEEEEaSESt16initializer_listISE_E, symObjAddr: 0x23D0, symBinAddr: 0x10000D19C, symSize: 0x60 }
  - { offsetInCU: 0x9ECB, offset: 0x38895, size: 0x8, addend: 0x0, symName: __ZN8SettingsC1Ev, symObjAddr: 0x24B4, symBinAddr: 0x10000D1FC, symSize: 0x2C }
  - { offsetInCU: 0x9EF6, offset: 0x388C0, size: 0x8, addend: 0x0, symName: __ZNK8Settings9isEnabledERKNSt3__112basic_stringIcNS0_11char_traitsIcEENS0_9allocatorIcEEEE, symObjAddr: 0x24E0, symBinAddr: 0x10000D228, symSize: 0x140 }
  - { offsetInCU: 0x9F2B, offset: 0x388F5, size: 0x8, addend: 0x0, symName: __ZNKSt3__113unordered_mapINS_12basic_stringIcNS_11char_traitsIcEENS_9allocatorIcEEEE14BooleanSettingNS_4hashIS6_EENS_8equal_toIS6_EENS4_INS_4pairIKS6_S7_EEEEE8containsB8ue170006ERSD_, symObjAddr: 0x2620, symBinAddr: 0x10000D368, symSize: 0x64 }
  - { offsetInCU: 0x9F5F, offset: 0x38929, size: 0x8, addend: 0x0, symName: __ZNKSt3__113unordered_mapINS_12basic_stringIcNS_11char_traitsIcEENS_9allocatorIcEEEE14BooleanSettingNS_4hashIS6_EENS_8equal_toIS6_EENS4_INS_4pairIKS6_S7_EEEEE2atERSD_, symObjAddr: 0x2684, symBinAddr: 0x10000D3CC, symSize: 0x7C }
  - { offsetInCU: 0x9FA4, offset: 0x3896E, size: 0x8, addend: 0x0, symName: __ZNSt16invalid_argumentC1B8ue170006ERKNSt3__112basic_stringIcNS0_11char_traitsIcEENS0_9allocatorIcEEEE, symObjAddr: 0x2740, symBinAddr: 0x10000D488, symSize: 0x34 }
  - { offsetInCU: 0x9FDA, offset: 0x389A4, size: 0x8, addend: 0x0, symName: __ZNK8Settings14getDisplayNameERKNSt3__112basic_stringIcNS0_11char_traitsIcEENS0_9allocatorIcEEEE, symObjAddr: 0x2774, symBinAddr: 0x10000D4BC, symSize: 0x13C }
  - { offsetInCU: 0xA00F, offset: 0x389D9, size: 0x8, addend: 0x0, symName: __ZNK8Settings14getDescriptionERKNSt3__112basic_stringIcNS0_11char_traitsIcEENS0_9allocatorIcEEEE, symObjAddr: 0x28B0, symBinAddr: 0x10000D5F8, symSize: 0x13C }
  - { offsetInCU: 0xA044, offset: 0x38A0E, size: 0x8, addend: 0x0, symName: __ZN8Settings13updateSettingERKNSt3__112basic_stringIcNS0_11char_traitsIcEENS0_9allocatorIcEEEERK14BooleanSetting, symObjAddr: 0x29EC, symBinAddr: 0x10000D734, symSize: 0x14C }
  - { offsetInCU: 0xA087, offset: 0x38A51, size: 0x8, addend: 0x0, symName: __ZNSt3__113unordered_mapINS_12basic_stringIcNS_11char_traitsIcEENS_9allocatorIcEEEE14BooleanSettingNS_4hashIS6_EENS_8equal_toIS6_EENS4_INS_4pairIKS6_S7_EEEEE2atERSD_, symObjAddr: 0x2B38, symBinAddr: 0x10000D880, symSize: 0x7C }
  - { offsetInCU: 0xA0CC, offset: 0x38A96, size: 0x8, addend: 0x0, symName: __ZN14BooleanSettingaSERKS_, symObjAddr: 0x2BB4, symBinAddr: 0x10000D8FC, symSize: 0x60 }
  - { offsetInCU: 0xA129, offset: 0x38AF3, size: 0x8, addend: 0x0, symName: __ZNSt3__14pairIKNS_12basic_stringIcNS_11char_traitsIcEENS_9allocatorIcEEEE14BooleanSettingEC2B8ue170006ILb1ELPv0EEERS7_RKS8_, symObjAddr: 0x47D8, symBinAddr: 0x10000D95C, symSize: 0x70 }
  - { offsetInCU: 0xA17E, offset: 0x38B48, size: 0x8, addend: 0x0, symName: __ZN14BooleanSettingC1ERKS_, symObjAddr: 0x4848, symBinAddr: 0x10000D9CC, symSize: 0x34 }
  - { offsetInCU: 0xA1B2, offset: 0x38B7C, size: 0x8, addend: 0x0, symName: __ZN14BooleanSettingC2ERKS_, symObjAddr: 0x487C, symBinAddr: 0x10000DA00, symSize: 0x8C }
  - { offsetInCU: 0xA1E6, offset: 0x38BB0, size: 0x8, addend: 0x0, symName: __ZNSt3__16vectorINS_12basic_stringIcNS_11char_traitsIcEENS_9allocatorIcEEEENS4_IS6_EEEC1ERKS8_, symObjAddr: 0x4908, symBinAddr: 0x10000DA8C, symSize: 0x34 }
  - { offsetInCU: 0xA220, offset: 0x38BEA, size: 0x8, addend: 0x0, symName: __ZNSt3__16vectorINS_12basic_stringIcNS_11char_traitsIcEENS_9allocatorIcEEEENS4_IS6_EEEC2ERKS8_, symObjAddr: 0x493C, symBinAddr: 0x10000DAC0, symSize: 0x94 }
  - { offsetInCU: 0xA25A, offset: 0x38C24, size: 0x8, addend: 0x0, symName: __ZNSt3__116allocator_traitsINS_9allocatorINS_12basic_stringIcNS_11char_traitsIcEENS1_IcEEEEEEE37select_on_container_copy_constructionB8ue170006IS7_vvEES7_RKS7_, symObjAddr: 0x49D0, symBinAddr: 0x10000DB54, symSize: 0x10 }
  - { offsetInCU: 0xA28E, offset: 0x38C58, size: 0x8, addend: 0x0, symName: __ZNSt3__117__compressed_pairIPNS_12basic_stringIcNS_11char_traitsIcEENS_9allocatorIcEEEENS4_IS6_EEEC1B8ue170006IDnS8_EEOT_OT0_, symObjAddr: 0x49E0, symBinAddr: 0x10000DB64, symSize: 0x3C }
  - { offsetInCU: 0xA2E4, offset: 0x38CAE, size: 0x8, addend: 0x0, symName: __ZNSt3__16vectorINS_12basic_stringIcNS_11char_traitsIcEENS_9allocatorIcEEEENS4_IS6_EEE16__init_with_sizeB8ue170006IPS6_SA_EEvT_T0_m, symObjAddr: 0x4A1C, symBinAddr: 0x10000DBA0, symSize: 0xB8 }
  - { offsetInCU: 0xA357, offset: 0x38D21, size: 0x8, addend: 0x0, symName: __ZNSt3__117__compressed_pairIPNS_12basic_stringIcNS_11char_traitsIcEENS_9allocatorIcEEEENS4_IS6_EEEC2B8ue170006IDnS8_EEOT_OT0_, symObjAddr: 0x4AD4, symBinAddr: 0x10000DC58, symSize: 0x44 }
  - { offsetInCU: 0xA3AD, offset: 0x38D77, size: 0x8, addend: 0x0, symName: __ZNSt3__122__compressed_pair_elemINS_9allocatorINS_12basic_stringIcNS_11char_traitsIcEENS1_IcEEEEEELi1ELb1EEC2B8ue170006IS7_vEEOT_, symObjAddr: 0x4B18, symBinAddr: 0x10000DC9C, symSize: 0x18 }
  - { offsetInCU: 0xA3ED, offset: 0x38DB7, size: 0x8, addend: 0x0, symName: __ZNSt3__16vectorINS_12basic_stringIcNS_11char_traitsIcEENS_9allocatorIcEEEENS4_IS6_EEE18__construct_at_endIPS6_SA_EEvT_T0_m, symObjAddr: 0x4B30, symBinAddr: 0x10000DCB4, symSize: 0x8C }
  - { offsetInCU: 0xA47B, offset: 0x38E45, size: 0x8, addend: 0x0, symName: __ZNSt3__119__unwrap_range_implIPNS_12basic_stringIcNS_11char_traitsIcEENS_9allocatorIcEEEES7_E8__unwrapB8ue170006ES7_S7_, symObjAddr: 0x4D6C, symBinAddr: 0x10000DEF0, symSize: 0x58 }
  - { offsetInCU: 0xA4B1, offset: 0x38E7B, size: 0x8, addend: 0x0, symName: __ZNSt3__14pairIPNS_12basic_stringIcNS_11char_traitsIcEENS_9allocatorIcEEEES7_EC1B8ue170006IS7_S7_LPv0EEEOT_OT0_, symObjAddr: 0x4DC4, symBinAddr: 0x10000DF48, symSize: 0x3C }
  - { offsetInCU: 0xA50E, offset: 0x38ED8, size: 0x8, addend: 0x0, symName: __ZNSt3__14pairIPNS_12basic_stringIcNS_11char_traitsIcEENS_9allocatorIcEEEES7_EC2B8ue170006IS7_S7_LPv0EEEOT_OT0_, symObjAddr: 0x4E00, symBinAddr: 0x10000DF84, symSize: 0x34 }
  - { offsetInCU: 0xA56B, offset: 0x38F35, size: 0x8, addend: 0x0, symName: __ZNSt3__116allocator_traitsINS_9allocatorINS_12basic_stringIcNS_11char_traitsIcEENS1_IcEEEEEEE9constructB8ue170006IS6_JRS6_EvvEEvRS7_PT_DpOT0_, symObjAddr: 0x4E34, symBinAddr: 0x10000DFB8, symSize: 0x30 }
  - { offsetInCU: 0xA5BF, offset: 0x38F89, size: 0x8, addend: 0x0, symName: __ZNSt16invalid_argumentC2B8ue170006ERKNSt3__112basic_stringIcNS0_11char_traitsIcEENS0_9allocatorIcEEEE, symObjAddr: 0x507C, symBinAddr: 0x10000E024, symSize: 0x4C }
  - { offsetInCU: 0xA5F5, offset: 0x38FBF, size: 0x8, addend: 0x0, symName: __ZNSt3__16vectorINS_12basic_stringIcNS_11char_traitsIcEENS_9allocatorIcEEEENS4_IS6_EEEaSB8ue170006ERKS8_, symObjAddr: 0x50C8, symBinAddr: 0x10000E070, symSize: 0x68 }
  - { offsetInCU: 0xA62B, offset: 0x38FF5, size: 0x8, addend: 0x0, symName: __ZNSt3__16vectorINS_12basic_stringIcNS_11char_traitsIcEENS_9allocatorIcEEEENS4_IS6_EEE19__copy_assign_allocB8ue170006ERKS8_, symObjAddr: 0x5130, symBinAddr: 0x10000E0D8, symSize: 0x2C }
  - { offsetInCU: 0xA65F, offset: 0x39029, size: 0x8, addend: 0x0, symName: __ZNSt3__16vectorINS_12basic_stringIcNS_11char_traitsIcEENS_9allocatorIcEEEENS4_IS6_EEE6assignIPS6_Li0EEEvT_SB_, symObjAddr: 0x515C, symBinAddr: 0x10000E104, symSize: 0x5C }
  - { offsetInCU: 0xA6B3, offset: 0x3907D, size: 0x8, addend: 0x0, symName: __ZNSt3__16vectorINS_12basic_stringIcNS_11char_traitsIcEENS_9allocatorIcEEEENS4_IS6_EEE19__copy_assign_allocB8ue170006ERKS8_NS_17integral_constantIbLb0EEE, symObjAddr: 0x51B8, symBinAddr: 0x10000E160, symSize: 0x14 }
  - { offsetInCU: 0xA6EE, offset: 0x390B8, size: 0x8, addend: 0x0, symName: __ZNSt3__16vectorINS_12basic_stringIcNS_11char_traitsIcEENS_9allocatorIcEEEENS4_IS6_EEE18__assign_with_sizeB8ue170006IPS6_SA_EEvT_T0_l, symObjAddr: 0x51CC, symBinAddr: 0x10000E174, symSize: 0x164 }
  - { offsetInCU: 0xA79D, offset: 0x39167, size: 0x8, addend: 0x0, symName: __ZNSt3__16vectorINS_12basic_stringIcNS_11char_traitsIcEENS_9allocatorIcEEEENS4_IS6_EEE17__destruct_at_endB8ue170006EPS6_, symObjAddr: 0x5414, symBinAddr: 0x10000E3BC, symSize: 0x4C }
  - { offsetInCU: 0xA7E0, offset: 0x391AA, size: 0x8, addend: 0x0, symName: __ZNSt3__16vectorINS_12basic_stringIcNS_11char_traitsIcEENS_9allocatorIcEEEENS4_IS6_EEE13__vdeallocateEv, symObjAddr: 0x5460, symBinAddr: 0x10000E408, symSize: 0x94 }
  - { offsetInCU: 0xA811, offset: 0x391DB, size: 0x8, addend: 0x0, symName: __ZNKSt3__111__copy_loopINS_17_ClassicAlgPolicyEEclB8ue170006IPNS_12basic_stringIcNS_11char_traitsIcEENS_9allocatorIcEEEESA_SA_EENS_4pairIT_T1_EESC_T0_SD_, symObjAddr: 0x56A0, symBinAddr: 0x10000E594, symSize: 0x88 }
  - { offsetInCU: 0xA87B, offset: 0x39245, size: 0x8, addend: 0x0, symName: __ZNSt3__119__unwrap_range_implIPNS_12basic_stringIcNS_11char_traitsIcEENS_9allocatorIcEEEES7_E8__rewrapB8ue170006ES7_S7_, symObjAddr: 0x578C, symBinAddr: 0x10000E680, symSize: 0x2C }
  - { offsetInCU: 0xA8AC, offset: 0x39276, size: 0x8, addend: 0x0, symName: __ZNKSt3__16vectorINS_12basic_stringIcNS_11char_traitsIcEENS_9allocatorIcEEEENS4_IS6_EEE17__annotate_shrinkB8ue170006Em, symObjAddr: 0x57B8, symBinAddr: 0x10000E6AC, symSize: 0xD0 }
  - { offsetInCU: 0xA8E0, offset: 0x392AA, size: 0x8, addend: 0x0, symName: __ZNSt3__16vectorINS_12basic_stringIcNS_11char_traitsIcEENS_9allocatorIcEEEENS4_IS6_EEE5clearB8ue170006Ev, symObjAddr: 0x5888, symBinAddr: 0x10000E77C, symSize: 0x44 }
  - { offsetInCU: 0xA914, offset: 0x392DE, size: 0x8, addend: 0x0, symName: __ZNSt3__113unordered_mapINS_12basic_stringIcNS_11char_traitsIcEENS_9allocatorIcEEEE14BooleanSettingNS_4hashIS6_EENS_8equal_toIS6_EENS4_INS_4pairIKS6_S7_EEEEEC2B8ue170006Ev, symObjAddr: 0x5974, symBinAddr: 0x10000E7E8, symSize: 0x2C }
  - { offsetInCU: 0xA93C, offset: 0x39306, size: 0x8, addend: 0x0, symName: __ZNSt3__112__hash_tableINS_17__hash_value_typeINS_12basic_stringIcNS_11char_traitsIcEENS_9allocatorIcEEEE14BooleanSettingEENS_22__unordered_map_hasherIS7_S9_NS_4hashIS7_EENS_8equal_toIS7_EELb1EEENS_21__unordered_map_equalIS7_S9_SE_SC_Lb1EEENS5_IS9_EEEC1Ev, symObjAddr: 0x59A0, symBinAddr: 0x10000E814, symSize: 0x2C }
  - { offsetInCU: 0xA967, offset: 0x39331, size: 0x8, addend: 0x0, symName: __ZNSt3__112__hash_tableINS_17__hash_value_typeINS_12basic_stringIcNS_11char_traitsIcEENS_9allocatorIcEEEE14BooleanSettingEENS_22__unordered_map_hasherIS7_S9_NS_4hashIS7_EENS_8equal_toIS7_EELb1EEENS_21__unordered_map_equalIS7_S9_SE_SC_Lb1EEENS5_IS9_EEEC2Ev, symObjAddr: 0x59CC, symBinAddr: 0x10000E840, symSize: 0x7C }
  - { offsetInCU: 0xA992, offset: 0x3935C, size: 0x8, addend: 0x0, symName: __ZNSt3__110unique_ptrIA_PNS_16__hash_node_baseIPNS_11__hash_nodeINS_17__hash_value_typeINS_12basic_stringIcNS_11char_traitsIcEENS_9allocatorIcEEEE14BooleanSettingEEPvEEEENS_25__bucket_list_deallocatorINS7_ISG_EEEEEC1B8ue170006ILb1EvEEv, symObjAddr: 0x5A48, symBinAddr: 0x10000E8BC, symSize: 0x2C }
  - { offsetInCU: 0xA9C5, offset: 0x3938F, size: 0x8, addend: 0x0, symName: __ZNSt3__117__compressed_pairINS_16__hash_node_baseIPNS_11__hash_nodeINS_17__hash_value_typeINS_12basic_stringIcNS_11char_traitsIcEENS_9allocatorIcEEEE14BooleanSettingEEPvEEEENS7_ISD_EEEC1B8ue170006ILb1EvEEv, symObjAddr: 0x5A74, symBinAddr: 0x10000E8E8, symSize: 0x2C }
  - { offsetInCU: 0xA9FD, offset: 0x393C7, size: 0x8, addend: 0x0, symName: __ZNSt3__117__compressed_pairImNS_22__unordered_map_hasherINS_12basic_stringIcNS_11char_traitsIcEENS_9allocatorIcEEEENS_17__hash_value_typeIS7_14BooleanSettingEENS_4hashIS7_EENS_8equal_toIS7_EELb1EEEEC1B8ue170006IiNS_18__default_init_tagEEEOT_OT0_, symObjAddr: 0x5AA0, symBinAddr: 0x10000E914, symSize: 0x3C }
  - { offsetInCU: 0xAA58, offset: 0x39422, size: 0x8, addend: 0x0, symName: __ZNSt3__117__compressed_pairIfNS_21__unordered_map_equalINS_12basic_stringIcNS_11char_traitsIcEENS_9allocatorIcEEEENS_17__hash_value_typeIS7_14BooleanSettingEENS_8equal_toIS7_EENS_4hashIS7_EELb1EEEEC1B8ue170006IfNS_18__default_init_tagEEEOT_OT0_, symObjAddr: 0x5ADC, symBinAddr: 0x10000E950, symSize: 0x3C }
  - { offsetInCU: 0xAAAE, offset: 0x39478, size: 0x8, addend: 0x0, symName: __ZNSt3__110unique_ptrIA_PNS_16__hash_node_baseIPNS_11__hash_nodeINS_17__hash_value_typeINS_12basic_stringIcNS_11char_traitsIcEENS_9allocatorIcEEEE14BooleanSettingEEPvEEEENS_25__bucket_list_deallocatorINS7_ISG_EEEEEC2B8ue170006ILb1EvEEv, symObjAddr: 0x5B18, symBinAddr: 0x10000E98C, symSize: 0x3C }
  - { offsetInCU: 0xAAE6, offset: 0x394B0, size: 0x8, addend: 0x0, symName: __ZNSt3__117__compressed_pairIPPNS_16__hash_node_baseIPNS_11__hash_nodeINS_17__hash_value_typeINS_12basic_stringIcNS_11char_traitsIcEENS_9allocatorIcEEEE14BooleanSettingEEPvEEEENS_25__bucket_list_deallocatorINS7_ISG_EEEEEC1B8ue170006INS_16__value_init_tagESN_EEOT_OT0_, symObjAddr: 0x5B54, symBinAddr: 0x10000E9C8, symSize: 0x3C }
  - { offsetInCU: 0xAB3C, offset: 0x39506, size: 0x8, addend: 0x0, symName: __ZNSt3__117__compressed_pairIPPNS_16__hash_node_baseIPNS_11__hash_nodeINS_17__hash_value_typeINS_12basic_stringIcNS_11char_traitsIcEENS_9allocatorIcEEEE14BooleanSettingEEPvEEEENS_25__bucket_list_deallocatorINS7_ISG_EEEEEC2B8ue170006INS_16__value_init_tagESN_EEOT_OT0_, symObjAddr: 0x5B90, symBinAddr: 0x10000EA04, symSize: 0x40 }
  - { offsetInCU: 0xAB92, offset: 0x3955C, size: 0x8, addend: 0x0, symName: __ZNSt3__122__compressed_pair_elemIPPNS_16__hash_node_baseIPNS_11__hash_nodeINS_17__hash_value_typeINS_12basic_stringIcNS_11char_traitsIcEENS_9allocatorIcEEEE14BooleanSettingEEPvEEEELi0ELb0EEC2B8ue170006ENS_16__value_init_tagE, symObjAddr: 0x5BD0, symBinAddr: 0x10000EA44, symSize: 0x18 }
  - { offsetInCU: 0xABC5, offset: 0x3958F, size: 0x8, addend: 0x0, symName: __ZNSt3__122__compressed_pair_elemINS_25__bucket_list_deallocatorINS_9allocatorIPNS_16__hash_node_baseIPNS_11__hash_nodeINS_17__hash_value_typeINS_12basic_stringIcNS_11char_traitsIcEENS2_IcEEEE14BooleanSettingEEPvEEEEEEEELi1ELb0EEC2B8ue170006ENS_16__value_init_tagE, symObjAddr: 0x5BE8, symBinAddr: 0x10000EA5C, symSize: 0x2C }
  - { offsetInCU: 0xABF8, offset: 0x395C2, size: 0x8, addend: 0x0, symName: __ZNSt3__125__bucket_list_deallocatorINS_9allocatorIPNS_16__hash_node_baseIPNS_11__hash_nodeINS_17__hash_value_typeINS_12basic_stringIcNS_11char_traitsIcEENS1_IcEEEE14BooleanSettingEEPvEEEEEEEC1B8ue170006Ev, symObjAddr: 0x5C14, symBinAddr: 0x10000EA88, symSize: 0x2C }
  - { offsetInCU: 0xAC20, offset: 0x395EA, size: 0x8, addend: 0x0, symName: __ZNSt3__125__bucket_list_deallocatorINS_9allocatorIPNS_16__hash_node_baseIPNS_11__hash_nodeINS_17__hash_value_typeINS_12basic_stringIcNS_11char_traitsIcEENS1_IcEEEE14BooleanSettingEEPvEEEEEEEC2B8ue170006Ev, symObjAddr: 0x5C40, symBinAddr: 0x10000EAB4, symSize: 0x40 }
  - { offsetInCU: 0xAC48, offset: 0x39612, size: 0x8, addend: 0x0, symName: __ZNSt3__117__compressed_pairImNS_9allocatorIPNS_16__hash_node_baseIPNS_11__hash_nodeINS_17__hash_value_typeINS_12basic_stringIcNS_11char_traitsIcEENS1_IcEEEE14BooleanSettingEEPvEEEEEEEC1B8ue170006IiNS_18__default_init_tagEEEOT_OT0_, symObjAddr: 0x5C80, symBinAddr: 0x10000EAF4, symSize: 0x3C }
  - { offsetInCU: 0xAC9E, offset: 0x39668, size: 0x8, addend: 0x0, symName: __ZNSt3__117__compressed_pairImNS_9allocatorIPNS_16__hash_node_baseIPNS_11__hash_nodeINS_17__hash_value_typeINS_12basic_stringIcNS_11char_traitsIcEENS1_IcEEEE14BooleanSettingEEPvEEEEEEEC2B8ue170006IiNS_18__default_init_tagEEEOT_OT0_, symObjAddr: 0x5CBC, symBinAddr: 0x10000EB30, symSize: 0x40 }
  - { offsetInCU: 0xACF4, offset: 0x396BE, size: 0x8, addend: 0x0, symName: __ZNSt3__122__compressed_pair_elemImLi0ELb0EEC2B8ue170006IivEEOT_, symObjAddr: 0x5CFC, symBinAddr: 0x10000EB70, symSize: 0x24 }
  - { offsetInCU: 0xAD34, offset: 0x396FE, size: 0x8, addend: 0x0, symName: __ZNSt3__122__compressed_pair_elemINS_9allocatorIPNS_16__hash_node_baseIPNS_11__hash_nodeINS_17__hash_value_typeINS_12basic_stringIcNS_11char_traitsIcEENS1_IcEEEE14BooleanSettingEEPvEEEEEELi1ELb1EEC2B8ue170006ENS_18__default_init_tagE, symObjAddr: 0x5D20, symBinAddr: 0x10000EB94, symSize: 0x2C }
  - { offsetInCU: 0xAD67, offset: 0x39731, size: 0x8, addend: 0x0, symName: __ZNSt3__19allocatorIPNS_16__hash_node_baseIPNS_11__hash_nodeINS_17__hash_value_typeINS_12basic_stringIcNS_11char_traitsIcEENS0_IcEEEE14BooleanSettingEEPvEEEEEC2B8ue170006Ev, symObjAddr: 0x5D4C, symBinAddr: 0x10000EBC0, symSize: 0x2C }
  - { offsetInCU: 0xAD8F, offset: 0x39759, size: 0x8, addend: 0x0, symName: __ZNSt3__116__non_trivial_ifILb1ENS_9allocatorIPNS_16__hash_node_baseIPNS_11__hash_nodeINS_17__hash_value_typeINS_12basic_stringIcNS_11char_traitsIcEENS1_IcEEEE14BooleanSettingEEPvEEEEEEEC2B8ue170006Ev, symObjAddr: 0x5D78, symBinAddr: 0x10000EBEC, symSize: 0x14 }
  - { offsetInCU: 0xADB7, offset: 0x39781, size: 0x8, addend: 0x0, symName: __ZNSt3__117__compressed_pairINS_16__hash_node_baseIPNS_11__hash_nodeINS_17__hash_value_typeINS_12basic_stringIcNS_11char_traitsIcEENS_9allocatorIcEEEE14BooleanSettingEEPvEEEENS7_ISD_EEEC2B8ue170006ILb1EvEEv, symObjAddr: 0x5D8C, symBinAddr: 0x10000EC00, symSize: 0x34 }
  - { offsetInCU: 0xADEA, offset: 0x397B4, size: 0x8, addend: 0x0, symName: __ZNSt3__122__compressed_pair_elemINS_16__hash_node_baseIPNS_11__hash_nodeINS_17__hash_value_typeINS_12basic_stringIcNS_11char_traitsIcEENS_9allocatorIcEEEE14BooleanSettingEEPvEEEELi0ELb0EEC2B8ue170006ENS_16__value_init_tagE, symObjAddr: 0x5DC0, symBinAddr: 0x10000EC34, symSize: 0x2C }
  - { offsetInCU: 0xAE1D, offset: 0x397E7, size: 0x8, addend: 0x0, symName: __ZNSt3__122__compressed_pair_elemINS_9allocatorINS_11__hash_nodeINS_17__hash_value_typeINS_12basic_stringIcNS_11char_traitsIcEENS1_IcEEEE14BooleanSettingEEPvEEEELi1ELb1EEC2B8ue170006ENS_16__value_init_tagE, symObjAddr: 0x5DEC, symBinAddr: 0x10000EC60, symSize: 0x2C }
  - { offsetInCU: 0xAE50, offset: 0x3981A, size: 0x8, addend: 0x0, symName: __ZNSt3__116__hash_node_baseIPNS_11__hash_nodeINS_17__hash_value_typeINS_12basic_stringIcNS_11char_traitsIcEENS_9allocatorIcEEEE14BooleanSettingEEPvEEEC1B8ue170006Ev, symObjAddr: 0x5E18, symBinAddr: 0x10000EC8C, symSize: 0x2C }
  - { offsetInCU: 0xAE78, offset: 0x39842, size: 0x8, addend: 0x0, symName: __ZNSt3__116__hash_node_baseIPNS_11__hash_nodeINS_17__hash_value_typeINS_12basic_stringIcNS_11char_traitsIcEENS_9allocatorIcEEEE14BooleanSettingEEPvEEEC2B8ue170006Ev, symObjAddr: 0x5E44, symBinAddr: 0x10000ECB8, symSize: 0x18 }
  - { offsetInCU: 0xAEA0, offset: 0x3986A, size: 0x8, addend: 0x0, symName: __ZNSt3__19allocatorINS_11__hash_nodeINS_17__hash_value_typeINS_12basic_stringIcNS_11char_traitsIcEENS0_IcEEEE14BooleanSettingEEPvEEEC2B8ue170006Ev, symObjAddr: 0x5E5C, symBinAddr: 0x10000ECD0, symSize: 0x2C }
  - { offsetInCU: 0xAEC8, offset: 0x39892, size: 0x8, addend: 0x0, symName: __ZNSt3__116__non_trivial_ifILb1ENS_9allocatorINS_11__hash_nodeINS_17__hash_value_typeINS_12basic_stringIcNS_11char_traitsIcEENS1_IcEEEE14BooleanSettingEEPvEEEEEC2B8ue170006Ev, symObjAddr: 0x5E88, symBinAddr: 0x10000ECFC, symSize: 0x14 }
  - { offsetInCU: 0xAEF0, offset: 0x398BA, size: 0x8, addend: 0x0, symName: __ZNSt3__117__compressed_pairImNS_22__unordered_map_hasherINS_12basic_stringIcNS_11char_traitsIcEENS_9allocatorIcEEEENS_17__hash_value_typeIS7_14BooleanSettingEENS_4hashIS7_EENS_8equal_toIS7_EELb1EEEEC2B8ue170006IiNS_18__default_init_tagEEEOT_OT0_, symObjAddr: 0x5E9C, symBinAddr: 0x10000ED10, symSize: 0x40 }
  - { offsetInCU: 0xAF46, offset: 0x39910, size: 0x8, addend: 0x0, symName: __ZNSt3__122__compressed_pair_elemINS_22__unordered_map_hasherINS_12basic_stringIcNS_11char_traitsIcEENS_9allocatorIcEEEENS_17__hash_value_typeIS7_14BooleanSettingEENS_4hashIS7_EENS_8equal_toIS7_EELb1EEELi1ELb1EEC2B8ue170006ENS_18__default_init_tagE, symObjAddr: 0x5EDC, symBinAddr: 0x10000ED50, symSize: 0x2C }
  - { offsetInCU: 0xAF79, offset: 0x39943, size: 0x8, addend: 0x0, symName: __ZNSt3__122__unordered_map_hasherINS_12basic_stringIcNS_11char_traitsIcEENS_9allocatorIcEEEENS_17__hash_value_typeIS6_14BooleanSettingEENS_4hashIS6_EENS_8equal_toIS6_EELb1EEC2B8ue170006Ev, symObjAddr: 0x5F08, symBinAddr: 0x10000ED7C, symSize: 0x14 }
  - { offsetInCU: 0xAFA1, offset: 0x3996B, size: 0x8, addend: 0x0, symName: __ZNSt3__117__compressed_pairIfNS_21__unordered_map_equalINS_12basic_stringIcNS_11char_traitsIcEENS_9allocatorIcEEEENS_17__hash_value_typeIS7_14BooleanSettingEENS_8equal_toIS7_EENS_4hashIS7_EELb1EEEEC2B8ue170006IfNS_18__default_init_tagEEEOT_OT0_, symObjAddr: 0x5F1C, symBinAddr: 0x10000ED90, symSize: 0x40 }
  - { offsetInCU: 0xAFF7, offset: 0x399C1, size: 0x8, addend: 0x0, symName: __ZNSt3__122__compressed_pair_elemIfLi0ELb0EEC2B8ue170006IfvEEOT_, symObjAddr: 0x5F5C, symBinAddr: 0x10000EDD0, symSize: 0x24 }
  - { offsetInCU: 0xB037, offset: 0x39A01, size: 0x8, addend: 0x0, symName: __ZNSt3__122__compressed_pair_elemINS_21__unordered_map_equalINS_12basic_stringIcNS_11char_traitsIcEENS_9allocatorIcEEEENS_17__hash_value_typeIS7_14BooleanSettingEENS_8equal_toIS7_EENS_4hashIS7_EELb1EEELi1ELb1EEC2B8ue170006ENS_18__default_init_tagE, symObjAddr: 0x5F80, symBinAddr: 0x10000EDF4, symSize: 0x2C }
  - { offsetInCU: 0xB06A, offset: 0x39A34, size: 0x8, addend: 0x0, symName: __ZNSt3__121__unordered_map_equalINS_12basic_stringIcNS_11char_traitsIcEENS_9allocatorIcEEEENS_17__hash_value_typeIS6_14BooleanSettingEENS_8equal_toIS6_EENS_4hashIS6_EELb1EEC2B8ue170006Ev, symObjAddr: 0x5FAC, symBinAddr: 0x10000EE20, symSize: 0x14 }
  - { offsetInCU: 0xB092, offset: 0x39A5C, size: 0x8, addend: 0x0, symName: __ZNSt3__112__hash_tableINS_17__hash_value_typeINS_12basic_stringIcNS_11char_traitsIcEENS_9allocatorIcEEEE14BooleanSettingEENS_22__unordered_map_hasherIS7_S9_NS_4hashIS7_EENS_8equal_toIS7_EELb1EEENS_21__unordered_map_equalIS7_S9_SE_SC_Lb1EEENS5_IS9_EEE15__assign_uniqueIPKNS_4pairIKS7_S8_EEEEvT_SQ_, symObjAddr: 0x6600, symBinAddr: 0x10000EE34, symSize: 0x1B4 }
  - { offsetInCU: 0xB10A, offset: 0x39AD4, size: 0x8, addend: 0x0, symName: __ZNKSt16initializer_listINSt3__14pairIKNS0_12basic_stringIcNS0_11char_traitsIcEENS0_9allocatorIcEEEE14BooleanSettingEEE5beginB8ue170006Ev, symObjAddr: 0x67B4, symBinAddr: 0x10000EFE8, symSize: 0x18 }
  - { offsetInCU: 0xB12F, offset: 0x39AF9, size: 0x8, addend: 0x0, symName: __ZNKSt16initializer_listINSt3__14pairIKNS0_12basic_stringIcNS0_11char_traitsIcEENS0_9allocatorIcEEEE14BooleanSettingEEE3endB8ue170006Ev, symObjAddr: 0x67CC, symBinAddr: 0x10000F000, symSize: 0x28 }
  - { offsetInCU: 0xB154, offset: 0x39B1E, size: 0x8, addend: 0x0, symName: __ZNKSt3__112__hash_tableINS_17__hash_value_typeINS_12basic_stringIcNS_11char_traitsIcEENS_9allocatorIcEEEE14BooleanSettingEENS_22__unordered_map_hasherIS7_S9_NS_4hashIS7_EENS_8equal_toIS7_EELb1EEENS_21__unordered_map_equalIS7_S9_SE_SC_Lb1EEENS5_IS9_EEE12bucket_countB8ue170006Ev, symObjAddr: 0x67F4, symBinAddr: 0x10000F028, symSize: 0x28 }
  - { offsetInCU: 0xB179, offset: 0x39B43, size: 0x8, addend: 0x0, symName: __ZNSt3__112__hash_tableINS_17__hash_value_typeINS_12basic_stringIcNS_11char_traitsIcEENS_9allocatorIcEEEE14BooleanSettingEENS_22__unordered_map_hasherIS7_S9_NS_4hashIS7_EENS_8equal_toIS7_EELb1EEENS_21__unordered_map_equalIS7_S9_SE_SC_Lb1EEENS5_IS9_EEE8__detachEv, symObjAddr: 0x681C, symBinAddr: 0x10000F050, symSize: 0xB4 }
  - { offsetInCU: 0xB1D3, offset: 0x39B9D, size: 0x8, addend: 0x0, symName: __ZNSt3__117__hash_value_typeINS_12basic_stringIcNS_11char_traitsIcEENS_9allocatorIcEEEE14BooleanSettingEaSB8ue170006IRKNS_4pairIKS6_S7_EEvEERS8_OT_, symObjAddr: 0x68D0, symBinAddr: 0x10000F104, symSize: 0x54 }
  - { offsetInCU: 0xB211, offset: 0x39BDB, size: 0x8, addend: 0x0, symName: __ZNSt3__112__hash_tableINS_17__hash_value_typeINS_12basic_stringIcNS_11char_traitsIcEENS_9allocatorIcEEEE14BooleanSettingEENS_22__unordered_map_hasherIS7_S9_NS_4hashIS7_EENS_8equal_toIS7_EELb1EEENS_21__unordered_map_equalIS7_S9_SE_SC_Lb1EEENS5_IS9_EEE20__node_insert_uniqueEPNS_11__hash_nodeIS9_PvEE, symObjAddr: 0x6924, symBinAddr: 0x10000F158, symSize: 0xC4 }
  - { offsetInCU: 0xB265, offset: 0x39C2F, size: 0x8, addend: 0x0, symName: __ZNSt3__112__hash_tableINS_17__hash_value_typeINS_12basic_stringIcNS_11char_traitsIcEENS_9allocatorIcEEEE14BooleanSettingEENS_22__unordered_map_hasherIS7_S9_NS_4hashIS7_EENS_8equal_toIS7_EELb1EEENS_21__unordered_map_equalIS7_S9_SE_SC_Lb1EEENS5_IS9_EEE15__insert_uniqueB8ue170006ERKNS_4pairIKS7_S8_EE, symObjAddr: 0x69E8, symBinAddr: 0x10000F21C, symSize: 0x50 }
  - { offsetInCU: 0xB299, offset: 0x39C63, size: 0x8, addend: 0x0, symName: __ZNKSt3__110unique_ptrIA_PNS_16__hash_node_baseIPNS_11__hash_nodeINS_17__hash_value_typeINS_12basic_stringIcNS_11char_traitsIcEENS_9allocatorIcEEEE14BooleanSettingEEPvEEEENS_25__bucket_list_deallocatorINS7_ISG_EEEEE11get_deleterB8ue170006Ev, symObjAddr: 0x6A38, symBinAddr: 0x10000F26C, symSize: 0x24 }
  - { offsetInCU: 0xB2BE, offset: 0x39C88, size: 0x8, addend: 0x0, symName: __ZNKSt3__125__bucket_list_deallocatorINS_9allocatorIPNS_16__hash_node_baseIPNS_11__hash_nodeINS_17__hash_value_typeINS_12basic_stringIcNS_11char_traitsIcEENS1_IcEEEE14BooleanSettingEEPvEEEEEEE4sizeB8ue170006Ev, symObjAddr: 0x6A5C, symBinAddr: 0x10000F290, symSize: 0x28 }
  - { offsetInCU: 0xB2E3, offset: 0x39CAD, size: 0x8, addend: 0x0, symName: __ZNKSt3__117__compressed_pairIPPNS_16__hash_node_baseIPNS_11__hash_nodeINS_17__hash_value_typeINS_12basic_stringIcNS_11char_traitsIcEENS_9allocatorIcEEEE14BooleanSettingEEPvEEEENS_25__bucket_list_deallocatorINS7_ISG_EEEEE6secondB8ue170006Ev, symObjAddr: 0x6A84, symBinAddr: 0x10000F2B8, symSize: 0x28 }
  - { offsetInCU: 0xB308, offset: 0x39CD2, size: 0x8, addend: 0x0, symName: __ZNKSt3__122__compressed_pair_elemINS_25__bucket_list_deallocatorINS_9allocatorIPNS_16__hash_node_baseIPNS_11__hash_nodeINS_17__hash_value_typeINS_12basic_stringIcNS_11char_traitsIcEENS2_IcEEEE14BooleanSettingEEPvEEEEEEEELi1ELb0EE5__getB8ue170006Ev, symObjAddr: 0x6AAC, symBinAddr: 0x10000F2E0, symSize: 0x14 }
  - { offsetInCU: 0xB32D, offset: 0x39CF7, size: 0x8, addend: 0x0, symName: __ZNKSt3__117__compressed_pairImNS_9allocatorIPNS_16__hash_node_baseIPNS_11__hash_nodeINS_17__hash_value_typeINS_12basic_stringIcNS_11char_traitsIcEENS1_IcEEEE14BooleanSettingEEPvEEEEEEE5firstB8ue170006Ev, symObjAddr: 0x6AC0, symBinAddr: 0x10000F2F4, symSize: 0x24 }
  - { offsetInCU: 0xB352, offset: 0x39D1C, size: 0x8, addend: 0x0, symName: __ZNKSt3__122__compressed_pair_elemImLi0ELb0EE5__getB8ue170006Ev, symObjAddr: 0x6AE4, symBinAddr: 0x10000F318, symSize: 0x14 }
  - { offsetInCU: 0xB377, offset: 0x39D41, size: 0x8, addend: 0x0, symName: __ZNKSt3__110unique_ptrIA_PNS_16__hash_node_baseIPNS_11__hash_nodeINS_17__hash_value_typeINS_12basic_stringIcNS_11char_traitsIcEENS_9allocatorIcEEEE14BooleanSettingEEPvEEEENS_25__bucket_list_deallocatorINS7_ISG_EEEEEixB8ue170006Em, symObjAddr: 0x6AF8, symBinAddr: 0x10000F32C, symSize: 0x34 }
  - { offsetInCU: 0xB3AB, offset: 0x39D75, size: 0x8, addend: 0x0, symName: __ZNSt3__112__hash_tableINS_17__hash_value_typeINS_12basic_stringIcNS_11char_traitsIcEENS_9allocatorIcEEEE14BooleanSettingEENS_22__unordered_map_hasherIS7_S9_NS_4hashIS7_EENS_8equal_toIS7_EELb1EEENS_21__unordered_map_equalIS7_S9_SE_SC_Lb1EEENS5_IS9_EEE4sizeB8ue170006Ev, symObjAddr: 0x6B2C, symBinAddr: 0x10000F360, symSize: 0x28 }
  - { offsetInCU: 0xB3D0, offset: 0x39D9A, size: 0x8, addend: 0x0, symName: __ZNKSt3__117__compressed_pairIPPNS_16__hash_node_baseIPNS_11__hash_nodeINS_17__hash_value_typeINS_12basic_stringIcNS_11char_traitsIcEENS_9allocatorIcEEEE14BooleanSettingEEPvEEEENS_25__bucket_list_deallocatorINS7_ISG_EEEEE5firstB8ue170006Ev, symObjAddr: 0x6B54, symBinAddr: 0x10000F388, symSize: 0x24 }
  - { offsetInCU: 0xB3F5, offset: 0x39DBF, size: 0x8, addend: 0x0, symName: __ZNKSt3__122__compressed_pair_elemIPPNS_16__hash_node_baseIPNS_11__hash_nodeINS_17__hash_value_typeINS_12basic_stringIcNS_11char_traitsIcEENS_9allocatorIcEEEE14BooleanSettingEEPvEEEELi0ELb0EE5__getB8ue170006Ev, symObjAddr: 0x6B78, symBinAddr: 0x10000F3AC, symSize: 0x14 }
  - { offsetInCU: 0xB41A, offset: 0x39DE4, size: 0x8, addend: 0x0, symName: __ZNSt3__117__compressed_pairImNS_22__unordered_map_hasherINS_12basic_stringIcNS_11char_traitsIcEENS_9allocatorIcEEEENS_17__hash_value_typeIS7_14BooleanSettingEENS_4hashIS7_EENS_8equal_toIS7_EELb1EEEE5firstB8ue170006Ev, symObjAddr: 0x6B8C, symBinAddr: 0x10000F3C0, symSize: 0x24 }
  - { offsetInCU: 0xB43F, offset: 0x39E09, size: 0x8, addend: 0x0, symName: __ZNSt3__117__hash_value_typeINS_12basic_stringIcNS_11char_traitsIcEENS_9allocatorIcEEEE14BooleanSettingE5__refB8ue170006Ev, symObjAddr: 0x6BB0, symBinAddr: 0x10000F3E4, symSize: 0x44 }
  - { offsetInCU: 0xB473, offset: 0x39E3D, size: 0x8, addend: 0x0, symName: __ZNSt3__14pairIRNS_12basic_stringIcNS_11char_traitsIcEENS_9allocatorIcEEEER14BooleanSettingEaSB8ue170006IKS6_S8_LPv0EEERSA_RKNS0_IT_T0_EE, symObjAddr: 0x6BF4, symBinAddr: 0x10000F428, symSize: 0x4C }
  - { offsetInCU: 0xB4C0, offset: 0x39E8A, size: 0x8, addend: 0x0, symName: __ZNSt3__14pairIRNS_12basic_stringIcNS_11char_traitsIcEENS_9allocatorIcEEEER14BooleanSettingEC1B8ue170006ILb1ELPv0EEES7_S9_, symObjAddr: 0x6C40, symBinAddr: 0x10000F474, symSize: 0x3C }
  - { offsetInCU: 0xB515, offset: 0x39EDF, size: 0x8, addend: 0x0, symName: __ZNSt3__14pairIRNS_12basic_stringIcNS_11char_traitsIcEENS_9allocatorIcEEEER14BooleanSettingEC2B8ue170006ILb1ELPv0EEES7_S9_, symObjAddr: 0x6C7C, symBinAddr: 0x10000F4B0, symSize: 0x2C }
  - { offsetInCU: 0xB56A, offset: 0x39F34, size: 0x8, addend: 0x0, symName: __ZNSt3__112__hash_tableINS_17__hash_value_typeINS_12basic_stringIcNS_11char_traitsIcEENS_9allocatorIcEEEE14BooleanSettingEENS_22__unordered_map_hasherIS7_S9_NS_4hashIS7_EENS_8equal_toIS7_EELb1EEENS_21__unordered_map_equalIS7_S9_SE_SC_Lb1EEENS5_IS9_EEE13hash_functionB8ue170006Ev, symObjAddr: 0x6CA8, symBinAddr: 0x10000F4DC, symSize: 0x28 }
  - { offsetInCU: 0xB58F, offset: 0x39F59, size: 0x8, addend: 0x0, symName: __ZNKSt3__122__unordered_map_hasherINS_12basic_stringIcNS_11char_traitsIcEENS_9allocatorIcEEEENS_17__hash_value_typeIS6_14BooleanSettingEENS_4hashIS6_EENS_8equal_toIS6_EELb1EEclB8ue170006ERKS9_, symObjAddr: 0x6CD0, symBinAddr: 0x10000F504, symSize: 0x3C }
  - { offsetInCU: 0xB5C3, offset: 0x39F8D, size: 0x8, addend: 0x0, symName: __ZNSt3__112__hash_tableINS_17__hash_value_typeINS_12basic_stringIcNS_11char_traitsIcEENS_9allocatorIcEEEE14BooleanSettingEENS_22__unordered_map_hasherIS7_S9_NS_4hashIS7_EENS_8equal_toIS7_EELb1EEENS_21__unordered_map_equalIS7_S9_SE_SC_Lb1EEENS5_IS9_EEE28__node_insert_unique_prepareB8ue170006EmRS9_, symObjAddr: 0x6D0C, symBinAddr: 0x10000F540, symSize: 0x290 }
  - { offsetInCU: 0xB643, offset: 0x3A00D, size: 0x8, addend: 0x0, symName: __ZNKSt3__116__hash_node_baseIPNS_11__hash_nodeINS_17__hash_value_typeINS_12basic_stringIcNS_11char_traitsIcEENS_9allocatorIcEEEE14BooleanSettingEEPvEEE6__hashB8ue170006Ev, symObjAddr: 0x6F9C, symBinAddr: 0x10000F7D0, symSize: 0x18 }
  - { offsetInCU: 0xB668, offset: 0x3A032, size: 0x8, addend: 0x0, symName: __ZNSt3__112__hash_tableINS_17__hash_value_typeINS_12basic_stringIcNS_11char_traitsIcEENS_9allocatorIcEEEE14BooleanSettingEENS_22__unordered_map_hasherIS7_S9_NS_4hashIS7_EENS_8equal_toIS7_EELb1EEENS_21__unordered_map_equalIS7_S9_SE_SC_Lb1EEENS5_IS9_EEE28__node_insert_unique_performB8ue170006EPNS_11__hash_nodeIS9_PvEE, symObjAddr: 0x6FB4, symBinAddr: 0x10000F7E8, symSize: 0x154 }
  - { offsetInCU: 0xB6CB, offset: 0x3A095, size: 0x8, addend: 0x0, symName: __ZNSt3__116__hash_node_baseIPNS_11__hash_nodeINS_17__hash_value_typeINS_12basic_stringIcNS_11char_traitsIcEENS_9allocatorIcEEEE14BooleanSettingEEPvEEE5__ptrB8ue170006Ev, symObjAddr: 0x7108, symBinAddr: 0x10000F93C, symSize: 0x24 }
  - { offsetInCU: 0xB6F0, offset: 0x3A0BA, size: 0x8, addend: 0x0, symName: __ZNSt3__115__hash_iteratorIPNS_11__hash_nodeINS_17__hash_value_typeINS_12basic_stringIcNS_11char_traitsIcEENS_9allocatorIcEEEE14BooleanSettingEEPvEEEC1B8ue170006EPNS_16__hash_node_baseISD_EE, symObjAddr: 0x712C, symBinAddr: 0x10000F960, symSize: 0x34 }
  - { offsetInCU: 0xB731, offset: 0x3A0FB, size: 0x8, addend: 0x0, symName: __ZNSt3__14pairINS_15__hash_iteratorIPNS_11__hash_nodeINS_17__hash_value_typeINS_12basic_stringIcNS_11char_traitsIcEENS_9allocatorIcEEEE14BooleanSettingEEPvEEEEbEC1B8ue170006ISF_RbLSC_0EEEOT_OT0_, symObjAddr: 0x7160, symBinAddr: 0x10000F994, symSize: 0x3C }
  - { offsetInCU: 0xB78E, offset: 0x3A158, size: 0x8, addend: 0x0, symName: __ZNSt3__117__compressed_pairImNS_22__unordered_map_hasherINS_12basic_stringIcNS_11char_traitsIcEENS_9allocatorIcEEEENS_17__hash_value_typeIS7_14BooleanSettingEENS_4hashIS7_EENS_8equal_toIS7_EELb1EEEE6secondB8ue170006Ev, symObjAddr: 0x719C, symBinAddr: 0x10000F9D0, symSize: 0x24 }
  - { offsetInCU: 0xB7B3, offset: 0x3A17D, size: 0x8, addend: 0x0, symName: __ZNSt3__122__compressed_pair_elemINS_22__unordered_map_hasherINS_12basic_stringIcNS_11char_traitsIcEENS_9allocatorIcEEEENS_17__hash_value_typeIS7_14BooleanSettingEENS_4hashIS7_EENS_8equal_toIS7_EELb1EEELi1ELb1EE5__getB8ue170006Ev, symObjAddr: 0x71C0, symBinAddr: 0x10000F9F4, symSize: 0x14 }
  - { offsetInCU: 0xB7D8, offset: 0x3A1A2, size: 0x8, addend: 0x0, symName: __ZNKSt3__113__string_hashIcNS_9allocatorIcEEEclB8ue170006ERKNS_12basic_stringIcNS_11char_traitsIcEES2_EE, symObjAddr: 0x71D4, symBinAddr: 0x10000FA08, symSize: 0x64 }
  - { offsetInCU: 0xB80C, offset: 0x3A1D6, size: 0x8, addend: 0x0, symName: __ZNKSt3__117__hash_value_typeINS_12basic_stringIcNS_11char_traitsIcEENS_9allocatorIcEEEE14BooleanSettingE11__get_valueB8ue170006Ev, symObjAddr: 0x7238, symBinAddr: 0x10000FA6C, symSize: 0x24 }
  - { offsetInCU: 0xB831, offset: 0x3A1FB, size: 0x8, addend: 0x0, symName: __ZNKSt3__121__murmur2_or_cityhashImLm64EEclB8ue170006EPKvm, symObjAddr: 0x7314, symBinAddr: 0x10000FACC, symSize: 0x410 }
  - { offsetInCU: 0xB8CA, offset: 0x3A294, size: 0x8, addend: 0x0, symName: __ZNSt3__121__murmur2_or_cityhashImLm64EE18__hash_len_0_to_16B8ue170006EPKcm, symObjAddr: 0x7724, symBinAddr: 0x10000FEDC, symSize: 0x1C0 }
  - { offsetInCU: 0xB9A3, offset: 0x3A36D, size: 0x8, addend: 0x0, symName: __ZNSt3__121__murmur2_or_cityhashImLm64EE19__hash_len_17_to_32B8ue170006EPKcm, symObjAddr: 0x78E4, symBinAddr: 0x10001009C, symSize: 0x130 }
  - { offsetInCU: 0xBA0C, offset: 0x3A3D6, size: 0x8, addend: 0x0, symName: __ZNSt3__121__murmur2_or_cityhashImLm64EE19__hash_len_33_to_64B8ue170006EPKcm, symObjAddr: 0x7A14, symBinAddr: 0x1000101CC, symSize: 0x2B8 }
  - { offsetInCU: 0xBAC1, offset: 0x3A48B, size: 0x8, addend: 0x0, symName: __ZNSt3__121__murmur2_or_cityhashImLm64EE13__hash_len_16B8ue170006Emm, symObjAddr: 0x7CEC, symBinAddr: 0x1000104A4, symSize: 0x80 }
  - { offsetInCU: 0xBB1C, offset: 0x3A4E6, size: 0x8, addend: 0x0, symName: __ZNSt3__121__murmur2_or_cityhashImLm64EE29__weak_hash_len_32_with_seedsB8ue170006EPKcmm, symObjAddr: 0x7D6C, symBinAddr: 0x100010524, symSize: 0x88 }
  - { offsetInCU: 0xBB5B, offset: 0x3A525, size: 0x8, addend: 0x0, symName: __ZNSt3__121__murmur2_or_cityhashImLm64EE8__rotateB8ue170006Emi, symObjAddr: 0x7DF4, symBinAddr: 0x1000105AC, symSize: 0x64 }
  - { offsetInCU: 0xBB8C, offset: 0x3A556, size: 0x8, addend: 0x0, symName: __ZNSt3__14pairImmEaSB8ue170006EOS1_, symObjAddr: 0x7E58, symBinAddr: 0x100010610, symSize: 0x30 }
  - { offsetInCU: 0xBBC0, offset: 0x3A58A, size: 0x8, addend: 0x0, symName: __ZNSt3__121__murmur2_or_cityhashImLm64EE11__shift_mixB8ue170006Em, symObjAddr: 0x7EC4, symBinAddr: 0x10001067C, symSize: 0x1C }
  - { offsetInCU: 0xBBE3, offset: 0x3A5AD, size: 0x8, addend: 0x0, symName: __ZNSt3__121__murmur2_or_cityhashImLm64EE22__rotate_by_at_least_1B8ue170006Emi, symObjAddr: 0x7EE0, symBinAddr: 0x100010698, symSize: 0x38 }
  - { offsetInCU: 0xBC14, offset: 0x3A5DE, size: 0x8, addend: 0x0, symName: __ZNSt3__121__murmur2_or_cityhashImLm64EE29__weak_hash_len_32_with_seedsB8ue170006Emmmmmm, symObjAddr: 0x7F38, symBinAddr: 0x1000106F0, symSize: 0xD8 }
  - { offsetInCU: 0xBC90, offset: 0x3A65A, size: 0x8, addend: 0x0, symName: __ZNSt3__14pairImmEC1B8ue170006ImmLPv0EEEOT_OT0_, symObjAddr: 0x8010, symBinAddr: 0x1000107C8, symSize: 0x3C }
  - { offsetInCU: 0xBCED, offset: 0x3A6B7, size: 0x8, addend: 0x0, symName: __ZNSt3__14pairImmEC2B8ue170006ImmLPv0EEEOT_OT0_, symObjAddr: 0x804C, symBinAddr: 0x100010804, symSize: 0x34 }
  - { offsetInCU: 0xBD4A, offset: 0x3A714, size: 0x8, addend: 0x0, symName: __ZNSt3__112__hash_tableINS_17__hash_value_typeINS_12basic_stringIcNS_11char_traitsIcEENS_9allocatorIcEEEE14BooleanSettingEENS_22__unordered_map_hasherIS7_S9_NS_4hashIS7_EENS_8equal_toIS7_EELb1EEENS_21__unordered_map_equalIS7_S9_SE_SC_Lb1EEENS5_IS9_EEE6key_eqB8ue170006Ev, symObjAddr: 0x82E8, symBinAddr: 0x100010908, symSize: 0x28 }
  - { offsetInCU: 0xBD6F, offset: 0x3A739, size: 0x8, addend: 0x0, symName: __ZNKSt3__121__unordered_map_equalINS_12basic_stringIcNS_11char_traitsIcEENS_9allocatorIcEEEENS_17__hash_value_typeIS6_14BooleanSettingEENS_8equal_toIS6_EENS_4hashIS6_EELb1EEclB8ue170006ERKS9_SG_, symObjAddr: 0x8310, symBinAddr: 0x100010930, symSize: 0x54 }
  - { offsetInCU: 0xBDB2, offset: 0x3A77C, size: 0x8, addend: 0x0, symName: __ZNSt3__112__hash_tableINS_17__hash_value_typeINS_12basic_stringIcNS_11char_traitsIcEENS_9allocatorIcEEEE14BooleanSettingEENS_22__unordered_map_hasherIS7_S9_NS_4hashIS7_EENS_8equal_toIS7_EELb1EEENS_21__unordered_map_equalIS7_S9_SE_SC_Lb1EEENS5_IS9_EEE15max_load_factorB8ue170006Ev, symObjAddr: 0x8364, symBinAddr: 0x100010984, symSize: 0x28 }
  - { offsetInCU: 0xBDD7, offset: 0x3A7A1, size: 0x8, addend: 0x0, symName: __ZNSt3__112__hash_tableINS_17__hash_value_typeINS_12basic_stringIcNS_11char_traitsIcEENS_9allocatorIcEEEE14BooleanSettingEENS_22__unordered_map_hasherIS7_S9_NS_4hashIS7_EENS_8equal_toIS7_EELb1EEENS_21__unordered_map_equalIS7_S9_SE_SC_Lb1EEENS5_IS9_EEE15__rehash_uniqueB8ue170006Em, symObjAddr: 0x838C, symBinAddr: 0x1000109AC, symSize: 0x2C }
  - { offsetInCU: 0xBE0B, offset: 0x3A7D5, size: 0x8, addend: 0x0, symName: __ZNSt3__117__compressed_pairIfNS_21__unordered_map_equalINS_12basic_stringIcNS_11char_traitsIcEENS_9allocatorIcEEEENS_17__hash_value_typeIS7_14BooleanSettingEENS_8equal_toIS7_EENS_4hashIS7_EELb1EEEE6secondB8ue170006Ev, symObjAddr: 0x8420, symBinAddr: 0x100010A28, symSize: 0x24 }
  - { offsetInCU: 0xBE30, offset: 0x3A7FA, size: 0x8, addend: 0x0, symName: __ZNSt3__122__compressed_pair_elemINS_21__unordered_map_equalINS_12basic_stringIcNS_11char_traitsIcEENS_9allocatorIcEEEENS_17__hash_value_typeIS7_14BooleanSettingEENS_8equal_toIS7_EENS_4hashIS7_EELb1EEELi1ELb1EE5__getB8ue170006Ev, symObjAddr: 0x8444, symBinAddr: 0x100010A4C, symSize: 0x14 }
  - { offsetInCU: 0xBE55, offset: 0x3A81F, size: 0x8, addend: 0x0, symName: __ZNKSt3__18equal_toINS_12basic_stringIcNS_11char_traitsIcEENS_9allocatorIcEEEEEclB8ue170006ERKS6_S9_, symObjAddr: 0x8458, symBinAddr: 0x100010A60, symSize: 0x34 }
  - { offsetInCU: 0xBE98, offset: 0x3A862, size: 0x8, addend: 0x0, symName: __ZNSt3__111char_traitsIcE7compareB8ue170006EPKcS3_m, symObjAddr: 0x85D4, symBinAddr: 0x100010BDC, symSize: 0x34 }
  - { offsetInCU: 0xBED7, offset: 0x3A8A1, size: 0x8, addend: 0x0, symName: __ZNSt3__117__compressed_pairIfNS_21__unordered_map_equalINS_12basic_stringIcNS_11char_traitsIcEENS_9allocatorIcEEEENS_17__hash_value_typeIS7_14BooleanSettingEENS_8equal_toIS7_EENS_4hashIS7_EELb1EEEE5firstB8ue170006Ev, symObjAddr: 0x8608, symBinAddr: 0x100010C10, symSize: 0x24 }
  - { offsetInCU: 0xBEFC, offset: 0x3A8C6, size: 0x8, addend: 0x0, symName: __ZNSt3__122__compressed_pair_elemIfLi0ELb0EE5__getB8ue170006Ev, symObjAddr: 0x862C, symBinAddr: 0x100010C34, symSize: 0x14 }
  - { offsetInCU: 0xBF21, offset: 0x3A8EB, size: 0x8, addend: 0x0, symName: __ZNSt3__112__hash_tableINS_17__hash_value_typeINS_12basic_stringIcNS_11char_traitsIcEENS_9allocatorIcEEEE14BooleanSettingEENS_22__unordered_map_hasherIS7_S9_NS_4hashIS7_EENS_8equal_toIS7_EELb1EEENS_21__unordered_map_equalIS7_S9_SE_SC_Lb1EEENS5_IS9_EEE8__rehashILb1EEEvm, symObjAddr: 0x8640, symBinAddr: 0x100010C48, symSize: 0x1A8 }
  - { offsetInCU: 0xBF70, offset: 0x3A93A, size: 0x8, addend: 0x0, symName: __ZNSt3__112__hash_tableINS_17__hash_value_typeINS_12basic_stringIcNS_11char_traitsIcEENS_9allocatorIcEEEE14BooleanSettingEENS_22__unordered_map_hasherIS7_S9_NS_4hashIS7_EENS_8equal_toIS7_EELb1EEENS_21__unordered_map_equalIS7_S9_SE_SC_Lb1EEENS5_IS9_EEE11__do_rehashILb1EEEvm, symObjAddr: 0x87E8, symBinAddr: 0x100010DF0, symSize: 0x288 }
  - { offsetInCU: 0xC052, offset: 0x3AA1C, size: 0x8, addend: 0x0, symName: __ZNSt3__110unique_ptrIA_PNS_16__hash_node_baseIPNS_11__hash_nodeINS_17__hash_value_typeINS_12basic_stringIcNS_11char_traitsIcEENS_9allocatorIcEEEE14BooleanSettingEEPvEEEENS_25__bucket_list_deallocatorINS7_ISG_EEEEE11get_deleterB8ue170006Ev, symObjAddr: 0x8ADC, symBinAddr: 0x1000110E4, symSize: 0x24 }
  - { offsetInCU: 0xC077, offset: 0x3AA41, size: 0x8, addend: 0x0, symName: __ZNSt3__110unique_ptrIA_PNS_16__hash_node_baseIPNS_11__hash_nodeINS_17__hash_value_typeINS_12basic_stringIcNS_11char_traitsIcEENS_9allocatorIcEEEE14BooleanSettingEEPvEEEENS_25__bucket_list_deallocatorINS7_ISG_EEEEE5resetB8ue170006IPSG_EENS_9enable_ifIXsr28_CheckArrayPointerConversionIT_EE5valueEvE4typeESP_, symObjAddr: 0x8B00, symBinAddr: 0x100011108, symSize: 0x78 }
  - { offsetInCU: 0xC0C3, offset: 0x3AA8D, size: 0x8, addend: 0x0, symName: __ZNSt3__116allocator_traitsINS_9allocatorIPNS_16__hash_node_baseIPNS_11__hash_nodeINS_17__hash_value_typeINS_12basic_stringIcNS_11char_traitsIcEENS1_IcEEEE14BooleanSettingEEPvEEEEEEE8allocateB8ue170006ERSH_m, symObjAddr: 0x8B78, symBinAddr: 0x100011180, symSize: 0x2C }
  - { offsetInCU: 0xC0F6, offset: 0x3AAC0, size: 0x8, addend: 0x0, symName: __ZNSt3__19allocatorIPNS_16__hash_node_baseIPNS_11__hash_nodeINS_17__hash_value_typeINS_12basic_stringIcNS_11char_traitsIcEENS0_IcEEEE14BooleanSettingEEPvEEEEE8allocateB8ue170006Em, symObjAddr: 0x8BA4, symBinAddr: 0x1000111AC, symSize: 0x58 }
  - { offsetInCU: 0xC133, offset: 0x3AAFD, size: 0x8, addend: 0x0, symName: __ZNSt3__116allocator_traitsINS_9allocatorIPNS_16__hash_node_baseIPNS_11__hash_nodeINS_17__hash_value_typeINS_12basic_stringIcNS_11char_traitsIcEENS1_IcEEEE14BooleanSettingEEPvEEEEEEE8max_sizeB8ue170006ISH_vvEEmRKSH_, symObjAddr: 0x8BFC, symBinAddr: 0x100011204, symSize: 0x28 }
  - { offsetInCU: 0xC15E, offset: 0x3AB28, size: 0x8, addend: 0x0, symName: __ZNSt3__115__hash_iteratorIPNS_11__hash_nodeINS_17__hash_value_typeINS_12basic_stringIcNS_11char_traitsIcEENS_9allocatorIcEEEE14BooleanSettingEEPvEEEC2B8ue170006EPNS_16__hash_node_baseISD_EE, symObjAddr: 0x8C40, symBinAddr: 0x100011248, symSize: 0x20 }
  - { offsetInCU: 0xC195, offset: 0x3AB5F, size: 0x8, addend: 0x0, symName: __ZNSt3__14pairINS_15__hash_iteratorIPNS_11__hash_nodeINS_17__hash_value_typeINS_12basic_stringIcNS_11char_traitsIcEENS_9allocatorIcEEEE14BooleanSettingEEPvEEEEbEC2B8ue170006ISF_RbLSC_0EEEOT_OT0_, symObjAddr: 0x8C60, symBinAddr: 0x100011268, symSize: 0x38 }
  - { offsetInCU: 0xC1F2, offset: 0x3ABBC, size: 0x8, addend: 0x0, symName: __ZNSt3__112__hash_tableINS_17__hash_value_typeINS_12basic_stringIcNS_11char_traitsIcEENS_9allocatorIcEEEE14BooleanSettingEENS_22__unordered_map_hasherIS7_S9_NS_4hashIS7_EENS_8equal_toIS7_EELb1EEENS_21__unordered_map_equalIS7_S9_SE_SC_Lb1EEENS5_IS9_EEE25__emplace_unique_key_argsIS7_JRKNS_4pairIKS7_S8_EEEEENSL_INS_15__hash_iteratorIPNS_11__hash_nodeIS9_PvEEEEbEERKT_DpOT0_, symObjAddr: 0x8C98, symBinAddr: 0x1000112A0, symSize: 0x4A0 }
  - { offsetInCU: 0xC2D1, offset: 0x3AC9B, size: 0x8, addend: 0x0, symName: __ZNSt3__122__hash_key_value_typesINS_17__hash_value_typeINS_12basic_stringIcNS_11char_traitsIcEENS_9allocatorIcEEEE14BooleanSettingEEE9__get_keyB8ue170006ERKNS_4pairIKS7_S8_EE, symObjAddr: 0x9138, symBinAddr: 0x100011740, symSize: 0x14 }
  - { offsetInCU: 0xC2F4, offset: 0x3ACBE, size: 0x8, addend: 0x0, symName: __ZNKSt3__122__unordered_map_hasherINS_12basic_stringIcNS_11char_traitsIcEENS_9allocatorIcEEEENS_17__hash_value_typeIS6_14BooleanSettingEENS_4hashIS6_EENS_8equal_toIS6_EELb1EEclB8ue170006ERKS6_, symObjAddr: 0x914C, symBinAddr: 0x100011754, symSize: 0x2C }
  - { offsetInCU: 0xC328, offset: 0x3ACF2, size: 0x8, addend: 0x0, symName: __ZNKSt3__121__unordered_map_equalINS_12basic_stringIcNS_11char_traitsIcEENS_9allocatorIcEEEENS_17__hash_value_typeIS6_14BooleanSettingEENS_8equal_toIS6_EENS_4hashIS6_EELb1EEclB8ue170006ERKS9_RKS6_, symObjAddr: 0x9178, symBinAddr: 0x100011780, symSize: 0x48 }
  - { offsetInCU: 0xC36B, offset: 0x3AD35, size: 0x8, addend: 0x0, symName: __ZNSt3__112__hash_tableINS_17__hash_value_typeINS_12basic_stringIcNS_11char_traitsIcEENS_9allocatorIcEEEE14BooleanSettingEENS_22__unordered_map_hasherIS7_S9_NS_4hashIS7_EENS_8equal_toIS7_EELb1EEENS_21__unordered_map_equalIS7_S9_SE_SC_Lb1EEENS5_IS9_EEE21__construct_node_hashIRKNS_4pairIKS7_S8_EEJEEENS_10unique_ptrINS_11__hash_nodeIS9_PvEENS_22__hash_node_destructorINS5_IST_EEEEEEmOT_DpOT0_, symObjAddr: 0x91C0, symBinAddr: 0x1000117C8, symSize: 0x140 }
  - { offsetInCU: 0xC3DD, offset: 0x3ADA7, size: 0x8, addend: 0x0, symName: __ZNKSt3__110unique_ptrINS_11__hash_nodeINS_17__hash_value_typeINS_12basic_stringIcNS_11char_traitsIcEENS_9allocatorIcEEEE14BooleanSettingEEPvEENS_22__hash_node_destructorINS6_ISC_EEEEEptB8ue170006Ev, symObjAddr: 0x9300, symBinAddr: 0x100011908, symSize: 0x28 }
  - { offsetInCU: 0xC402, offset: 0x3ADCC, size: 0x8, addend: 0x0, symName: __ZNKSt3__110unique_ptrINS_11__hash_nodeINS_17__hash_value_typeINS_12basic_stringIcNS_11char_traitsIcEENS_9allocatorIcEEEE14BooleanSettingEEPvEENS_22__hash_node_destructorINS6_ISC_EEEEE3getB8ue170006Ev, symObjAddr: 0x9328, symBinAddr: 0x100011930, symSize: 0x28 }
  - { offsetInCU: 0xC427, offset: 0x3ADF1, size: 0x8, addend: 0x0, symName: __ZNSt3__110unique_ptrINS_11__hash_nodeINS_17__hash_value_typeINS_12basic_stringIcNS_11char_traitsIcEENS_9allocatorIcEEEE14BooleanSettingEEPvEENS_22__hash_node_destructorINS6_ISC_EEEEE7releaseB8ue170006Ev, symObjAddr: 0x9350, symBinAddr: 0x100011958, symSize: 0x44 }
  - { offsetInCU: 0xC45B, offset: 0x3AE25, size: 0x8, addend: 0x0, symName: __ZNSt3__110unique_ptrINS_11__hash_nodeINS_17__hash_value_typeINS_12basic_stringIcNS_11char_traitsIcEENS_9allocatorIcEEEE14BooleanSettingEEPvEENS_22__hash_node_destructorINS6_ISC_EEEEED1B8ue170006Ev, symObjAddr: 0x9394, symBinAddr: 0x10001199C, symSize: 0x2C }
  - { offsetInCU: 0xC483, offset: 0x3AE4D, size: 0x8, addend: 0x0, symName: __ZNSt3__116allocator_traitsINS_9allocatorINS_11__hash_nodeINS_17__hash_value_typeINS_12basic_stringIcNS_11char_traitsIcEENS1_IcEEEE14BooleanSettingEEPvEEEEE8allocateB8ue170006ERSD_m, symObjAddr: 0x93C0, symBinAddr: 0x1000119C8, symSize: 0x2C }
  - { offsetInCU: 0xC4B6, offset: 0x3AE80, size: 0x8, addend: 0x0, symName: __ZNSt3__122__hash_node_destructorINS_9allocatorINS_11__hash_nodeINS_17__hash_value_typeINS_12basic_stringIcNS_11char_traitsIcEENS1_IcEEEE14BooleanSettingEEPvEEEEEC1B8ue170006ERSD_b, symObjAddr: 0x93EC, symBinAddr: 0x1000119F4, symSize: 0x48 }
  - { offsetInCU: 0xC501, offset: 0x3AECB, size: 0x8, addend: 0x0, symName: __ZNSt3__110unique_ptrINS_11__hash_nodeINS_17__hash_value_typeINS_12basic_stringIcNS_11char_traitsIcEENS_9allocatorIcEEEE14BooleanSettingEEPvEENS_22__hash_node_destructorINS6_ISC_EEEEEC1B8ue170006ILb1EvEEPSC_NS_16__dependent_typeINS_27__unique_ptr_deleter_sfinaeISF_EEXT_EE20__good_rval_ref_typeE, symObjAddr: 0x9434, symBinAddr: 0x100011A3C, symSize: 0x3C }
  - { offsetInCU: 0xC550, offset: 0x3AF1A, size: 0x8, addend: 0x0, symName: __ZNSt3__116allocator_traitsINS_9allocatorINS_11__hash_nodeINS_17__hash_value_typeINS_12basic_stringIcNS_11char_traitsIcEENS1_IcEEEE14BooleanSettingEEPvEEEEE9constructB8ue170006INS_4pairIKS8_S9_EEJRKSI_EvvEEvRSD_PT_DpOT0_, symObjAddr: 0x9470, symBinAddr: 0x100011A78, symSize: 0x30 }
  - { offsetInCU: 0xC5A4, offset: 0x3AF6E, size: 0x8, addend: 0x0, symName: __ZNSt3__110unique_ptrINS_11__hash_nodeINS_17__hash_value_typeINS_12basic_stringIcNS_11char_traitsIcEENS_9allocatorIcEEEE14BooleanSettingEEPvEENS_22__hash_node_destructorINS6_ISC_EEEEE11get_deleterB8ue170006Ev, symObjAddr: 0x94A0, symBinAddr: 0x100011AA8, symSize: 0x24 }
  - { offsetInCU: 0xC5C9, offset: 0x3AF93, size: 0x8, addend: 0x0, symName: __ZNSt3__19allocatorINS_11__hash_nodeINS_17__hash_value_typeINS_12basic_stringIcNS_11char_traitsIcEENS0_IcEEEE14BooleanSettingEEPvEEE8allocateB8ue170006Em, symObjAddr: 0x94C4, symBinAddr: 0x100011ACC, symSize: 0x5C }
  - { offsetInCU: 0xC606, offset: 0x3AFD0, size: 0x8, addend: 0x0, symName: __ZNSt3__116allocator_traitsINS_9allocatorINS_11__hash_nodeINS_17__hash_value_typeINS_12basic_stringIcNS_11char_traitsIcEENS1_IcEEEE14BooleanSettingEEPvEEEEE8max_sizeB8ue170006ISD_vvEEmRKSD_, symObjAddr: 0x9520, symBinAddr: 0x100011B28, symSize: 0x28 }
  - { offsetInCU: 0xC631, offset: 0x3AFFB, size: 0x8, addend: 0x0, symName: __ZNSt3__122__hash_node_destructorINS_9allocatorINS_11__hash_nodeINS_17__hash_value_typeINS_12basic_stringIcNS_11char_traitsIcEENS1_IcEEEE14BooleanSettingEEPvEEEEEC2B8ue170006ERSD_b, symObjAddr: 0x9548, symBinAddr: 0x100011B50, symSize: 0x38 }
  - { offsetInCU: 0xC677, offset: 0x3B041, size: 0x8, addend: 0x0, symName: __ZNSt3__110unique_ptrINS_11__hash_nodeINS_17__hash_value_typeINS_12basic_stringIcNS_11char_traitsIcEENS_9allocatorIcEEEE14BooleanSettingEEPvEENS_22__hash_node_destructorINS6_ISC_EEEEEC2B8ue170006ILb1EvEEPSC_NS_16__dependent_typeINS_27__unique_ptr_deleter_sfinaeISF_EEXT_EE20__good_rval_ref_typeE, symObjAddr: 0x9580, symBinAddr: 0x100011B88, symSize: 0x48 }
  - { offsetInCU: 0xC6C6, offset: 0x3B090, size: 0x8, addend: 0x0, symName: __ZNSt3__117__compressed_pairIPNS_11__hash_nodeINS_17__hash_value_typeINS_12basic_stringIcNS_11char_traitsIcEENS_9allocatorIcEEEE14BooleanSettingEEPvEENS_22__hash_node_destructorINS6_ISC_EEEEEC1B8ue170006IRSD_SG_EEOT_OT0_, symObjAddr: 0x95C8, symBinAddr: 0x100011BD0, symSize: 0x3C }
  - { offsetInCU: 0xC71C, offset: 0x3B0E6, size: 0x8, addend: 0x0, symName: __ZNSt3__117__compressed_pairIPNS_11__hash_nodeINS_17__hash_value_typeINS_12basic_stringIcNS_11char_traitsIcEENS_9allocatorIcEEEE14BooleanSettingEEPvEENS_22__hash_node_destructorINS6_ISC_EEEEEC2B8ue170006IRSD_SG_EEOT_OT0_, symObjAddr: 0x9604, symBinAddr: 0x100011C0C, symSize: 0x48 }
  - { offsetInCU: 0xC772, offset: 0x3B13C, size: 0x8, addend: 0x0, symName: __ZNSt3__122__compressed_pair_elemIPNS_11__hash_nodeINS_17__hash_value_typeINS_12basic_stringIcNS_11char_traitsIcEENS_9allocatorIcEEEE14BooleanSettingEEPvEELi0ELb0EEC2B8ue170006IRSD_vEEOT_, symObjAddr: 0x964C, symBinAddr: 0x100011C54, symSize: 0x24 }
  - { offsetInCU: 0xC7B2, offset: 0x3B17C, size: 0x8, addend: 0x0, symName: __ZNSt3__122__compressed_pair_elemINS_22__hash_node_destructorINS_9allocatorINS_11__hash_nodeINS_17__hash_value_typeINS_12basic_stringIcNS_11char_traitsIcEENS2_IcEEEE14BooleanSettingEEPvEEEEEELi1ELb0EEC2B8ue170006ISF_vEEOT_, symObjAddr: 0x9670, symBinAddr: 0x100011C78, symSize: 0x24 }
  - { offsetInCU: 0xC7F2, offset: 0x3B1BC, size: 0x8, addend: 0x0, symName: __ZNSt3__14pairIKNS_12basic_stringIcNS_11char_traitsIcEENS_9allocatorIcEEEE14BooleanSettingEC1B8ue170006ERKS9_, symObjAddr: 0x96D0, symBinAddr: 0x100011CD8, symSize: 0x34 }
  - { offsetInCU: 0xC825, offset: 0x3B1EF, size: 0x8, addend: 0x0, symName: __ZNSt3__14pairIKNS_12basic_stringIcNS_11char_traitsIcEENS_9allocatorIcEEEE14BooleanSettingEC2B8ue170006ERKS9_, symObjAddr: 0x9704, symBinAddr: 0x100011D0C, symSize: 0x70 }
  - { offsetInCU: 0xC858, offset: 0x3B222, size: 0x8, addend: 0x0, symName: __ZNSt3__117__compressed_pairIPNS_11__hash_nodeINS_17__hash_value_typeINS_12basic_stringIcNS_11char_traitsIcEENS_9allocatorIcEEEE14BooleanSettingEEPvEENS_22__hash_node_destructorINS6_ISC_EEEEE6secondB8ue170006Ev, symObjAddr: 0x9774, symBinAddr: 0x100011D7C, symSize: 0x28 }
  - { offsetInCU: 0xC87D, offset: 0x3B247, size: 0x8, addend: 0x0, symName: __ZNSt3__122__compressed_pair_elemINS_22__hash_node_destructorINS_9allocatorINS_11__hash_nodeINS_17__hash_value_typeINS_12basic_stringIcNS_11char_traitsIcEENS2_IcEEEE14BooleanSettingEEPvEEEEEELi1ELb0EE5__getB8ue170006Ev, symObjAddr: 0x979C, symBinAddr: 0x100011DA4, symSize: 0x14 }
  - { offsetInCU: 0xC8A2, offset: 0x3B26C, size: 0x8, addend: 0x0, symName: __ZNKSt3__117__compressed_pairIPNS_11__hash_nodeINS_17__hash_value_typeINS_12basic_stringIcNS_11char_traitsIcEENS_9allocatorIcEEEE14BooleanSettingEEPvEENS_22__hash_node_destructorINS6_ISC_EEEEE5firstB8ue170006Ev, symObjAddr: 0x97B0, symBinAddr: 0x100011DB8, symSize: 0x24 }
  - { offsetInCU: 0xC8C7, offset: 0x3B291, size: 0x8, addend: 0x0, symName: __ZNKSt3__122__compressed_pair_elemIPNS_11__hash_nodeINS_17__hash_value_typeINS_12basic_stringIcNS_11char_traitsIcEENS_9allocatorIcEEEE14BooleanSettingEEPvEELi0ELb0EE5__getB8ue170006Ev, symObjAddr: 0x97D4, symBinAddr: 0x100011DDC, symSize: 0x14 }
  - { offsetInCU: 0xC8EC, offset: 0x3B2B6, size: 0x8, addend: 0x0, symName: __ZNSt3__117__compressed_pairIPNS_11__hash_nodeINS_17__hash_value_typeINS_12basic_stringIcNS_11char_traitsIcEENS_9allocatorIcEEEE14BooleanSettingEEPvEENS_22__hash_node_destructorINS6_ISC_EEEEE5firstB8ue170006Ev, symObjAddr: 0x97E8, symBinAddr: 0x100011DF0, symSize: 0x24 }
  - { offsetInCU: 0xC911, offset: 0x3B2DB, size: 0x8, addend: 0x0, symName: __ZNSt3__122__compressed_pair_elemIPNS_11__hash_nodeINS_17__hash_value_typeINS_12basic_stringIcNS_11char_traitsIcEENS_9allocatorIcEEEE14BooleanSettingEEPvEELi0ELb0EE5__getB8ue170006Ev, symObjAddr: 0x980C, symBinAddr: 0x100011E14, symSize: 0x14 }
  - { offsetInCU: 0xC936, offset: 0x3B300, size: 0x8, addend: 0x0, symName: __ZNSt3__110unique_ptrINS_11__hash_nodeINS_17__hash_value_typeINS_12basic_stringIcNS_11char_traitsIcEENS_9allocatorIcEEEE14BooleanSettingEEPvEENS_22__hash_node_destructorINS6_ISC_EEEEED2B8ue170006Ev, symObjAddr: 0x9820, symBinAddr: 0x100011E28, symSize: 0x30 }
  - { offsetInCU: 0xC95E, offset: 0x3B328, size: 0x8, addend: 0x0, symName: __ZNSt3__110unique_ptrINS_11__hash_nodeINS_17__hash_value_typeINS_12basic_stringIcNS_11char_traitsIcEENS_9allocatorIcEEEE14BooleanSettingEEPvEENS_22__hash_node_destructorINS6_ISC_EEEEE5resetB8ue170006EPSC_, symObjAddr: 0x9850, symBinAddr: 0x100011E58, symSize: 0x78 }
  - { offsetInCU: 0xC9A1, offset: 0x3B36B, size: 0x8, addend: 0x0, symName: __ZNSt3__122__hash_node_destructorINS_9allocatorINS_11__hash_nodeINS_17__hash_value_typeINS_12basic_stringIcNS_11char_traitsIcEENS1_IcEEEE14BooleanSettingEEPvEEEEEclB8ue170006EPSC_, symObjAddr: 0x98C8, symBinAddr: 0x100011ED0, symSize: 0x98 }
  - { offsetInCU: 0xC9D5, offset: 0x3B39F, size: 0x8, addend: 0x0, symName: __ZNKSt3__113unordered_mapINS_12basic_stringIcNS_11char_traitsIcEENS_9allocatorIcEEEE14BooleanSettingNS_4hashIS6_EENS_8equal_toIS6_EENS4_INS_4pairIKS6_S7_EEEEE4findB8ue170006ERSD_, symObjAddr: 0x9990, symBinAddr: 0x100011F98, symSize: 0x40 }
  - { offsetInCU: 0xCA09, offset: 0x3B3D3, size: 0x8, addend: 0x0, symName: __ZNKSt3__113unordered_mapINS_12basic_stringIcNS_11char_traitsIcEENS_9allocatorIcEEEE14BooleanSettingNS_4hashIS6_EENS_8equal_toIS6_EENS4_INS_4pairIKS6_S7_EEEEE3endB8ue170006Ev, symObjAddr: 0x99D0, symBinAddr: 0x100011FD8, symSize: 0x38 }
  - { offsetInCU: 0xCA2E, offset: 0x3B3F8, size: 0x8, addend: 0x0, symName: __ZNKSt3__112__hash_tableINS_17__hash_value_typeINS_12basic_stringIcNS_11char_traitsIcEENS_9allocatorIcEEEE14BooleanSettingEENS_22__unordered_map_hasherIS7_S9_NS_4hashIS7_EENS_8equal_toIS7_EELb1EEENS_21__unordered_map_equalIS7_S9_SE_SC_Lb1EEENS5_IS9_EEE4findIS7_EENS_21__hash_const_iteratorIPNS_11__hash_nodeIS9_PvEEEERKT_, symObjAddr: 0x9A38, symBinAddr: 0x100012040, symSize: 0x1B8 }
  - { offsetInCU: 0xCAB7, offset: 0x3B481, size: 0x8, addend: 0x0, symName: __ZNSt3__125__hash_map_const_iteratorINS_21__hash_const_iteratorIPNS_11__hash_nodeINS_17__hash_value_typeINS_12basic_stringIcNS_11char_traitsIcEENS_9allocatorIcEEEE14BooleanSettingEEPvEEEEEC1B8ue170006ESF_, symObjAddr: 0x9BF0, symBinAddr: 0x1000121F8, symSize: 0x34 }
  - { offsetInCU: 0xCAEE, offset: 0x3B4B8, size: 0x8, addend: 0x0, symName: __ZNKSt3__112__hash_tableINS_17__hash_value_typeINS_12basic_stringIcNS_11char_traitsIcEENS_9allocatorIcEEEE14BooleanSettingEENS_22__unordered_map_hasherIS7_S9_NS_4hashIS7_EENS_8equal_toIS7_EELb1EEENS_21__unordered_map_equalIS7_S9_SE_SC_Lb1EEENS5_IS9_EEE13hash_functionB8ue170006Ev, symObjAddr: 0x9C24, symBinAddr: 0x10001222C, symSize: 0x28 }
  - { offsetInCU: 0xCB13, offset: 0x3B4DD, size: 0x8, addend: 0x0, symName: __ZNKSt3__112__hash_tableINS_17__hash_value_typeINS_12basic_stringIcNS_11char_traitsIcEENS_9allocatorIcEEEE14BooleanSettingEENS_22__unordered_map_hasherIS7_S9_NS_4hashIS7_EENS_8equal_toIS7_EELb1EEENS_21__unordered_map_equalIS7_S9_SE_SC_Lb1EEENS5_IS9_EEE6key_eqB8ue170006Ev, symObjAddr: 0x9C4C, symBinAddr: 0x100012254, symSize: 0x28 }
  - { offsetInCU: 0xCB38, offset: 0x3B502, size: 0x8, addend: 0x0, symName: __ZNSt3__121__hash_const_iteratorIPNS_11__hash_nodeINS_17__hash_value_typeINS_12basic_stringIcNS_11char_traitsIcEENS_9allocatorIcEEEE14BooleanSettingEEPvEEEC1B8ue170006EPNS_16__hash_node_baseISD_EE, symObjAddr: 0x9C74, symBinAddr: 0x10001227C, symSize: 0x34 }
  - { offsetInCU: 0xCB6F, offset: 0x3B539, size: 0x8, addend: 0x0, symName: __ZNKSt3__112__hash_tableINS_17__hash_value_typeINS_12basic_stringIcNS_11char_traitsIcEENS_9allocatorIcEEEE14BooleanSettingEENS_22__unordered_map_hasherIS7_S9_NS_4hashIS7_EENS_8equal_toIS7_EELb1EEENS_21__unordered_map_equalIS7_S9_SE_SC_Lb1EEENS5_IS9_EEE3endEv, symObjAddr: 0x9CA8, symBinAddr: 0x1000122B0, symSize: 0x2C }
  - { offsetInCU: 0xCB96, offset: 0x3B560, size: 0x8, addend: 0x0, symName: __ZNKSt3__117__compressed_pairImNS_22__unordered_map_hasherINS_12basic_stringIcNS_11char_traitsIcEENS_9allocatorIcEEEENS_17__hash_value_typeIS7_14BooleanSettingEENS_4hashIS7_EENS_8equal_toIS7_EELb1EEEE6secondB8ue170006Ev, symObjAddr: 0x9CD4, symBinAddr: 0x1000122DC, symSize: 0x24 }
  - { offsetInCU: 0xCBBB, offset: 0x3B585, size: 0x8, addend: 0x0, symName: __ZNKSt3__122__compressed_pair_elemINS_22__unordered_map_hasherINS_12basic_stringIcNS_11char_traitsIcEENS_9allocatorIcEEEENS_17__hash_value_typeIS7_14BooleanSettingEENS_4hashIS7_EENS_8equal_toIS7_EELb1EEELi1ELb1EE5__getB8ue170006Ev, symObjAddr: 0x9CF8, symBinAddr: 0x100012300, symSize: 0x14 }
  - { offsetInCU: 0xCBE0, offset: 0x3B5AA, size: 0x8, addend: 0x0, symName: __ZNKSt3__117__compressed_pairIfNS_21__unordered_map_equalINS_12basic_stringIcNS_11char_traitsIcEENS_9allocatorIcEEEENS_17__hash_value_typeIS7_14BooleanSettingEENS_8equal_toIS7_EENS_4hashIS7_EELb1EEEE6secondB8ue170006Ev, symObjAddr: 0x9D0C, symBinAddr: 0x100012314, symSize: 0x24 }
  - { offsetInCU: 0xCC05, offset: 0x3B5CF, size: 0x8, addend: 0x0, symName: __ZNKSt3__122__compressed_pair_elemINS_21__unordered_map_equalINS_12basic_stringIcNS_11char_traitsIcEENS_9allocatorIcEEEENS_17__hash_value_typeIS7_14BooleanSettingEENS_8equal_toIS7_EENS_4hashIS7_EELb1EEELi1ELb1EE5__getB8ue170006Ev, symObjAddr: 0x9D30, symBinAddr: 0x100012338, symSize: 0x14 }
  - { offsetInCU: 0xCC2A, offset: 0x3B5F4, size: 0x8, addend: 0x0, symName: __ZNSt3__121__hash_const_iteratorIPNS_11__hash_nodeINS_17__hash_value_typeINS_12basic_stringIcNS_11char_traitsIcEENS_9allocatorIcEEEE14BooleanSettingEEPvEEEC2B8ue170006EPNS_16__hash_node_baseISD_EE, symObjAddr: 0x9D44, symBinAddr: 0x10001234C, symSize: 0x20 }
  - { offsetInCU: 0xCC61, offset: 0x3B62B, size: 0x8, addend: 0x0, symName: __ZNSt3__125__hash_map_const_iteratorINS_21__hash_const_iteratorIPNS_11__hash_nodeINS_17__hash_value_typeINS_12basic_stringIcNS_11char_traitsIcEENS_9allocatorIcEEEE14BooleanSettingEEPvEEEEEC2B8ue170006ESF_, symObjAddr: 0x9D64, symBinAddr: 0x10001236C, symSize: 0x20 }
  - { offsetInCU: 0xCC98, offset: 0x3B662, size: 0x8, addend: 0x0, symName: __ZNKSt3__125__hash_map_const_iteratorINS_21__hash_const_iteratorIPNS_11__hash_nodeINS_17__hash_value_typeINS_12basic_stringIcNS_11char_traitsIcEENS_9allocatorIcEEEE14BooleanSettingEEPvEEEEEptB8ue170006Ev, symObjAddr: 0x9DE8, symBinAddr: 0x10001238C, symSize: 0x2C }
  - { offsetInCU: 0xCCBD, offset: 0x3B687, size: 0x8, addend: 0x0, symName: __ZNSt3__114pointer_traitsIPKNS_4pairIKNS_12basic_stringIcNS_11char_traitsIcEENS_9allocatorIcEEEE14BooleanSettingEEE10pointer_toB8ue170006ERSB_, symObjAddr: 0x9E94, symBinAddr: 0x1000123B8, symSize: 0x14 }
  - { offsetInCU: 0xCCE0, offset: 0x3B6AA, size: 0x8, addend: 0x0, symName: __ZNKSt3__121__hash_const_iteratorIPNS_11__hash_nodeINS_17__hash_value_typeINS_12basic_stringIcNS_11char_traitsIcEENS_9allocatorIcEEEE14BooleanSettingEEPvEEEptB8ue170006Ev, symObjAddr: 0x9EA8, symBinAddr: 0x1000123CC, symSize: 0x30 }
  - { offsetInCU: 0xCD05, offset: 0x3B6CF, size: 0x8, addend: 0x0, symName: __ZNSt3__114pointer_traitsIPKNS_17__hash_value_typeINS_12basic_stringIcNS_11char_traitsIcEENS_9allocatorIcEEEE14BooleanSettingEEE10pointer_toB8ue170006ERSA_, symObjAddr: 0x9ED8, symBinAddr: 0x1000123FC, symSize: 0x14 }
  - { offsetInCU: 0xCD28, offset: 0x3B6F2, size: 0x8, addend: 0x0, symName: __ZNSt3__113unordered_mapINS_12basic_stringIcNS_11char_traitsIcEENS_9allocatorIcEEEE14BooleanSettingNS_4hashIS6_EENS_8equal_toIS6_EENS4_INS_4pairIKS6_S7_EEEEE4findB8ue170006ERSD_, symObjAddr: 0x9EEC, symBinAddr: 0x100012410, symSize: 0x40 }
  - { offsetInCU: 0xCD5C, offset: 0x3B726, size: 0x8, addend: 0x0, symName: __ZNSt3__113unordered_mapINS_12basic_stringIcNS_11char_traitsIcEENS_9allocatorIcEEEE14BooleanSettingNS_4hashIS6_EENS_8equal_toIS6_EENS4_INS_4pairIKS6_S7_EEEEE3endB8ue170006Ev, symObjAddr: 0x9F5C, symBinAddr: 0x100012480, symSize: 0x38 }
  - { offsetInCU: 0xCD81, offset: 0x3B74B, size: 0x8, addend: 0x0, symName: __ZNKSt3__119__hash_map_iteratorINS_15__hash_iteratorIPNS_11__hash_nodeINS_17__hash_value_typeINS_12basic_stringIcNS_11char_traitsIcEENS_9allocatorIcEEEE14BooleanSettingEEPvEEEEEptB8ue170006Ev, symObjAddr: 0x9F94, symBinAddr: 0x1000124B8, symSize: 0x2C }
  - { offsetInCU: 0xCDA6, offset: 0x3B770, size: 0x8, addend: 0x0, symName: __ZNSt3__112__hash_tableINS_17__hash_value_typeINS_12basic_stringIcNS_11char_traitsIcEENS_9allocatorIcEEEE14BooleanSettingEENS_22__unordered_map_hasherIS7_S9_NS_4hashIS7_EENS_8equal_toIS7_EELb1EEENS_21__unordered_map_equalIS7_S9_SE_SC_Lb1EEENS5_IS9_EEE4findIS7_EENS_15__hash_iteratorIPNS_11__hash_nodeIS9_PvEEEERKT_, symObjAddr: 0x9FC0, symBinAddr: 0x1000124E4, symSize: 0x1B0 }
  - { offsetInCU: 0xCE2F, offset: 0x3B7F9, size: 0x8, addend: 0x0, symName: __ZNSt3__119__hash_map_iteratorINS_15__hash_iteratorIPNS_11__hash_nodeINS_17__hash_value_typeINS_12basic_stringIcNS_11char_traitsIcEENS_9allocatorIcEEEE14BooleanSettingEEPvEEEEEC1B8ue170006ESF_, symObjAddr: 0xA170, symBinAddr: 0x100012694, symSize: 0x34 }
  - { offsetInCU: 0xCE66, offset: 0x3B830, size: 0x8, addend: 0x0, symName: __ZNSt3__112__hash_tableINS_17__hash_value_typeINS_12basic_stringIcNS_11char_traitsIcEENS_9allocatorIcEEEE14BooleanSettingEENS_22__unordered_map_hasherIS7_S9_NS_4hashIS7_EENS_8equal_toIS7_EELb1EEENS_21__unordered_map_equalIS7_S9_SE_SC_Lb1EEENS5_IS9_EEE3endEv, symObjAddr: 0xA1A4, symBinAddr: 0x1000126C8, symSize: 0x2C }
  - { offsetInCU: 0xCE8D, offset: 0x3B857, size: 0x8, addend: 0x0, symName: __ZNSt3__119__hash_map_iteratorINS_15__hash_iteratorIPNS_11__hash_nodeINS_17__hash_value_typeINS_12basic_stringIcNS_11char_traitsIcEENS_9allocatorIcEEEE14BooleanSettingEEPvEEEEEC2B8ue170006ESF_, symObjAddr: 0xA1D0, symBinAddr: 0x1000126F4, symSize: 0x20 }
  - { offsetInCU: 0xCEC4, offset: 0x3B88E, size: 0x8, addend: 0x0, symName: __ZNSt3__114pointer_traitsIPNS_4pairIKNS_12basic_stringIcNS_11char_traitsIcEENS_9allocatorIcEEEE14BooleanSettingEEE10pointer_toB8ue170006ERSA_, symObjAddr: 0xA220, symBinAddr: 0x100012744, symSize: 0x14 }
  - { offsetInCU: 0xCEE7, offset: 0x3B8B1, size: 0x8, addend: 0x0, symName: __ZNKSt3__115__hash_iteratorIPNS_11__hash_nodeINS_17__hash_value_typeINS_12basic_stringIcNS_11char_traitsIcEENS_9allocatorIcEEEE14BooleanSettingEEPvEEEptB8ue170006Ev, symObjAddr: 0xA234, symBinAddr: 0x100012758, symSize: 0x30 }
  - { offsetInCU: 0xCF0C, offset: 0x3B8D6, size: 0x8, addend: 0x0, symName: __ZNSt3__114pointer_traitsIPNS_17__hash_value_typeINS_12basic_stringIcNS_11char_traitsIcEENS_9allocatorIcEEEE14BooleanSettingEEE10pointer_toB8ue170006ERS9_, symObjAddr: 0xA264, symBinAddr: 0x100012788, symSize: 0x14 }
  - { offsetInCU: 0xC68C, offset: 0x480BA, size: 0x8, addend: 0x0, symName: __ZNSt3__17advanceB8ue170006IPNS_10shared_ptrI6ActionEEllvEEvRT_T0_, symObjAddr: 0x2728, symBinAddr: 0x100014BE4, symSize: 0x38 }
  - { offsetInCU: 0xF64D, offset: 0x4B07B, size: 0x8, addend: 0x0, symName: __ZNSt3__111make_sharedB8ue170006I23FixedPositionMoveActionJR10ScreenSizeR8PositionEvEENS_10shared_ptrIT_EEDpOT0_, symObjAddr: 0x364, symBinAddr: 0x100012B00, symSize: 0x48 }
  - { offsetInCU: 0xF8C0, offset: 0x4B2EE, size: 0x8, addend: 0x0, symName: __ZNSt3__111make_sharedB8ue170006I18CharwiseMoveActionJR10ScreenSize9DirectionEvEENS_10shared_ptrIT_EEDpOT0_, symObjAddr: 0xC00, symBinAddr: 0x10001339C, symSize: 0x48 }
  - { offsetInCU: 0xFB33, offset: 0x4B561, size: 0x8, addend: 0x0, symName: __ZNSt3__122__make_exception_guardB8ue170006INS_6vectorINS_10shared_ptrI6ActionEENS_9allocatorIS4_EEE16__destroy_vectorEEENS_28__exception_guard_exceptionsIT_EESA_, symObjAddr: 0x13A4, symBinAddr: 0x100013B34, symSize: 0x40 }
  - { offsetInCU: 0xFB68, offset: 0x4B596, size: 0x8, addend: 0x0, symName: __ZNSt3__119__allocate_at_leastB8ue170006INS_9allocatorINS_10shared_ptrI6ActionEEEEEENS_19__allocation_resultINS_16allocator_traitsIT_E7pointerEEERS8_m, symObjAddr: 0x16DC, symBinAddr: 0x100013E6C, symSize: 0x40 }
  - { offsetInCU: 0xFBAB, offset: 0x4B5D9, size: 0x8, addend: 0x0, symName: __ZNSt3__112__to_addressB8ue170006INS_10shared_ptrI6ActionEEEEPT_S5_, symObjAddr: 0x1CC4, symBinAddr: 0x100014180, symSize: 0x14 }
  - { offsetInCU: 0xFBE0, offset: 0x4B60E, size: 0x8, addend: 0x0, symName: __ZNSt3__130__uninitialized_allocator_copyB8ue170006INS_9allocatorINS_10shared_ptrI6ActionEEEEPKS4_S7_PS4_EET2_RT_T0_T1_S9_, symObjAddr: 0x1D74, symBinAddr: 0x100014230, symSize: 0x80 }
  - { offsetInCU: 0xFC7D, offset: 0x4B6AB, size: 0x8, addend: 0x0, symName: __ZNSt3__114__unwrap_rangeB8ue170006IPKNS_10shared_ptrI6ActionEES5_EEDaT_T0_, symObjAddr: 0x1E64, symBinAddr: 0x100014320, symSize: 0x3C }
  - { offsetInCU: 0xFCC9, offset: 0x4B6F7, size: 0x8, addend: 0x0, symName: __ZNSt3__135__uninitialized_allocator_copy_implB8ue170006INS_9allocatorINS_10shared_ptrI6ActionEEEEPKS4_S7_PS4_EET2_RT_T0_T1_S9_, symObjAddr: 0x1EA0, symBinAddr: 0x10001435C, symSize: 0xF4 }
  - { offsetInCU: 0xFD67, offset: 0x4B795, size: 0x8, addend: 0x0, symName: __ZNSt3__113__unwrap_iterB8ue170006IPNS_10shared_ptrI6ActionEENS_18__unwrap_iter_implIS4_Lb1EEELi0EEEDTclsrT0_8__unwrapclsr3stdE7declvalIT_EEEES8_, symObjAddr: 0x1F94, symBinAddr: 0x100014450, symSize: 0x24 }
  - { offsetInCU: 0xFDAB, offset: 0x4B7D9, size: 0x8, addend: 0x0, symName: __ZNSt3__113__rewrap_iterB8ue170006IPNS_10shared_ptrI6ActionEES4_NS_18__unwrap_iter_implIS4_Lb1EEEEET_S7_T0_, symObjAddr: 0x1FB8, symBinAddr: 0x100014474, symSize: 0x3C }
  - { offsetInCU: 0xFF03, offset: 0x4B931, size: 0x8, addend: 0x0, symName: __ZNSt3__113__unwrap_iterB8ue170006IPKNS_10shared_ptrI6ActionEENS_18__unwrap_iter_implIS5_Lb1EEELi0EEEDTclsrT0_8__unwrapclsr3stdE7declvalIT_EEEES9_, symObjAddr: 0x204C, symBinAddr: 0x100014508, symSize: 0x24 }
  - { offsetInCU: 0xFF9A, offset: 0x4B9C8, size: 0x8, addend: 0x0, symName: __ZNSt3__112__to_addressB8ue170006IKNS_10shared_ptrI6ActionEEEEPT_S6_, symObjAddr: 0x20D0, symBinAddr: 0x10001458C, symSize: 0x14 }
  - { offsetInCU: 0xFFCF, offset: 0x4B9FD, size: 0x8, addend: 0x0, symName: __ZNSt3__122__make_exception_guardB8ue170006INS_29_AllocatorDestroyRangeReverseINS_9allocatorINS_10shared_ptrI6ActionEEEEPS5_EEEENS_28__exception_guard_exceptionsIT_EESA_, symObjAddr: 0x2118, symBinAddr: 0x1000145D4, symSize: 0x4C }
  - { offsetInCU: 0x1002C, offset: 0x4BA5A, size: 0x8, addend: 0x0, symName: __ZNSt3__112construct_atB8ue170006INS_10shared_ptrI6ActionEEJRKS3_EPS3_EEPT_S8_DpOT0_, symObjAddr: 0x22BC, symBinAddr: 0x100014778, symSize: 0x3C }
  - { offsetInCU: 0x1009E, offset: 0x4BACC, size: 0x8, addend: 0x0, symName: __ZNSt3__134__libcpp_atomic_refcount_incrementB8ue170006IlEET_RS1_, symObjAddr: 0x23E8, symBinAddr: 0x1000148A4, symSize: 0x30 }
  - { offsetInCU: 0x100D3, offset: 0x4BB01, size: 0x8, addend: 0x0, symName: __ZNSt3__119__allocator_destroyB8ue170006INS_9allocatorINS_10shared_ptrI6ActionEEEENS_16reverse_iteratorIPS4_EES8_EEvRT_T0_T1_, symObjAddr: 0x24D0, symBinAddr: 0x10001498C, symSize: 0x70 }
  - { offsetInCU: 0x10136, offset: 0x4BB64, size: 0x8, addend: 0x0, symName: __ZNSt3__1neB8ue170006IPNS_10shared_ptrI6ActionEES4_EEbRKNS_16reverse_iteratorIT_EERKNS5_IT0_EE, symObjAddr: 0x2574, symBinAddr: 0x100014A30, symSize: 0x48 }
  - { offsetInCU: 0x10182, offset: 0x4BBB0, size: 0x8, addend: 0x0, symName: __ZNSt3__112__to_addressB8ue170006INS_16reverse_iteratorIPNS_10shared_ptrI6ActionEEEEvEEu7__decayIDTclsr19__to_address_helperIT_EE6__callclsr3stdE7declvalIRKS7_EEEEES9_, symObjAddr: 0x25E4, symBinAddr: 0x100014AA0, symSize: 0x24 }
  - { offsetInCU: 0x101B8, offset: 0x4BBE6, size: 0x8, addend: 0x0, symName: __ZNSt3__110destroy_atB8ue170006INS_10shared_ptrI6ActionEELi0EEEvPT_, symObjAddr: 0x2640, symBinAddr: 0x100014AFC, symSize: 0x24 }
  - { offsetInCU: 0x101EF, offset: 0x4BC1D, size: 0x8, addend: 0x0, symName: __ZNSt3__112__destroy_atB8ue170006INS_10shared_ptrI6ActionEELi0EEEvPT_, symObjAddr: 0x2664, symBinAddr: 0x100014B20, symSize: 0x24 }
  - { offsetInCU: 0x10250, offset: 0x4BC7E, size: 0x8, addend: 0x0, symName: __ZNSt3__14prevB8ue170006IPNS_10shared_ptrI6ActionEEEENS_9enable_ifIXsr29__has_input_iterator_categoryIT_EE5valueES6_E4typeES6_NS_15iterator_traitsIS6_E15difference_typeE, symObjAddr: 0x26EC, symBinAddr: 0x100014BA8, symSize: 0x3C }
  - { offsetInCU: 0x10293, offset: 0x4BCC1, size: 0x8, addend: 0x0, symName: __ZNSt3__19__advanceB8ue170006IPNS_10shared_ptrI6ActionEEEEvRT_NS_15iterator_traitsIS5_E15difference_typeENS_26random_access_iterator_tagE, symObjAddr: 0x2774, symBinAddr: 0x100014C1C, symSize: 0x28 }
  - { offsetInCU: 0x10331, offset: 0x4BD5F, size: 0x8, addend: 0x0, symName: __ZNSt3__134__libcpp_atomic_refcount_decrementB8ue170006IlEET_RS1_, symObjAddr: 0x3030, symBinAddr: 0x1000151F4, symSize: 0x30 }
  - { offsetInCU: 0x10366, offset: 0x4BD94, size: 0x8, addend: 0x0, symName: __ZNSt3__115allocate_sharedB8ue170006I23FixedPositionMoveActionNS_9allocatorIS1_EEJR10ScreenSizeR8PositionEvEENS_10shared_ptrIT_EERKT0_DpOT1_, symObjAddr: 0x3060, symBinAddr: 0x100015224, symSize: 0xA0 }
  - { offsetInCU: 0x10730, offset: 0x4C15E, size: 0x8, addend: 0x0, symName: __ZNSt3__112construct_atB8ue170006I23FixedPositionMoveActionJR10ScreenSizeR8PositionEPS1_EEPT_S8_DpOT0_, symObjAddr: 0x37D8, symBinAddr: 0x10001599C, symSize: 0x5C }
  - { offsetInCU: 0x107B5, offset: 0x4C1E3, size: 0x8, addend: 0x0, symName: __ZNSt3__110destroy_atB8ue170006I23FixedPositionMoveActionLi0EEEvPT_, symObjAddr: 0x38D0, symBinAddr: 0x100015A94, symSize: 0x24 }
  - { offsetInCU: 0x107EC, offset: 0x4C21A, size: 0x8, addend: 0x0, symName: __ZNSt3__112__destroy_atB8ue170006I23FixedPositionMoveActionLi0EEEvPT_, symObjAddr: 0x38F4, symBinAddr: 0x100015AB8, symSize: 0x2C }
  - { offsetInCU: 0x10856, offset: 0x4C284, size: 0x8, addend: 0x0, symName: __ZNSt3__115allocate_sharedB8ue170006I18CharwiseMoveActionNS_9allocatorIS1_EEJR10ScreenSize9DirectionEvEENS_10shared_ptrIT_EERKT0_DpOT1_, symObjAddr: 0x3BA0, symBinAddr: 0x100015D64, symSize: 0xA0 }
  - { offsetInCU: 0x10C20, offset: 0x4C64E, size: 0x8, addend: 0x0, symName: __ZNSt3__112construct_atB8ue170006I18CharwiseMoveActionJR10ScreenSize9DirectionEPS1_EEPT_S7_DpOT0_, symObjAddr: 0x4294, symBinAddr: 0x100016458, symSize: 0x54 }
  - { offsetInCU: 0x10CA5, offset: 0x4C6D3, size: 0x8, addend: 0x0, symName: __ZNSt3__110destroy_atB8ue170006I18CharwiseMoveActionLi0EEEvPT_, symObjAddr: 0x4384, symBinAddr: 0x100016548, symSize: 0x24 }
  - { offsetInCU: 0x10CDC, offset: 0x4C70A, size: 0x8, addend: 0x0, symName: __ZNSt3__112__destroy_atB8ue170006I18CharwiseMoveActionLi0EEEvPT_, symObjAddr: 0x43A8, symBinAddr: 0x10001656C, symSize: 0x2C }
  - { offsetInCU: 0x144AF, offset: 0x4FEDD, size: 0x8, addend: 0x0, symName: __ZN8ToolMode18parseMouseMovementE8Position10ScreenSizeS1_, symObjAddr: 0x0, symBinAddr: 0x10001279C, symSize: 0x2C8 }
  - { offsetInCU: 0x14523, offset: 0x4FF51, size: 0x8, addend: 0x0, symName: __ZNSt3__18optionalI8ModeTypeEC1B8ue170006IS1_Li0EEEOT_, symObjAddr: 0x2C8, symBinAddr: 0x100012A64, symSize: 0x34 }
  - { offsetInCU: 0x14569, offset: 0x4FF97, size: 0x8, addend: 0x0, symName: __ZNSt3__16vectorINS_10shared_ptrI6ActionEENS_9allocatorIS3_EEEC1B8ue170006Ev, symObjAddr: 0x2FC, symBinAddr: 0x100012A98, symSize: 0x2C }
  - { offsetInCU: 0x14591, offset: 0x4FFBF, size: 0x8, addend: 0x0, symName: __ZN8PositionC1Eii, symObjAddr: 0x328, symBinAddr: 0x100012AC4, symSize: 0x3C }
  - { offsetInCU: 0x145F8, offset: 0x50026, size: 0x8, addend: 0x0, symName: __ZNSt3__110shared_ptrI6ActionEC1B8ue170006I23FixedPositionMoveActionvEEONS0_IT_EE, symObjAddr: 0x3AC, symBinAddr: 0x100012B48, symSize: 0x34 }
  - { offsetInCU: 0x14639, offset: 0x50067, size: 0x8, addend: 0x0, symName: __ZNSt3__16vectorINS_10shared_ptrI6ActionEENS_9allocatorIS3_EEEC1B8ue170006ESt16initializer_listIS3_E, symObjAddr: 0x3E0, symBinAddr: 0x100012B7C, symSize: 0x3C }
  - { offsetInCU: 0x14673, offset: 0x500A1, size: 0x8, addend: 0x0, symName: __ZNSt3__110shared_ptrI6ActionED1B8ue170006Ev, symObjAddr: 0x41C, symBinAddr: 0x100012BB8, symSize: 0x2C }
  - { offsetInCU: 0x1469B, offset: 0x500C9, size: 0x8, addend: 0x0, symName: __ZNSt3__110shared_ptrI23FixedPositionMoveActionED1B8ue170006Ev, symObjAddr: 0x448, symBinAddr: 0x100012BE4, symSize: 0x2C }
  - { offsetInCU: 0x146C3, offset: 0x500F1, size: 0x8, addend: 0x0, symName: __ZN8ToolMode15parseSpecialKeyE10SpecialKey10ScreenSize, symObjAddr: 0x474, symBinAddr: 0x100012C10, symSize: 0x77C }
  - { offsetInCU: 0x1472C, offset: 0x5015A, size: 0x8, addend: 0x0, symName: __ZNSt3__110shared_ptrI6ActionEC1B8ue170006I18CharwiseMoveActionvEEONS0_IT_EE, symObjAddr: 0xC48, symBinAddr: 0x1000133E4, symSize: 0x34 }
  - { offsetInCU: 0x1476D, offset: 0x5019B, size: 0x8, addend: 0x0, symName: __ZNSt3__110shared_ptrI18CharwiseMoveActionED1B8ue170006Ev, symObjAddr: 0xC7C, symBinAddr: 0x100013418, symSize: 0x2C }
  - { offsetInCU: 0x14795, offset: 0x501C3, size: 0x8, addend: 0x0, symName: __ZN8ToolMode18parseStandardInputEi10ScreenSizeRK8Settings, symObjAddr: 0xCA8, symBinAddr: 0x100013444, symSize: 0x54 }
  - { offsetInCU: 0x147E6, offset: 0x50214, size: 0x8, addend: 0x0, symName: __ZN8ToolMode10parseInputE5Input10ScreenSizeS1_RK8Settings, symObjAddr: 0xCFC, symBinAddr: 0x100013498, symSize: 0x144 }
  - { offsetInCU: 0x14846, offset: 0x50274, size: 0x8, addend: 0x0, symName: __ZNKSt3__123__optional_storage_baseI8PositionLb0EE9has_valueB8ue170006Ev, symObjAddr: 0xE40, symBinAddr: 0x1000135DC, symSize: 0x1C }
  - { offsetInCU: 0x1486B, offset: 0x50299, size: 0x8, addend: 0x0, symName: __ZNRSt3__18optionalI8PositionEdeB8ue170006Ev, symObjAddr: 0xE5C, symBinAddr: 0x1000135F8, symSize: 0x24 }
  - { offsetInCU: 0x14890, offset: 0x502BE, size: 0x8, addend: 0x0, symName: __ZNKSt3__123__optional_storage_baseI10SpecialKeyLb0EE9has_valueB8ue170006Ev, symObjAddr: 0xE80, symBinAddr: 0x10001361C, symSize: 0x1C }
  - { offsetInCU: 0x148B5, offset: 0x502E3, size: 0x8, addend: 0x0, symName: __ZNRSt3__18optionalI10SpecialKeyEdeB8ue170006Ev, symObjAddr: 0xE9C, symBinAddr: 0x100013638, symSize: 0x24 }
  - { offsetInCU: 0x148DA, offset: 0x50308, size: 0x8, addend: 0x0, symName: __ZNKSt3__123__optional_storage_baseIiLb0EE9has_valueB8ue170006Ev, symObjAddr: 0xEC0, symBinAddr: 0x10001365C, symSize: 0x1C }
  - { offsetInCU: 0x148FF, offset: 0x5032D, size: 0x8, addend: 0x0, symName: __ZNRSt3__18optionalIiEdeB8ue170006Ev, symObjAddr: 0xEDC, symBinAddr: 0x100013678, symSize: 0x24 }
  - { offsetInCU: 0x14924, offset: 0x50352, size: 0x8, addend: 0x0, symName: __ZN8ToolModeD1Ev, symObjAddr: 0xF00, symBinAddr: 0x10001369C, symSize: 0x2C }
  - { offsetInCU: 0x1494C, offset: 0x5037A, size: 0x8, addend: 0x0, symName: __ZN8ToolModeD0Ev, symObjAddr: 0xF2C, symBinAddr: 0x1000136C8, symSize: 0x30 }
  - { offsetInCU: 0x14974, offset: 0x503A2, size: 0x8, addend: 0x0, symName: __ZNK8ToolMode12getModeLabelEv, symObjAddr: 0xF5C, symBinAddr: 0x1000136F8, symSize: 0x3C }
  - { offsetInCU: 0x14999, offset: 0x503C7, size: 0x8, addend: 0x0, symName: __ZNSt3__18optionalI8ModeTypeEC2B8ue170006IS1_Li0EEEOT_, symObjAddr: 0xF98, symBinAddr: 0x100013734, symSize: 0x34 }
  - { offsetInCU: 0x149E4, offset: 0x50412, size: 0x8, addend: 0x0, symName: __ZNSt3__127__optional_move_assign_baseI8ModeTypeLb1EECI2NS_24__optional_destruct_baseIS1_Lb1EEEIJS1_EEENS_10in_place_tEDpOT_, symObjAddr: 0xFCC, symBinAddr: 0x100013768, symSize: 0x34 }
  - { offsetInCU: 0x14A26, offset: 0x50454, size: 0x8, addend: 0x0, symName: __ZNSt3__127__optional_copy_assign_baseI8ModeTypeLb1EECI2NS_24__optional_destruct_baseIS1_Lb1EEEIJS1_EEENS_10in_place_tEDpOT_, symObjAddr: 0x1000, symBinAddr: 0x10001379C, symSize: 0x34 }
  - { offsetInCU: 0x14A68, offset: 0x50496, size: 0x8, addend: 0x0, symName: __ZNSt3__120__optional_move_baseI8ModeTypeLb1EECI2NS_24__optional_destruct_baseIS1_Lb1EEEIJS1_EEENS_10in_place_tEDpOT_, symObjAddr: 0x1034, symBinAddr: 0x1000137D0, symSize: 0x34 }
  - { offsetInCU: 0x14AAA, offset: 0x504D8, size: 0x8, addend: 0x0, symName: __ZNSt3__120__optional_copy_baseI8ModeTypeLb1EECI2NS_24__optional_destruct_baseIS1_Lb1EEEIJS1_EEENS_10in_place_tEDpOT_, symObjAddr: 0x1068, symBinAddr: 0x100013804, symSize: 0x34 }
  - { offsetInCU: 0x14AE7, offset: 0x50515, size: 0x8, addend: 0x0, symName: __ZNSt3__123__optional_storage_baseI8ModeTypeLb0EECI2NS_24__optional_destruct_baseIS1_Lb1EEEIJS1_EEENS_10in_place_tEDpOT_, symObjAddr: 0x109C, symBinAddr: 0x100013838, symSize: 0x34 }
  - { offsetInCU: 0x14B24, offset: 0x50552, size: 0x8, addend: 0x0, symName: __ZNSt3__124__optional_destruct_baseI8ModeTypeLb1EEC2B8ue170006IJS1_EEENS_10in_place_tEDpOT_, symObjAddr: 0x10D0, symBinAddr: 0x10001386C, symSize: 0x2C }
  - { offsetInCU: 0x14B71, offset: 0x5059F, size: 0x8, addend: 0x0, symName: __ZNSt3__16vectorINS_10shared_ptrI6ActionEENS_9allocatorIS3_EEEC2B8ue170006Ev, symObjAddr: 0x10FC, symBinAddr: 0x100013898, symSize: 0x4C }
  - { offsetInCU: 0x14BA3, offset: 0x505D1, size: 0x8, addend: 0x0, symName: __ZNSt3__117__compressed_pairIPNS_10shared_ptrI6ActionEENS_9allocatorIS3_EEEC1B8ue170006IDnNS_18__default_init_tagEEEOT_OT0_, symObjAddr: 0x1148, symBinAddr: 0x1000138E4, symSize: 0x3C }
  - { offsetInCU: 0x14BF9, offset: 0x50627, size: 0x8, addend: 0x0, symName: __ZNSt3__117__compressed_pairIPNS_10shared_ptrI6ActionEENS_9allocatorIS3_EEEC2B8ue170006IDnNS_18__default_init_tagEEEOT_OT0_, symObjAddr: 0x1190, symBinAddr: 0x100013920, symSize: 0x40 }
  - { offsetInCU: 0x14C4F, offset: 0x5067D, size: 0x8, addend: 0x0, symName: __ZNSt3__122__compressed_pair_elemIPNS_10shared_ptrI6ActionEELi0ELb0EEC2B8ue170006IDnvEEOT_, symObjAddr: 0x11D0, symBinAddr: 0x100013960, symSize: 0x1C }
  - { offsetInCU: 0x14C8F, offset: 0x506BD, size: 0x8, addend: 0x0, symName: __ZNSt3__122__compressed_pair_elemINS_9allocatorINS_10shared_ptrI6ActionEEEELi1ELb1EEC2B8ue170006ENS_18__default_init_tagE, symObjAddr: 0x11EC, symBinAddr: 0x10001397C, symSize: 0x2C }
  - { offsetInCU: 0x14CC2, offset: 0x506F0, size: 0x8, addend: 0x0, symName: __ZNSt3__19allocatorINS_10shared_ptrI6ActionEEEC2B8ue170006Ev, symObjAddr: 0x1218, symBinAddr: 0x1000139A8, symSize: 0x2C }
  - { offsetInCU: 0x14CEA, offset: 0x50718, size: 0x8, addend: 0x0, symName: __ZNSt3__116__non_trivial_ifILb1ENS_9allocatorINS_10shared_ptrI6ActionEEEEEC2B8ue170006Ev, symObjAddr: 0x1244, symBinAddr: 0x1000139D4, symSize: 0x14 }
  - { offsetInCU: 0x14D12, offset: 0x50740, size: 0x8, addend: 0x0, symName: __ZN8PositionC2Eii, symObjAddr: 0x1258, symBinAddr: 0x1000139E8, symSize: 0x2C }
  - { offsetInCU: 0x14D56, offset: 0x50784, size: 0x8, addend: 0x0, symName: __ZNSt3__16vectorINS_10shared_ptrI6ActionEENS_9allocatorIS3_EEEC2B8ue170006ESt16initializer_listIS3_E, symObjAddr: 0x1284, symBinAddr: 0x100013A14, symSize: 0x120 }
  - { offsetInCU: 0x14DA5, offset: 0x507D3, size: 0x8, addend: 0x0, symName: __ZNSt3__16vectorINS_10shared_ptrI6ActionEENS_9allocatorIS3_EEE16__destroy_vectorC1B8ue170006ERS6_, symObjAddr: 0x13E4, symBinAddr: 0x100013B74, symSize: 0x34 }
  - { offsetInCU: 0x14DDC, offset: 0x5080A, size: 0x8, addend: 0x0, symName: __ZNKSt16initializer_listINSt3__110shared_ptrI6ActionEEE4sizeB8ue170006Ev, symObjAddr: 0x1418, symBinAddr: 0x100013BA8, symSize: 0x18 }
  - { offsetInCU: 0x14E01, offset: 0x5082F, size: 0x8, addend: 0x0, symName: __ZNSt3__16vectorINS_10shared_ptrI6ActionEENS_9allocatorIS3_EEE11__vallocateB8ue170006Em, symObjAddr: 0x1430, symBinAddr: 0x100013BC0, symSize: 0xAC }
  - { offsetInCU: 0x14E44, offset: 0x50872, size: 0x8, addend: 0x0, symName: __ZNSt3__16vectorINS_10shared_ptrI6ActionEENS_9allocatorIS3_EEE18__construct_at_endIPKS3_S9_EEvT_T0_m, symObjAddr: 0x14DC, symBinAddr: 0x100013C6C, symSize: 0x8C }
  - { offsetInCU: 0x14EB9, offset: 0x508E7, size: 0x8, addend: 0x0, symName: __ZNKSt16initializer_listINSt3__110shared_ptrI6ActionEEE5beginB8ue170006Ev, symObjAddr: 0x1568, symBinAddr: 0x100013CF8, symSize: 0x18 }
  - { offsetInCU: 0x14EDE, offset: 0x5090C, size: 0x8, addend: 0x0, symName: __ZNKSt16initializer_listINSt3__110shared_ptrI6ActionEEE3endB8ue170006Ev, symObjAddr: 0x1580, symBinAddr: 0x100013D10, symSize: 0x20 }
  - { offsetInCU: 0x14F03, offset: 0x50931, size: 0x8, addend: 0x0, symName: __ZNSt3__128__exception_guard_exceptionsINS_6vectorINS_10shared_ptrI6ActionEENS_9allocatorIS4_EEE16__destroy_vectorEE10__completeB8ue170006Ev, symObjAddr: 0x15A0, symBinAddr: 0x100013D30, symSize: 0x1C }
  - { offsetInCU: 0x14F28, offset: 0x50956, size: 0x8, addend: 0x0, symName: __ZNSt3__128__exception_guard_exceptionsINS_6vectorINS_10shared_ptrI6ActionEENS_9allocatorIS4_EEE16__destroy_vectorEED1B8ue170006Ev, symObjAddr: 0x15BC, symBinAddr: 0x100013D4C, symSize: 0x2C }
  - { offsetInCU: 0x14F50, offset: 0x5097E, size: 0x8, addend: 0x0, symName: __ZNSt3__128__exception_guard_exceptionsINS_6vectorINS_10shared_ptrI6ActionEENS_9allocatorIS4_EEE16__destroy_vectorEEC1B8ue170006ES8_, symObjAddr: 0x15E8, symBinAddr: 0x100013D78, symSize: 0x34 }
  - { offsetInCU: 0x14F86, offset: 0x509B4, size: 0x8, addend: 0x0, symName: __ZNSt3__128__exception_guard_exceptionsINS_6vectorINS_10shared_ptrI6ActionEENS_9allocatorIS4_EEE16__destroy_vectorEEC2B8ue170006ES8_, symObjAddr: 0x161C, symBinAddr: 0x100013DAC, symSize: 0x24 }
  - { offsetInCU: 0x14FBC, offset: 0x509EA, size: 0x8, addend: 0x0, symName: __ZNSt3__16vectorINS_10shared_ptrI6ActionEENS_9allocatorIS3_EEE16__destroy_vectorC2B8ue170006ERS6_, symObjAddr: 0x1640, symBinAddr: 0x100013DD0, symSize: 0x20 }
  - { offsetInCU: 0x14FF3, offset: 0x50A21, size: 0x8, addend: 0x0, symName: __ZNKSt3__16vectorINS_10shared_ptrI6ActionEENS_9allocatorIS3_EEE8max_sizeEv, symObjAddr: 0x1660, symBinAddr: 0x100013DF0, symSize: 0x60 }
  - { offsetInCU: 0x1501A, offset: 0x50A48, size: 0x8, addend: 0x0, symName: __ZNKSt3__16vectorINS_10shared_ptrI6ActionEENS_9allocatorIS3_EEE20__throw_length_errorB8ue170006Ev, symObjAddr: 0x16C0, symBinAddr: 0x100013E50, symSize: 0x1C }
  - { offsetInCU: 0x1503F, offset: 0x50A6D, size: 0x8, addend: 0x0, symName: __ZNSt3__16vectorINS_10shared_ptrI6ActionEENS_9allocatorIS3_EEE7__allocB8ue170006Ev, symObjAddr: 0x171C, symBinAddr: 0x100013EAC, symSize: 0x28 }
  - { offsetInCU: 0x15064, offset: 0x50A92, size: 0x8, addend: 0x0, symName: __ZNSt3__16vectorINS_10shared_ptrI6ActionEENS_9allocatorIS3_EEE9__end_capB8ue170006Ev, symObjAddr: 0x1744, symBinAddr: 0x100013ED4, symSize: 0x28 }
  - { offsetInCU: 0x15089, offset: 0x50AB7, size: 0x8, addend: 0x0, symName: __ZNKSt3__16vectorINS_10shared_ptrI6ActionEENS_9allocatorIS3_EEE14__annotate_newB8ue170006Em, symObjAddr: 0x176C, symBinAddr: 0x100013EFC, symSize: 0xAC }
  - { offsetInCU: 0x150C7, offset: 0x50AF5, size: 0x8, addend: 0x0, symName: __ZNSt3__116allocator_traitsINS_9allocatorINS_10shared_ptrI6ActionEEEEE8max_sizeB8ue170006IS5_vvEEmRKS5_, symObjAddr: 0x1844, symBinAddr: 0x100013FA8, symSize: 0x28 }
  - { offsetInCU: 0x150F2, offset: 0x50B20, size: 0x8, addend: 0x0, symName: __ZNKSt3__16vectorINS_10shared_ptrI6ActionEENS_9allocatorIS3_EEE7__allocB8ue170006Ev, symObjAddr: 0x186C, symBinAddr: 0x100013FD0, symSize: 0x28 }
  - { offsetInCU: 0x15117, offset: 0x50B45, size: 0x8, addend: 0x0, symName: __ZNKSt3__117__compressed_pairIPNS_10shared_ptrI6ActionEENS_9allocatorIS3_EEE6secondB8ue170006Ev, symObjAddr: 0x194C, symBinAddr: 0x100013FF8, symSize: 0x24 }
  - { offsetInCU: 0x1513C, offset: 0x50B6A, size: 0x8, addend: 0x0, symName: __ZNKSt3__122__compressed_pair_elemINS_9allocatorINS_10shared_ptrI6ActionEEEELi1ELb1EE5__getB8ue170006Ev, symObjAddr: 0x1970, symBinAddr: 0x10001401C, symSize: 0x14 }
  - { offsetInCU: 0x15161, offset: 0x50B8F, size: 0x8, addend: 0x0, symName: __ZNSt3__19allocatorINS_10shared_ptrI6ActionEEE8allocateB8ue170006Em, symObjAddr: 0x1A70, symBinAddr: 0x100014030, symSize: 0x58 }
  - { offsetInCU: 0x15194, offset: 0x50BC2, size: 0x8, addend: 0x0, symName: __ZNSt3__117__compressed_pairIPNS_10shared_ptrI6ActionEENS_9allocatorIS3_EEE6secondB8ue170006Ev, symObjAddr: 0x1BCC, symBinAddr: 0x100014088, symSize: 0x24 }
  - { offsetInCU: 0x151B9, offset: 0x50BE7, size: 0x8, addend: 0x0, symName: __ZNSt3__122__compressed_pair_elemINS_9allocatorINS_10shared_ptrI6ActionEEEELi1ELb1EE5__getB8ue170006Ev, symObjAddr: 0x1BF0, symBinAddr: 0x1000140AC, symSize: 0x14 }
  - { offsetInCU: 0x151DE, offset: 0x50C0C, size: 0x8, addend: 0x0, symName: __ZNSt3__117__compressed_pairIPNS_10shared_ptrI6ActionEENS_9allocatorIS3_EEE5firstB8ue170006Ev, symObjAddr: 0x1C04, symBinAddr: 0x1000140C0, symSize: 0x24 }
  - { offsetInCU: 0x15203, offset: 0x50C31, size: 0x8, addend: 0x0, symName: __ZNSt3__122__compressed_pair_elemIPNS_10shared_ptrI6ActionEELi0ELb0EE5__getB8ue170006Ev, symObjAddr: 0x1C28, symBinAddr: 0x1000140E4, symSize: 0x14 }
  - { offsetInCU: 0x15228, offset: 0x50C56, size: 0x8, addend: 0x0, symName: __ZNKSt3__16vectorINS_10shared_ptrI6ActionEENS_9allocatorIS3_EEE31__annotate_contiguous_containerB8ue170006EPKvS8_S8_S8_, symObjAddr: 0x1C3C, symBinAddr: 0x1000140F8, symSize: 0x20 }
  - { offsetInCU: 0x15279, offset: 0x50CA7, size: 0x8, addend: 0x0, symName: __ZNKSt3__16vectorINS_10shared_ptrI6ActionEENS_9allocatorIS3_EEE4dataB8ue170006Ev, symObjAddr: 0x1C5C, symBinAddr: 0x100014118, symSize: 0x28 }
  - { offsetInCU: 0x1529E, offset: 0x50CCC, size: 0x8, addend: 0x0, symName: __ZNKSt3__16vectorINS_10shared_ptrI6ActionEENS_9allocatorIS3_EEE8capacityB8ue170006Ev, symObjAddr: 0x1C84, symBinAddr: 0x100014140, symSize: 0x40 }
  - { offsetInCU: 0x152C3, offset: 0x50CF1, size: 0x8, addend: 0x0, symName: __ZNKSt3__16vectorINS_10shared_ptrI6ActionEENS_9allocatorIS3_EEE9__end_capB8ue170006Ev, symObjAddr: 0x1CD8, symBinAddr: 0x100014194, symSize: 0x28 }
  - { offsetInCU: 0x152E8, offset: 0x50D16, size: 0x8, addend: 0x0, symName: __ZNKSt3__117__compressed_pairIPNS_10shared_ptrI6ActionEENS_9allocatorIS3_EEE5firstB8ue170006Ev, symObjAddr: 0x1D00, symBinAddr: 0x1000141BC, symSize: 0x24 }
  - { offsetInCU: 0x1530D, offset: 0x50D3B, size: 0x8, addend: 0x0, symName: __ZNKSt3__122__compressed_pair_elemIPNS_10shared_ptrI6ActionEELi0ELb0EE5__getB8ue170006Ev, symObjAddr: 0x1D24, symBinAddr: 0x1000141E0, symSize: 0x14 }
  - { offsetInCU: 0x1534B, offset: 0x50D79, size: 0x8, addend: 0x0, symName: __ZNSt3__16vectorINS_10shared_ptrI6ActionEENS_9allocatorIS3_EEE21_ConstructTransactionC1B8ue170006ERS6_m, symObjAddr: 0x1D38, symBinAddr: 0x1000141F4, symSize: 0x3C }
  - { offsetInCU: 0x15391, offset: 0x50DBF, size: 0x8, addend: 0x0, symName: __ZNSt3__16vectorINS_10shared_ptrI6ActionEENS_9allocatorIS3_EEE21_ConstructTransactionD1B8ue170006Ev, symObjAddr: 0x1DF4, symBinAddr: 0x1000142B0, symSize: 0x2C }
  - { offsetInCU: 0x153B9, offset: 0x50DE7, size: 0x8, addend: 0x0, symName: __ZNSt3__16vectorINS_10shared_ptrI6ActionEENS_9allocatorIS3_EEE21_ConstructTransactionC2B8ue170006ERS6_m, symObjAddr: 0x1E20, symBinAddr: 0x1000142DC, symSize: 0x44 }
  - { offsetInCU: 0x15418, offset: 0x50E46, size: 0x8, addend: 0x0, symName: __ZNSt3__119__unwrap_range_implIPKNS_10shared_ptrI6ActionEES5_E8__unwrapB8ue170006ES5_S5_, symObjAddr: 0x1FF4, symBinAddr: 0x1000144B0, symSize: 0x58 }
  - { offsetInCU: 0x1544E, offset: 0x50E7C, size: 0x8, addend: 0x0, symName: __ZNSt3__14pairIPKNS_10shared_ptrI6ActionEES5_EC1B8ue170006IS5_S5_LPv0EEEOT_OT0_, symObjAddr: 0x2070, symBinAddr: 0x10001452C, symSize: 0x3C }
  - { offsetInCU: 0x154AB, offset: 0x50ED9, size: 0x8, addend: 0x0, symName: __ZNSt3__118__unwrap_iter_implIPKNS_10shared_ptrI6ActionEELb1EE8__unwrapB8ue170006ES5_, symObjAddr: 0x20AC, symBinAddr: 0x100014568, symSize: 0x24 }
  - { offsetInCU: 0x154CE, offset: 0x50EFC, size: 0x8, addend: 0x0, symName: __ZNSt3__14pairIPKNS_10shared_ptrI6ActionEES5_EC2B8ue170006IS5_S5_LPv0EEEOT_OT0_, symObjAddr: 0x20E4, symBinAddr: 0x1000145A0, symSize: 0x34 }
  - { offsetInCU: 0x1552B, offset: 0x50F59, size: 0x8, addend: 0x0, symName: __ZNSt3__129_AllocatorDestroyRangeReverseINS_9allocatorINS_10shared_ptrI6ActionEEEEPS4_EC1B8ue170006ERS5_RS6_S9_, symObjAddr: 0x2164, symBinAddr: 0x100014620, symSize: 0x44 }
  - { offsetInCU: 0x15580, offset: 0x50FAE, size: 0x8, addend: 0x0, symName: __ZNSt3__116allocator_traitsINS_9allocatorINS_10shared_ptrI6ActionEEEEE9constructB8ue170006IS4_JRKS4_EvvEEvRS5_PT_DpOT0_, symObjAddr: 0x21A8, symBinAddr: 0x100014664, symSize: 0x30 }
  - { offsetInCU: 0x155D4, offset: 0x51002, size: 0x8, addend: 0x0, symName: __ZNSt3__128__exception_guard_exceptionsINS_29_AllocatorDestroyRangeReverseINS_9allocatorINS_10shared_ptrI6ActionEEEEPS5_EEE10__completeB8ue170006Ev, symObjAddr: 0x21D8, symBinAddr: 0x100014694, symSize: 0x1C }
  - { offsetInCU: 0x155F9, offset: 0x51027, size: 0x8, addend: 0x0, symName: __ZNSt3__128__exception_guard_exceptionsINS_29_AllocatorDestroyRangeReverseINS_9allocatorINS_10shared_ptrI6ActionEEEEPS5_EEED1B8ue170006Ev, symObjAddr: 0x21F4, symBinAddr: 0x1000146B0, symSize: 0x2C }
  - { offsetInCU: 0x15621, offset: 0x5104F, size: 0x8, addend: 0x0, symName: __ZNSt3__128__exception_guard_exceptionsINS_29_AllocatorDestroyRangeReverseINS_9allocatorINS_10shared_ptrI6ActionEEEEPS5_EEEC1B8ue170006ES8_, symObjAddr: 0x2220, symBinAddr: 0x1000146DC, symSize: 0x34 }
  - { offsetInCU: 0x15658, offset: 0x51086, size: 0x8, addend: 0x0, symName: __ZNSt3__128__exception_guard_exceptionsINS_29_AllocatorDestroyRangeReverseINS_9allocatorINS_10shared_ptrI6ActionEEEEPS5_EEEC2B8ue170006ES8_, symObjAddr: 0x2254, symBinAddr: 0x100014710, symSize: 0x30 }
  - { offsetInCU: 0x1568F, offset: 0x510BD, size: 0x8, addend: 0x0, symName: __ZNSt3__129_AllocatorDestroyRangeReverseINS_9allocatorINS_10shared_ptrI6ActionEEEEPS4_EC2B8ue170006ERS5_RS6_S9_, symObjAddr: 0x2284, symBinAddr: 0x100014740, symSize: 0x38 }
  - { offsetInCU: 0x156E4, offset: 0x51112, size: 0x8, addend: 0x0, symName: __ZNSt3__110shared_ptrI6ActionEC1B8ue170006ERKS2_, symObjAddr: 0x22F8, symBinAddr: 0x1000147B4, symSize: 0x34 }
  - { offsetInCU: 0x1571B, offset: 0x51149, size: 0x8, addend: 0x0, symName: __ZNSt3__110shared_ptrI6ActionEC2B8ue170006ERKS2_, symObjAddr: 0x232C, symBinAddr: 0x1000147E8, symSize: 0x70 }
  - { offsetInCU: 0x15752, offset: 0x51180, size: 0x8, addend: 0x0, symName: __ZNSt3__119__shared_weak_count12__add_sharedB8ue170006Ev, symObjAddr: 0x239C, symBinAddr: 0x100014858, symSize: 0x24 }
  - { offsetInCU: 0x15777, offset: 0x511A5, size: 0x8, addend: 0x0, symName: __ZNSt3__114__shared_count12__add_sharedB8ue170006Ev, symObjAddr: 0x23C0, symBinAddr: 0x10001487C, symSize: 0x28 }
  - { offsetInCU: 0x1579C, offset: 0x511CA, size: 0x8, addend: 0x0, symName: __ZNSt3__128__exception_guard_exceptionsINS_29_AllocatorDestroyRangeReverseINS_9allocatorINS_10shared_ptrI6ActionEEEEPS5_EEED2B8ue170006Ev, symObjAddr: 0x2418, symBinAddr: 0x1000148D4, symSize: 0x50 }
  - { offsetInCU: 0x157C4, offset: 0x511F2, size: 0x8, addend: 0x0, symName: __ZNKSt3__129_AllocatorDestroyRangeReverseINS_9allocatorINS_10shared_ptrI6ActionEEEEPS4_EclB8ue170006Ev, symObjAddr: 0x2468, symBinAddr: 0x100014924, symSize: 0x68 }
  - { offsetInCU: 0x157E9, offset: 0x51217, size: 0x8, addend: 0x0, symName: __ZNSt3__116reverse_iteratorIPNS_10shared_ptrI6ActionEEEC1B8ue170006ES4_, symObjAddr: 0x2540, symBinAddr: 0x1000149FC, symSize: 0x34 }
  - { offsetInCU: 0x1581F, offset: 0x5124D, size: 0x8, addend: 0x0, symName: __ZNSt3__116allocator_traitsINS_9allocatorINS_10shared_ptrI6ActionEEEEE7destroyB8ue170006IS4_vvEEvRS5_PT_, symObjAddr: 0x25BC, symBinAddr: 0x100014A78, symSize: 0x28 }
  - { offsetInCU: 0x15859, offset: 0x51287, size: 0x8, addend: 0x0, symName: __ZNSt3__116reverse_iteratorIPNS_10shared_ptrI6ActionEEEppB8ue170006Ev, symObjAddr: 0x2608, symBinAddr: 0x100014AC4, symSize: 0x20 }
  - { offsetInCU: 0x1587E, offset: 0x512AC, size: 0x8, addend: 0x0, symName: __ZNKSt3__116reverse_iteratorIPNS_10shared_ptrI6ActionEEE4baseB8ue170006Ev, symObjAddr: 0x2628, symBinAddr: 0x100014AE4, symSize: 0x18 }
  - { offsetInCU: 0x158A8, offset: 0x512D6, size: 0x8, addend: 0x0, symName: __ZNSt3__119__to_address_helperINS_16reverse_iteratorIPNS_10shared_ptrI6ActionEEEEvE6__callB8ue170006ERKS6_, symObjAddr: 0x2688, symBinAddr: 0x100014B44, symSize: 0x38 }
  - { offsetInCU: 0x158CB, offset: 0x512F9, size: 0x8, addend: 0x0, symName: __ZNKSt3__116reverse_iteratorIPNS_10shared_ptrI6ActionEEEptB8ue170006Ev, symObjAddr: 0x26C0, symBinAddr: 0x100014B7C, symSize: 0x2C }
  - { offsetInCU: 0x158F0, offset: 0x5131E, size: 0x8, addend: 0x0, symName: __ZNSt3__116reverse_iteratorIPNS_10shared_ptrI6ActionEEEC2B8ue170006ES4_, symObjAddr: 0x279C, symBinAddr: 0x100014C44, symSize: 0x28 }
  - { offsetInCU: 0x15926, offset: 0x51354, size: 0x8, addend: 0x0, symName: __ZNSt3__118__unwrap_iter_implIPNS_10shared_ptrI6ActionEELb1EE8__unwrapB8ue170006ES4_, symObjAddr: 0x27C4, symBinAddr: 0x100014C6C, symSize: 0x24 }
  - { offsetInCU: 0x15949, offset: 0x51377, size: 0x8, addend: 0x0, symName: __ZNSt3__118__unwrap_iter_implIPNS_10shared_ptrI6ActionEELb1EE8__rewrapB8ue170006ES4_S4_, symObjAddr: 0x27E8, symBinAddr: 0x100014C90, symSize: 0x50 }
  - { offsetInCU: 0x1597A, offset: 0x513A8, size: 0x8, addend: 0x0, symName: __ZNSt3__16vectorINS_10shared_ptrI6ActionEENS_9allocatorIS3_EEE21_ConstructTransactionD2B8ue170006Ev, symObjAddr: 0x2838, symBinAddr: 0x100014CE0, symSize: 0x20 }
  - { offsetInCU: 0x159A2, offset: 0x513D0, size: 0x8, addend: 0x0, symName: __ZNSt3__128__exception_guard_exceptionsINS_6vectorINS_10shared_ptrI6ActionEENS_9allocatorIS4_EEE16__destroy_vectorEED2B8ue170006Ev, symObjAddr: 0x2858, symBinAddr: 0x100014D00, symSize: 0x50 }
  - { offsetInCU: 0x159CA, offset: 0x513F8, size: 0x8, addend: 0x0, symName: __ZNSt3__16vectorINS_10shared_ptrI6ActionEENS_9allocatorIS3_EEE16__destroy_vectorclB8ue170006Ev, symObjAddr: 0x28A8, symBinAddr: 0x100014D50, symSize: 0x90 }
  - { offsetInCU: 0x159EF, offset: 0x5141D, size: 0x8, addend: 0x0, symName: __ZNSt3__16vectorINS_10shared_ptrI6ActionEENS_9allocatorIS3_EEE7__clearB8ue170006Ev, symObjAddr: 0x2938, symBinAddr: 0x100014DE0, symSize: 0x28 }
  - { offsetInCU: 0x15A14, offset: 0x51442, size: 0x8, addend: 0x0, symName: __ZNKSt3__16vectorINS_10shared_ptrI6ActionEENS_9allocatorIS3_EEE17__annotate_deleteB8ue170006Ev, symObjAddr: 0x2960, symBinAddr: 0x100014E08, symSize: 0xB8 }
  - { offsetInCU: 0x15A39, offset: 0x51467, size: 0x8, addend: 0x0, symName: __ZNSt3__116allocator_traitsINS_9allocatorINS_10shared_ptrI6ActionEEEEE10deallocateB8ue170006ERS5_PS4_m, symObjAddr: 0x2A18, symBinAddr: 0x100014EC0, symSize: 0x34 }
  - { offsetInCU: 0x15A7B, offset: 0x514A9, size: 0x8, addend: 0x0, symName: __ZNSt3__16vectorINS_10shared_ptrI6ActionEENS_9allocatorIS3_EEE22__base_destruct_at_endB8ue170006EPS3_, symObjAddr: 0x2A4C, symBinAddr: 0x100014EF4, symSize: 0x8C }
  - { offsetInCU: 0x15ABE, offset: 0x514EC, size: 0x8, addend: 0x0, symName: __ZNKSt3__16vectorINS_10shared_ptrI6ActionEENS_9allocatorIS3_EEE4sizeB8ue170006Ev, symObjAddr: 0x2AD8, symBinAddr: 0x100014F80, symSize: 0x28 }
  - { offsetInCU: 0x15AE3, offset: 0x51511, size: 0x8, addend: 0x0, symName: __ZNSt3__19allocatorINS_10shared_ptrI6ActionEEE10deallocateB8ue170006EPS3_m, symObjAddr: 0x2B00, symBinAddr: 0x100014FA8, symSize: 0x40 }
  - { offsetInCU: 0x15B24, offset: 0x51552, size: 0x8, addend: 0x0, symName: __ZNRSt3__123__optional_storage_baseI8PositionLb0EE5__getB8ue170006Ev, symObjAddr: 0x2C48, symBinAddr: 0x100014FE8, symSize: 0x14 }
  - { offsetInCU: 0x15B49, offset: 0x51577, size: 0x8, addend: 0x0, symName: __ZNRSt3__123__optional_storage_baseI10SpecialKeyLb0EE5__getB8ue170006Ev, symObjAddr: 0x2C5C, symBinAddr: 0x100014FFC, symSize: 0x14 }
  - { offsetInCU: 0x15B6E, offset: 0x5159C, size: 0x8, addend: 0x0, symName: __ZNRSt3__123__optional_storage_baseIiLb0EE5__getB8ue170006Ev, symObjAddr: 0x2C70, symBinAddr: 0x100015010, symSize: 0x14 }
  - { offsetInCU: 0x15B93, offset: 0x515C1, size: 0x8, addend: 0x0, symName: __ZN8ToolModeD2Ev, symObjAddr: 0x2C84, symBinAddr: 0x100015024, symSize: 0x48 }
  - { offsetInCU: 0x15BBB, offset: 0x515E9, size: 0x8, addend: 0x0, symName: __ZN13CommandParserD1Ev, symObjAddr: 0x2CCC, symBinAddr: 0x10001506C, symSize: 0x2C }
  - { offsetInCU: 0x15BE3, offset: 0x51611, size: 0x8, addend: 0x0, symName: __ZN10EditorModeD2Ev, symObjAddr: 0x2CF8, symBinAddr: 0x100015098, symSize: 0x14 }
  - { offsetInCU: 0x15C0B, offset: 0x51639, size: 0x8, addend: 0x0, symName: __ZN13CommandParserD2Ev, symObjAddr: 0x2D0C, symBinAddr: 0x1000150AC, symSize: 0x3C }
  - { offsetInCU: 0x15C38, offset: 0x51666, size: 0x8, addend: 0x0, symName: __ZNSt3__110shared_ptrI6ActionED2B8ue170006Ev, symObjAddr: 0x2F24, symBinAddr: 0x1000150E8, symSize: 0x54 }
  - { offsetInCU: 0x15C60, offset: 0x5168E, size: 0x8, addend: 0x0, symName: __ZNSt3__119__shared_weak_count16__release_sharedB8ue170006Ev, symObjAddr: 0x2F78, symBinAddr: 0x10001513C, symSize: 0x3C }
  - { offsetInCU: 0x15C85, offset: 0x516B3, size: 0x8, addend: 0x0, symName: __ZNSt3__114__shared_count16__release_sharedB8ue170006Ev, symObjAddr: 0x2FB4, symBinAddr: 0x100015178, symSize: 0x7C }
  - { offsetInCU: 0x15CAA, offset: 0x516D8, size: 0x8, addend: 0x0, symName: __ZNSt3__19allocatorI23FixedPositionMoveActionEC1B8ue170006Ev, symObjAddr: 0x3100, symBinAddr: 0x1000152C4, symSize: 0x2C }
  - { offsetInCU: 0x15CFF, offset: 0x5172D, size: 0x8, addend: 0x0, symName: __ZNSt3__118__allocation_guardINS_9allocatorINS_20__shared_ptr_emplaceI23FixedPositionMoveActionNS1_IS3_EEEEEEEC1B8ue170006IS4_EET_m, symObjAddr: 0x312C, symBinAddr: 0x1000152F0, symSize: 0x34 }
  - { offsetInCU: 0x15D4C, offset: 0x5177A, size: 0x8, addend: 0x0, symName: __ZNKSt3__118__allocation_guardINS_9allocatorINS_20__shared_ptr_emplaceI23FixedPositionMoveActionNS1_IS3_EEEEEEE5__getB8ue170006Ev, symObjAddr: 0x3160, symBinAddr: 0x100015324, symSize: 0x18 }
  - { offsetInCU: 0x15D7B, offset: 0x517A9, size: 0x8, addend: 0x0, symName: __ZNSt3__120__shared_ptr_emplaceI23FixedPositionMoveActionNS_9allocatorIS1_EEEC1B8ue170006IJR10ScreenSizeR8PositionEEES3_DpOT_, symObjAddr: 0x3178, symBinAddr: 0x10001533C, symSize: 0x3C }
  - { offsetInCU: 0x15DE0, offset: 0x5180E, size: 0x8, addend: 0x0, symName: __ZNSt3__118__allocation_guardINS_9allocatorINS_20__shared_ptr_emplaceI23FixedPositionMoveActionNS1_IS3_EEEEEEE13__release_ptrB8ue170006Ev, symObjAddr: 0x31B4, symBinAddr: 0x100015378, symSize: 0x24 }
  - { offsetInCU: 0x15E13, offset: 0x51841, size: 0x8, addend: 0x0, symName: __ZNSt3__110shared_ptrI23FixedPositionMoveActionE27__create_with_control_blockB8ue170006IS1_NS_20__shared_ptr_emplaceIS1_NS_9allocatorIS1_EEEEEES2_PT_PT0_, symObjAddr: 0x31D8, symBinAddr: 0x10001539C, symSize: 0xA4 }
  - { offsetInCU: 0x15E68, offset: 0x51896, size: 0x8, addend: 0x0, symName: __ZNSt3__120__shared_ptr_emplaceI23FixedPositionMoveActionNS_9allocatorIS1_EEE10__get_elemB8ue170006Ev, symObjAddr: 0x327C, symBinAddr: 0x100015440, symSize: 0x28 }
  - { offsetInCU: 0x15E8D, offset: 0x518BB, size: 0x8, addend: 0x0, symName: __ZNSt3__118__allocation_guardINS_9allocatorINS_20__shared_ptr_emplaceI23FixedPositionMoveActionNS1_IS3_EEEEEEED1B8ue170006Ev, symObjAddr: 0x32A4, symBinAddr: 0x100015468, symSize: 0x2C }
  - { offsetInCU: 0x15EB5, offset: 0x518E3, size: 0x8, addend: 0x0, symName: __ZNSt3__118__allocation_guardINS_9allocatorINS_20__shared_ptr_emplaceI23FixedPositionMoveActionNS1_IS3_EEEEEEEC2B8ue170006IS4_EET_m, symObjAddr: 0x32D0, symBinAddr: 0x100015494, symSize: 0x50 }
  - { offsetInCU: 0x15F02, offset: 0x51930, size: 0x8, addend: 0x0, symName: __ZNSt3__19allocatorINS_20__shared_ptr_emplaceI23FixedPositionMoveActionNS0_IS2_EEEEEC1B8ue170006IS2_EERKNS0_IT_EE, symObjAddr: 0x3320, symBinAddr: 0x1000154E4, symSize: 0x34 }
  - { offsetInCU: 0x15F3E, offset: 0x5196C, size: 0x8, addend: 0x0, symName: __ZNSt3__116allocator_traitsINS_9allocatorINS_20__shared_ptr_emplaceI23FixedPositionMoveActionNS1_IS3_EEEEEEE8allocateB8ue170006ERS6_m, symObjAddr: 0x3354, symBinAddr: 0x100015518, symSize: 0x2C }
  - { offsetInCU: 0x15F71, offset: 0x5199F, size: 0x8, addend: 0x0, symName: __ZNSt3__19allocatorINS_20__shared_ptr_emplaceI23FixedPositionMoveActionNS0_IS2_EEEEEC2B8ue170006IS2_EERKNS0_IT_EE, symObjAddr: 0x3380, symBinAddr: 0x100015544, symSize: 0x30 }
  - { offsetInCU: 0x15FAD, offset: 0x519DB, size: 0x8, addend: 0x0, symName: __ZNSt3__116__non_trivial_ifILb1ENS_9allocatorINS_20__shared_ptr_emplaceI23FixedPositionMoveActionNS1_IS3_EEEEEEEC2B8ue170006Ev, symObjAddr: 0x33B0, symBinAddr: 0x100015574, symSize: 0x14 }
  - { offsetInCU: 0x15FD5, offset: 0x51A03, size: 0x8, addend: 0x0, symName: __ZNSt3__19allocatorINS_20__shared_ptr_emplaceI23FixedPositionMoveActionNS0_IS2_EEEEE8allocateB8ue170006Em, symObjAddr: 0x33C4, symBinAddr: 0x100015588, symSize: 0x5C }
  - { offsetInCU: 0x16012, offset: 0x51A40, size: 0x8, addend: 0x0, symName: __ZNSt3__116allocator_traitsINS_9allocatorINS_20__shared_ptr_emplaceI23FixedPositionMoveActionNS1_IS3_EEEEEEE8max_sizeB8ue170006IS6_vvEEmRKS6_, symObjAddr: 0x3420, symBinAddr: 0x1000155E4, symSize: 0x28 }
  - { offsetInCU: 0x1603D, offset: 0x51A6B, size: 0x8, addend: 0x0, symName: __ZNSt3__120__shared_ptr_emplaceI23FixedPositionMoveActionNS_9allocatorIS1_EEEC2B8ue170006IJR10ScreenSizeR8PositionEEES3_DpOT_, symObjAddr: 0x3448, symBinAddr: 0x10001560C, symSize: 0xD0 }
  - { offsetInCU: 0x160C3, offset: 0x51AF1, size: 0x8, addend: 0x0, symName: __ZNSt3__119__shared_weak_countC2B8ue170006El, symObjAddr: 0x3518, symBinAddr: 0x1000156DC, symSize: 0x54 }
  - { offsetInCU: 0x160F9, offset: 0x51B27, size: 0x8, addend: 0x0, symName: __ZNSt3__120__shared_ptr_emplaceI23FixedPositionMoveActionNS_9allocatorIS1_EEE8_StorageC1B8ue170006EOS3_, symObjAddr: 0x356C, symBinAddr: 0x100015730, symSize: 0x34 }
  - { offsetInCU: 0x16130, offset: 0x51B5E, size: 0x8, addend: 0x0, symName: __ZNSt3__120__shared_ptr_emplaceI23FixedPositionMoveActionNS_9allocatorIS1_EEE11__get_allocB8ue170006Ev, symObjAddr: 0x35A0, symBinAddr: 0x100015764, symSize: 0x28 }
  - { offsetInCU: 0x1615A, offset: 0x51B88, size: 0x8, addend: 0x0, symName: __ZNSt3__116allocator_traitsINS_9allocatorI23FixedPositionMoveActionEEE9constructB8ue170006IS2_JR10ScreenSizeR8PositionEvvEEvRS3_PT_DpOT0_, symObjAddr: 0x35C8, symBinAddr: 0x10001578C, symSize: 0x38 }
  - { offsetInCU: 0x161C2, offset: 0x51BF0, size: 0x8, addend: 0x0, symName: __ZNSt3__120__shared_ptr_emplaceI23FixedPositionMoveActionNS_9allocatorIS1_EEE8_StorageD1B8ue170006Ev, symObjAddr: 0x3600, symBinAddr: 0x1000157C4, symSize: 0x2C }
  - { offsetInCU: 0x161EA, offset: 0x51C18, size: 0x8, addend: 0x0, symName: __ZNSt3__120__shared_ptr_emplaceI23FixedPositionMoveActionNS_9allocatorIS1_EEED1Ev, symObjAddr: 0x362C, symBinAddr: 0x1000157F0, symSize: 0x2C }
  - { offsetInCU: 0x16215, offset: 0x51C43, size: 0x8, addend: 0x0, symName: __ZNSt3__120__shared_ptr_emplaceI23FixedPositionMoveActionNS_9allocatorIS1_EEED0Ev, symObjAddr: 0x3658, symBinAddr: 0x10001581C, symSize: 0x30 }
  - { offsetInCU: 0x16240, offset: 0x51C6E, size: 0x8, addend: 0x0, symName: __ZNSt3__120__shared_ptr_emplaceI23FixedPositionMoveActionNS_9allocatorIS1_EEE16__on_zero_sharedEv, symObjAddr: 0x3688, symBinAddr: 0x10001584C, symSize: 0x44 }
  - { offsetInCU: 0x16286, offset: 0x51CB4, size: 0x8, addend: 0x0, symName: __ZNSt3__120__shared_ptr_emplaceI23FixedPositionMoveActionNS_9allocatorIS1_EEE21__on_zero_shared_weakEv, symObjAddr: 0x36CC, symBinAddr: 0x100015890, symSize: 0x5C }
  - { offsetInCU: 0x162C6, offset: 0x51CF4, size: 0x8, addend: 0x0, symName: __ZNSt3__114__shared_countC2B8ue170006El, symObjAddr: 0x3728, symBinAddr: 0x1000158EC, symSize: 0x30 }
  - { offsetInCU: 0x162FC, offset: 0x51D2A, size: 0x8, addend: 0x0, symName: __ZNSt3__120__shared_ptr_emplaceI23FixedPositionMoveActionNS_9allocatorIS1_EEE8_StorageC2B8ue170006EOS3_, symObjAddr: 0x3758, symBinAddr: 0x10001591C, symSize: 0x30 }
  - { offsetInCU: 0x16333, offset: 0x51D61, size: 0x8, addend: 0x0, symName: __ZNSt3__120__shared_ptr_emplaceI23FixedPositionMoveActionNS_9allocatorIS1_EEE8_Storage11__get_allocB8ue170006Ev, symObjAddr: 0x3788, symBinAddr: 0x10001594C, symSize: 0x3C }
  - { offsetInCU: 0x16385, offset: 0x51DB3, size: 0x8, addend: 0x0, symName: __ZNSt3__117__compressed_pairINS_9allocatorI23FixedPositionMoveActionEES2_E16__get_first_baseB8ue170006EPS4_, symObjAddr: 0x37C4, symBinAddr: 0x100015988, symSize: 0x14 }
  - { offsetInCU: 0x163A8, offset: 0x51DD6, size: 0x8, addend: 0x0, symName: __ZNSt3__120__shared_ptr_emplaceI23FixedPositionMoveActionNS_9allocatorIS1_EEE8_StorageD2B8ue170006Ev, symObjAddr: 0x3834, symBinAddr: 0x1000159F8, symSize: 0x2C }
  - { offsetInCU: 0x163D0, offset: 0x51DFE, size: 0x8, addend: 0x0, symName: __ZNSt3__120__shared_ptr_emplaceI23FixedPositionMoveActionNS_9allocatorIS1_EEED2Ev, symObjAddr: 0x3860, symBinAddr: 0x100015A24, symSize: 0x48 }
  - { offsetInCU: 0x163FB, offset: 0x51E29, size: 0x8, addend: 0x0, symName: __ZNSt3__116allocator_traitsINS_9allocatorI23FixedPositionMoveActionEEE7destroyB8ue170006IS2_vvEEvRS3_PT_, symObjAddr: 0x38A8, symBinAddr: 0x100015A6C, symSize: 0x28 }
  - { offsetInCU: 0x16435, offset: 0x51E63, size: 0x8, addend: 0x0, symName: __ZNSt3__116allocator_traitsINS_9allocatorINS_20__shared_ptr_emplaceI23FixedPositionMoveActionNS1_IS3_EEEEEEE10deallocateB8ue170006ERS6_PS5_m, symObjAddr: 0x3920, symBinAddr: 0x100015AE4, symSize: 0x34 }
  - { offsetInCU: 0x1647C, offset: 0x51EAA, size: 0x8, addend: 0x0, symName: __ZNSt3__114pointer_traitsIPNS_20__shared_ptr_emplaceI23FixedPositionMoveActionNS_9allocatorIS2_EEEEE10pointer_toB8ue170006ERS5_, symObjAddr: 0x3954, symBinAddr: 0x100015B18, symSize: 0x14 }
  - { offsetInCU: 0x1649F, offset: 0x51ECD, size: 0x8, addend: 0x0, symName: __ZNSt3__19allocatorINS_20__shared_ptr_emplaceI23FixedPositionMoveActionNS0_IS2_EEEEE10deallocateB8ue170006EPS4_m, symObjAddr: 0x3968, symBinAddr: 0x100015B2C, symSize: 0x44 }
  - { offsetInCU: 0x164E0, offset: 0x51F0E, size: 0x8, addend: 0x0, symName: __ZNSt3__110shared_ptrI23FixedPositionMoveActionEC1B8ue170006Ev, symObjAddr: 0x39AC, symBinAddr: 0x100015B70, symSize: 0x2C }
  - { offsetInCU: 0x16508, offset: 0x51F36, size: 0x8, addend: 0x0, symName: __ZNSt3__110shared_ptrI23FixedPositionMoveActionE18__enable_weak_thisB8ue170006Ez, symObjAddr: 0x39D8, symBinAddr: 0x100015B9C, symSize: 0x10 }
  - { offsetInCU: 0x1652E, offset: 0x51F5C, size: 0x8, addend: 0x0, symName: __ZNSt3__110shared_ptrI23FixedPositionMoveActionEC2B8ue170006Ev, symObjAddr: 0x39E8, symBinAddr: 0x100015BAC, symSize: 0x1C }
  - { offsetInCU: 0x16556, offset: 0x51F84, size: 0x8, addend: 0x0, symName: __ZNSt3__120__shared_ptr_emplaceI23FixedPositionMoveActionNS_9allocatorIS1_EEE8_Storage10__get_elemB8ue170006Ev, symObjAddr: 0x3A04, symBinAddr: 0x100015BC8, symSize: 0x3C }
  - { offsetInCU: 0x165A8, offset: 0x51FD6, size: 0x8, addend: 0x0, symName: __ZNSt3__117__compressed_pairINS_9allocatorI23FixedPositionMoveActionEES2_E17__get_second_baseB8ue170006EPS4_, symObjAddr: 0x3A40, symBinAddr: 0x100015C04, symSize: 0x14 }
  - { offsetInCU: 0x165CB, offset: 0x51FF9, size: 0x8, addend: 0x0, symName: __ZNSt3__118__allocation_guardINS_9allocatorINS_20__shared_ptr_emplaceI23FixedPositionMoveActionNS1_IS3_EEEEEEED2B8ue170006Ev, symObjAddr: 0x3A54, symBinAddr: 0x100015C18, symSize: 0x2C }
  - { offsetInCU: 0x165F3, offset: 0x52021, size: 0x8, addend: 0x0, symName: __ZNSt3__118__allocation_guardINS_9allocatorINS_20__shared_ptr_emplaceI23FixedPositionMoveActionNS1_IS3_EEEEEEE9__destroyB8ue170006Ev, symObjAddr: 0x3A80, symBinAddr: 0x100015C44, symSize: 0x4C }
  - { offsetInCU: 0x16618, offset: 0x52046, size: 0x8, addend: 0x0, symName: __ZNSt3__19allocatorI23FixedPositionMoveActionEC2B8ue170006Ev, symObjAddr: 0x3ACC, symBinAddr: 0x100015C90, symSize: 0x2C }
  - { offsetInCU: 0x16640, offset: 0x5206E, size: 0x8, addend: 0x0, symName: __ZNSt3__116__non_trivial_ifILb1ENS_9allocatorI23FixedPositionMoveActionEEEC2B8ue170006Ev, symObjAddr: 0x3AF8, symBinAddr: 0x100015CBC, symSize: 0x14 }
  - { offsetInCU: 0x16668, offset: 0x52096, size: 0x8, addend: 0x0, symName: __ZNSt3__110shared_ptrI23FixedPositionMoveActionED2B8ue170006Ev, symObjAddr: 0x3B0C, symBinAddr: 0x100015CD0, symSize: 0x54 }
  - { offsetInCU: 0x16690, offset: 0x520BE, size: 0x8, addend: 0x0, symName: __ZNSt3__110shared_ptrI6ActionEC2B8ue170006I23FixedPositionMoveActionvEEONS0_IT_EE, symObjAddr: 0x3B60, symBinAddr: 0x100015D24, symSize: 0x40 }
  - { offsetInCU: 0x166D1, offset: 0x520FF, size: 0x8, addend: 0x0, symName: __ZNSt3__19allocatorI18CharwiseMoveActionEC1B8ue170006Ev, symObjAddr: 0x3C40, symBinAddr: 0x100015E04, symSize: 0x2C }
  - { offsetInCU: 0x16726, offset: 0x52154, size: 0x8, addend: 0x0, symName: __ZNSt3__118__allocation_guardINS_9allocatorINS_20__shared_ptr_emplaceI18CharwiseMoveActionNS1_IS3_EEEEEEEC1B8ue170006IS4_EET_m, symObjAddr: 0x3C6C, symBinAddr: 0x100015E30, symSize: 0x34 }
  - { offsetInCU: 0x16773, offset: 0x521A1, size: 0x8, addend: 0x0, symName: __ZNKSt3__118__allocation_guardINS_9allocatorINS_20__shared_ptr_emplaceI18CharwiseMoveActionNS1_IS3_EEEEEEE5__getB8ue170006Ev, symObjAddr: 0x3CA0, symBinAddr: 0x100015E64, symSize: 0x18 }
  - { offsetInCU: 0x1679D, offset: 0x521CB, size: 0x8, addend: 0x0, symName: __ZNSt3__120__shared_ptr_emplaceI18CharwiseMoveActionNS_9allocatorIS1_EEEC1B8ue170006IJR10ScreenSize9DirectionEEES3_DpOT_, symObjAddr: 0x3CB8, symBinAddr: 0x100015E7C, symSize: 0x3C }
  - { offsetInCU: 0x16802, offset: 0x52230, size: 0x8, addend: 0x0, symName: __ZNSt3__118__allocation_guardINS_9allocatorINS_20__shared_ptr_emplaceI18CharwiseMoveActionNS1_IS3_EEEEEEE13__release_ptrB8ue170006Ev, symObjAddr: 0x3CF4, symBinAddr: 0x100015EB8, symSize: 0x24 }
  - { offsetInCU: 0x16835, offset: 0x52263, size: 0x8, addend: 0x0, symName: __ZNSt3__110shared_ptrI18CharwiseMoveActionE27__create_with_control_blockB8ue170006IS1_NS_20__shared_ptr_emplaceIS1_NS_9allocatorIS1_EEEEEES2_PT_PT0_, symObjAddr: 0x3D18, symBinAddr: 0x100015EDC, symSize: 0xA4 }
  - { offsetInCU: 0x1688A, offset: 0x522B8, size: 0x8, addend: 0x0, symName: __ZNSt3__120__shared_ptr_emplaceI18CharwiseMoveActionNS_9allocatorIS1_EEE10__get_elemB8ue170006Ev, symObjAddr: 0x3DBC, symBinAddr: 0x100015F80, symSize: 0x28 }
  - { offsetInCU: 0x168AF, offset: 0x522DD, size: 0x8, addend: 0x0, symName: __ZNSt3__118__allocation_guardINS_9allocatorINS_20__shared_ptr_emplaceI18CharwiseMoveActionNS1_IS3_EEEEEEED1B8ue170006Ev, symObjAddr: 0x3DE4, symBinAddr: 0x100015FA8, symSize: 0x2C }
  - { offsetInCU: 0x168D7, offset: 0x52305, size: 0x8, addend: 0x0, symName: __ZNSt3__118__allocation_guardINS_9allocatorINS_20__shared_ptr_emplaceI18CharwiseMoveActionNS1_IS3_EEEEEEEC2B8ue170006IS4_EET_m, symObjAddr: 0x3E10, symBinAddr: 0x100015FD4, symSize: 0x50 }
  - { offsetInCU: 0x16924, offset: 0x52352, size: 0x8, addend: 0x0, symName: __ZNSt3__19allocatorINS_20__shared_ptr_emplaceI18CharwiseMoveActionNS0_IS2_EEEEEC1B8ue170006IS2_EERKNS0_IT_EE, symObjAddr: 0x3E60, symBinAddr: 0x100016024, symSize: 0x34 }
  - { offsetInCU: 0x16960, offset: 0x5238E, size: 0x8, addend: 0x0, symName: __ZNSt3__116allocator_traitsINS_9allocatorINS_20__shared_ptr_emplaceI18CharwiseMoveActionNS1_IS3_EEEEEEE8allocateB8ue170006ERS6_m, symObjAddr: 0x3E94, symBinAddr: 0x100016058, symSize: 0x2C }
  - { offsetInCU: 0x16993, offset: 0x523C1, size: 0x8, addend: 0x0, symName: __ZNSt3__19allocatorINS_20__shared_ptr_emplaceI18CharwiseMoveActionNS0_IS2_EEEEEC2B8ue170006IS2_EERKNS0_IT_EE, symObjAddr: 0x3EC0, symBinAddr: 0x100016084, symSize: 0x30 }
  - { offsetInCU: 0x169CF, offset: 0x523FD, size: 0x8, addend: 0x0, symName: __ZNSt3__116__non_trivial_ifILb1ENS_9allocatorINS_20__shared_ptr_emplaceI18CharwiseMoveActionNS1_IS3_EEEEEEEC2B8ue170006Ev, symObjAddr: 0x3EF0, symBinAddr: 0x1000160B4, symSize: 0x14 }
  - { offsetInCU: 0x169F7, offset: 0x52425, size: 0x8, addend: 0x0, symName: __ZNSt3__19allocatorINS_20__shared_ptr_emplaceI18CharwiseMoveActionNS0_IS2_EEEEE8allocateB8ue170006Em, symObjAddr: 0x3F04, symBinAddr: 0x1000160C8, symSize: 0x5C }
  - { offsetInCU: 0x16A34, offset: 0x52462, size: 0x8, addend: 0x0, symName: __ZNSt3__116allocator_traitsINS_9allocatorINS_20__shared_ptr_emplaceI18CharwiseMoveActionNS1_IS3_EEEEEEE8max_sizeB8ue170006IS6_vvEEmRKS6_, symObjAddr: 0x3F60, symBinAddr: 0x100016124, symSize: 0x28 }
  - { offsetInCU: 0x16A5F, offset: 0x5248D, size: 0x8, addend: 0x0, symName: __ZNSt3__120__shared_ptr_emplaceI18CharwiseMoveActionNS_9allocatorIS1_EEEC2B8ue170006IJR10ScreenSize9DirectionEEES3_DpOT_, symObjAddr: 0x3F88, symBinAddr: 0x10001614C, symSize: 0xD0 }
  - { offsetInCU: 0x16AE5, offset: 0x52513, size: 0x8, addend: 0x0, symName: __ZNSt3__120__shared_ptr_emplaceI18CharwiseMoveActionNS_9allocatorIS1_EEE8_StorageC1B8ue170006EOS3_, symObjAddr: 0x4058, symBinAddr: 0x10001621C, symSize: 0x34 }
  - { offsetInCU: 0x16B1C, offset: 0x5254A, size: 0x8, addend: 0x0, symName: __ZNSt3__120__shared_ptr_emplaceI18CharwiseMoveActionNS_9allocatorIS1_EEE11__get_allocB8ue170006Ev, symObjAddr: 0x408C, symBinAddr: 0x100016250, symSize: 0x28 }
  - { offsetInCU: 0x16B46, offset: 0x52574, size: 0x8, addend: 0x0, symName: __ZNSt3__116allocator_traitsINS_9allocatorI18CharwiseMoveActionEEE9constructB8ue170006IS2_JR10ScreenSize9DirectionEvvEEvRS3_PT_DpOT0_, symObjAddr: 0x40B4, symBinAddr: 0x100016278, symSize: 0x38 }
  - { offsetInCU: 0x16BAE, offset: 0x525DC, size: 0x8, addend: 0x0, symName: __ZNSt3__120__shared_ptr_emplaceI18CharwiseMoveActionNS_9allocatorIS1_EEE8_StorageD1B8ue170006Ev, symObjAddr: 0x40EC, symBinAddr: 0x1000162B0, symSize: 0x2C }
  - { offsetInCU: 0x16BD6, offset: 0x52604, size: 0x8, addend: 0x0, symName: __ZNSt3__120__shared_ptr_emplaceI18CharwiseMoveActionNS_9allocatorIS1_EEED1Ev, symObjAddr: 0x4118, symBinAddr: 0x1000162DC, symSize: 0x2C }
  - { offsetInCU: 0x16C01, offset: 0x5262F, size: 0x8, addend: 0x0, symName: __ZNSt3__120__shared_ptr_emplaceI18CharwiseMoveActionNS_9allocatorIS1_EEED0Ev, symObjAddr: 0x4144, symBinAddr: 0x100016308, symSize: 0x30 }
  - { offsetInCU: 0x16C2C, offset: 0x5265A, size: 0x8, addend: 0x0, symName: __ZNSt3__120__shared_ptr_emplaceI18CharwiseMoveActionNS_9allocatorIS1_EEE16__on_zero_sharedEv, symObjAddr: 0x4174, symBinAddr: 0x100016338, symSize: 0x44 }
  - { offsetInCU: 0x16C72, offset: 0x526A0, size: 0x8, addend: 0x0, symName: __ZNSt3__120__shared_ptr_emplaceI18CharwiseMoveActionNS_9allocatorIS1_EEE21__on_zero_shared_weakEv, symObjAddr: 0x41B8, symBinAddr: 0x10001637C, symSize: 0x5C }
  - { offsetInCU: 0x16CB2, offset: 0x526E0, size: 0x8, addend: 0x0, symName: __ZNSt3__120__shared_ptr_emplaceI18CharwiseMoveActionNS_9allocatorIS1_EEE8_StorageC2B8ue170006EOS3_, symObjAddr: 0x4214, symBinAddr: 0x1000163D8, symSize: 0x30 }
  - { offsetInCU: 0x16CE9, offset: 0x52717, size: 0x8, addend: 0x0, symName: __ZNSt3__120__shared_ptr_emplaceI18CharwiseMoveActionNS_9allocatorIS1_EEE8_Storage11__get_allocB8ue170006Ev, symObjAddr: 0x4244, symBinAddr: 0x100016408, symSize: 0x3C }
  - { offsetInCU: 0x16D3B, offset: 0x52769, size: 0x8, addend: 0x0, symName: __ZNSt3__117__compressed_pairINS_9allocatorI18CharwiseMoveActionEES2_E16__get_first_baseB8ue170006EPS4_, symObjAddr: 0x4280, symBinAddr: 0x100016444, symSize: 0x14 }
  - { offsetInCU: 0x16D5E, offset: 0x5278C, size: 0x8, addend: 0x0, symName: __ZNSt3__120__shared_ptr_emplaceI18CharwiseMoveActionNS_9allocatorIS1_EEE8_StorageD2B8ue170006Ev, symObjAddr: 0x42E8, symBinAddr: 0x1000164AC, symSize: 0x2C }
  - { offsetInCU: 0x16D86, offset: 0x527B4, size: 0x8, addend: 0x0, symName: __ZNSt3__120__shared_ptr_emplaceI18CharwiseMoveActionNS_9allocatorIS1_EEED2Ev, symObjAddr: 0x4314, symBinAddr: 0x1000164D8, symSize: 0x48 }
  - { offsetInCU: 0x16DB1, offset: 0x527DF, size: 0x8, addend: 0x0, symName: __ZNSt3__116allocator_traitsINS_9allocatorI18CharwiseMoveActionEEE7destroyB8ue170006IS2_vvEEvRS3_PT_, symObjAddr: 0x435C, symBinAddr: 0x100016520, symSize: 0x28 }
  - { offsetInCU: 0x16DEB, offset: 0x52819, size: 0x8, addend: 0x0, symName: __ZNSt3__116allocator_traitsINS_9allocatorINS_20__shared_ptr_emplaceI18CharwiseMoveActionNS1_IS3_EEEEEEE10deallocateB8ue170006ERS6_PS5_m, symObjAddr: 0x43D4, symBinAddr: 0x100016598, symSize: 0x34 }
  - { offsetInCU: 0x16E32, offset: 0x52860, size: 0x8, addend: 0x0, symName: __ZNSt3__114pointer_traitsIPNS_20__shared_ptr_emplaceI18CharwiseMoveActionNS_9allocatorIS2_EEEEE10pointer_toB8ue170006ERS5_, symObjAddr: 0x4408, symBinAddr: 0x1000165CC, symSize: 0x14 }
  - { offsetInCU: 0x16E55, offset: 0x52883, size: 0x8, addend: 0x0, symName: __ZNSt3__19allocatorINS_20__shared_ptr_emplaceI18CharwiseMoveActionNS0_IS2_EEEEE10deallocateB8ue170006EPS4_m, symObjAddr: 0x441C, symBinAddr: 0x1000165E0, symSize: 0x44 }
  - { offsetInCU: 0x16E96, offset: 0x528C4, size: 0x8, addend: 0x0, symName: __ZNSt3__110shared_ptrI18CharwiseMoveActionEC1B8ue170006Ev, symObjAddr: 0x4460, symBinAddr: 0x100016624, symSize: 0x2C }
  - { offsetInCU: 0x16EBE, offset: 0x528EC, size: 0x8, addend: 0x0, symName: __ZNSt3__110shared_ptrI18CharwiseMoveActionE18__enable_weak_thisB8ue170006Ez, symObjAddr: 0x448C, symBinAddr: 0x100016650, symSize: 0x10 }
  - { offsetInCU: 0x16EE4, offset: 0x52912, size: 0x8, addend: 0x0, symName: __ZNSt3__110shared_ptrI18CharwiseMoveActionEC2B8ue170006Ev, symObjAddr: 0x449C, symBinAddr: 0x100016660, symSize: 0x1C }
  - { offsetInCU: 0x16F0C, offset: 0x5293A, size: 0x8, addend: 0x0, symName: __ZNSt3__120__shared_ptr_emplaceI18CharwiseMoveActionNS_9allocatorIS1_EEE8_Storage10__get_elemB8ue170006Ev, symObjAddr: 0x44B8, symBinAddr: 0x10001667C, symSize: 0x3C }
  - { offsetInCU: 0x16F5E, offset: 0x5298C, size: 0x8, addend: 0x0, symName: __ZNSt3__117__compressed_pairINS_9allocatorI18CharwiseMoveActionEES2_E17__get_second_baseB8ue170006EPS4_, symObjAddr: 0x44F4, symBinAddr: 0x1000166B8, symSize: 0x14 }
  - { offsetInCU: 0x16F81, offset: 0x529AF, size: 0x8, addend: 0x0, symName: __ZNSt3__118__allocation_guardINS_9allocatorINS_20__shared_ptr_emplaceI18CharwiseMoveActionNS1_IS3_EEEEEEED2B8ue170006Ev, symObjAddr: 0x4508, symBinAddr: 0x1000166CC, symSize: 0x2C }
  - { offsetInCU: 0x16FA9, offset: 0x529D7, size: 0x8, addend: 0x0, symName: __ZNSt3__118__allocation_guardINS_9allocatorINS_20__shared_ptr_emplaceI18CharwiseMoveActionNS1_IS3_EEEEEEE9__destroyB8ue170006Ev, symObjAddr: 0x4534, symBinAddr: 0x1000166F8, symSize: 0x4C }
  - { offsetInCU: 0x16FCE, offset: 0x529FC, size: 0x8, addend: 0x0, symName: __ZNSt3__19allocatorI18CharwiseMoveActionEC2B8ue170006Ev, symObjAddr: 0x4580, symBinAddr: 0x100016744, symSize: 0x2C }
  - { offsetInCU: 0x16FF6, offset: 0x52A24, size: 0x8, addend: 0x0, symName: __ZNSt3__116__non_trivial_ifILb1ENS_9allocatorI18CharwiseMoveActionEEEC2B8ue170006Ev, symObjAddr: 0x45AC, symBinAddr: 0x100016770, symSize: 0x14 }
  - { offsetInCU: 0x1701E, offset: 0x52A4C, size: 0x8, addend: 0x0, symName: __ZNSt3__110shared_ptrI18CharwiseMoveActionED2B8ue170006Ev, symObjAddr: 0x45C0, symBinAddr: 0x100016784, symSize: 0x54 }
  - { offsetInCU: 0x17046, offset: 0x52A74, size: 0x8, addend: 0x0, symName: __ZNSt3__110shared_ptrI6ActionEC2B8ue170006I18CharwiseMoveActionvEEONS0_IT_EE, symObjAddr: 0x4614, symBinAddr: 0x1000167D8, symSize: 0x40 }
  - { offsetInCU: 0x5F9B, offset: 0x58B58, size: 0x8, addend: 0x0, symName: __ZNSt3__111make_uniqueB8ue170006I8ToolModeJEEENS_11__unique_ifIT_E15__unique_singleEDpOT0_, symObjAddr: 0x190, symBinAddr: 0x10001697C, symSize: 0x78 }
  - { offsetInCU: 0x5FC8, offset: 0x58B85, size: 0x8, addend: 0x0, symName: __ZNSt3__111make_uniqueB8ue170006I10TypingModeJEEENS_11__unique_ifIT_E15__unique_singleEDpOT0_, symObjAddr: 0x294, symBinAddr: 0x100016A80, symSize: 0x40 }
  - { offsetInCU: 0x5FF5, offset: 0x58BB2, size: 0x8, addend: 0x0, symName: __ZNSt3__1plB8ue170006IcNS_11char_traitsIcEENS_9allocatorIcEEEENS_12basic_stringIT_T0_T1_EEPKS6_OS9_, symObjAddr: 0x620, symBinAddr: 0x100016DCC, symSize: 0x44 }
  - { offsetInCU: 0x604D, offset: 0x58C0A, size: 0x8, addend: 0x0, symName: __ZNSt3__130__uninitialized_allocator_copyB8ue170006INS_9allocatorINS_10shared_ptrI6ActionEEEEPS4_S6_S6_EET2_RT_T0_T1_S7_, symObjAddr: 0x131C, symBinAddr: 0x100017184, symSize: 0x80 }
  - { offsetInCU: 0x60EA, offset: 0x58CA7, size: 0x8, addend: 0x0, symName: __ZNSt3__114__unwrap_rangeB8ue170006IPNS_10shared_ptrI6ActionEES4_EEDaT_T0_, symObjAddr: 0x140C, symBinAddr: 0x100017204, symSize: 0x3C }
  - { offsetInCU: 0x6136, offset: 0x58CF3, size: 0x8, addend: 0x0, symName: __ZNSt3__135__uninitialized_allocator_copy_implB8ue170006INS_9allocatorINS_10shared_ptrI6ActionEEEEPS4_S6_S6_EET2_RT_T0_T1_S7_, symObjAddr: 0x1448, symBinAddr: 0x100017240, symSize: 0xF4 }
  - { offsetInCU: 0x62FE, offset: 0x58EBB, size: 0x8, addend: 0x0, symName: __ZNSt3__112construct_atB8ue170006INS_10shared_ptrI6ActionEEJRS3_EPS3_EEPT_S7_DpOT0_, symObjAddr: 0x1808, symBinAddr: 0x10001742C, symSize: 0x3C }
  - { offsetInCU: 0x8B96, offset: 0x5B753, size: 0x8, addend: 0x0, symName: __ZN11ModeManagerC2E8ModeType, symObjAddr: 0x0, symBinAddr: 0x100016818, symSize: 0x64 }
  - { offsetInCU: 0x8BCF, offset: 0x5B78C, size: 0x8, addend: 0x0, symName: __ZNSt3__110unique_ptrI10EditorModeNS_14default_deleteIS1_EEEC1B8ue170006ILb1EvEEv, symObjAddr: 0x64, symBinAddr: 0x10001687C, symSize: 0x2C }
  - { offsetInCU: 0x8C02, offset: 0x5B7BF, size: 0x8, addend: 0x0, symName: __ZN11ModeManager10changeModeE8ModeType, symObjAddr: 0x90, symBinAddr: 0x1000168A8, symSize: 0xA0 }
  - { offsetInCU: 0x8C37, offset: 0x5B7F4, size: 0x8, addend: 0x0, symName: __ZN11ModeManagerC1E8ModeType, symObjAddr: 0x15C, symBinAddr: 0x100016948, symSize: 0x34 }
  - { offsetInCU: 0x8C70, offset: 0x5B82D, size: 0x8, addend: 0x0, symName: __ZNSt3__110unique_ptrI10EditorModeNS_14default_deleteIS1_EEEaSB8ue170006I8ToolModeNS2_IS6_EEvvEERS4_ONS0_IT_T0_EE, symObjAddr: 0x208, symBinAddr: 0x1000169F4, symSize: 0x60 }
  - { offsetInCU: 0x8CB7, offset: 0x5B874, size: 0x8, addend: 0x0, symName: __ZNSt3__110unique_ptrI8ToolModeNS_14default_deleteIS1_EEED1B8ue170006Ev, symObjAddr: 0x268, symBinAddr: 0x100016A54, symSize: 0x2C }
  - { offsetInCU: 0x8CDF, offset: 0x5B89C, size: 0x8, addend: 0x0, symName: __ZNSt3__110unique_ptrI10EditorModeNS_14default_deleteIS1_EEEaSB8ue170006I10TypingModeNS2_IS6_EEvvEERS4_ONS0_IT_T0_EE, symObjAddr: 0x2D4, symBinAddr: 0x100016AC0, symSize: 0x60 }
  - { offsetInCU: 0x8D26, offset: 0x5B8E3, size: 0x8, addend: 0x0, symName: __ZNSt3__110unique_ptrI10TypingModeNS_14default_deleteIS1_EEED1B8ue170006Ev, symObjAddr: 0x334, symBinAddr: 0x100016B20, symSize: 0x2C }
  - { offsetInCU: 0x8D4E, offset: 0x5B90B, size: 0x8, addend: 0x0, symName: __ZN11ModeManager15convertToActionE5Input10ScreenSizeS1_8Settings, symObjAddr: 0x360, symBinAddr: 0x100016B4C, symSize: 0xFC }
  - { offsetInCU: 0x8DBE, offset: 0x5B97B, size: 0x8, addend: 0x0, symName: __ZNKSt3__110unique_ptrI10EditorModeNS_14default_deleteIS1_EEEptB8ue170006Ev, symObjAddr: 0x45C, symBinAddr: 0x100016C48, symSize: 0x28 }
  - { offsetInCU: 0x8DE3, offset: 0x5B9A0, size: 0x8, addend: 0x0, symName: __ZNKSt3__123__optional_storage_baseI8ModeTypeLb0EE9has_valueB8ue170006Ev, symObjAddr: 0x484, symBinAddr: 0x100016C70, symSize: 0x1C }
  - { offsetInCU: 0x8E08, offset: 0x5B9C5, size: 0x8, addend: 0x0, symName: __ZNRSt3__18optionalI8ModeTypeEdeB8ue170006Ev, symObjAddr: 0x4A0, symBinAddr: 0x100016C8C, symSize: 0x24 }
  - { offsetInCU: 0x8E2D, offset: 0x5B9EA, size: 0x8, addend: 0x0, symName: __ZNSt3__16vectorINS_10shared_ptrI6ActionEENS_9allocatorIS3_EEEC1ERKS6_, symObjAddr: 0x4C4, symBinAddr: 0x100016CB0, symSize: 0x34 }
  - { offsetInCU: 0x8E6C, offset: 0x5BA29, size: 0x8, addend: 0x0, symName: __ZN11ParseResultD1Ev, symObjAddr: 0x4F8, symBinAddr: 0x100016CE4, symSize: 0x2C }
  - { offsetInCU: 0x8E97, offset: 0x5BA54, size: 0x8, addend: 0x0, symName: __ZNK11ModeManager12getModeLabelEv, symObjAddr: 0x524, symBinAddr: 0x100016D10, symSize: 0xBC }
  - { offsetInCU: 0x8EBE, offset: 0x5BA7B, size: 0x8, addend: 0x0, symName: __ZNSt3__110unique_ptrI10EditorModeNS_14default_deleteIS1_EEEC2B8ue170006ILb1EvEEv, symObjAddr: 0x664, symBinAddr: 0x100016E10, symSize: 0x3C }
  - { offsetInCU: 0x8EF6, offset: 0x5BAB3, size: 0x8, addend: 0x0, symName: __ZNSt3__117__compressed_pairIP10EditorModeNS_14default_deleteIS1_EEEC1B8ue170006INS_16__value_init_tagES7_EEOT_OT0_, symObjAddr: 0x6A0, symBinAddr: 0x100016E4C, symSize: 0x3C }
  - { offsetInCU: 0x8F4C, offset: 0x5BB09, size: 0x8, addend: 0x0, symName: __ZNSt3__117__compressed_pairIP10EditorModeNS_14default_deleteIS1_EEEC2B8ue170006INS_16__value_init_tagES7_EEOT_OT0_, symObjAddr: 0x6E8, symBinAddr: 0x100016E88, symSize: 0x3C }
  - { offsetInCU: 0x8FA2, offset: 0x5BB5F, size: 0x8, addend: 0x0, symName: __ZNSt3__122__compressed_pair_elemIP10EditorModeLi0ELb0EEC2B8ue170006ENS_16__value_init_tagE, symObjAddr: 0x724, symBinAddr: 0x100016EC4, symSize: 0x18 }
  - { offsetInCU: 0x8FD5, offset: 0x5BB92, size: 0x8, addend: 0x0, symName: __ZNSt3__122__compressed_pair_elemINS_14default_deleteI10EditorModeEELi1ELb1EEC2B8ue170006ENS_16__value_init_tagE, symObjAddr: 0x73C, symBinAddr: 0x100016EDC, symSize: 0x14 }
  - { offsetInCU: 0x9008, offset: 0x5BBC5, size: 0x8, addend: 0x0, symName: __ZNRSt3__123__optional_storage_baseI8ModeTypeLb0EE5__getB8ue170006Ev, symObjAddr: 0x750, symBinAddr: 0x100016EF0, symSize: 0x14 }
  - { offsetInCU: 0x902D, offset: 0x5BBEA, size: 0x8, addend: 0x0, symName: __ZNSt3__16vectorINS_10shared_ptrI6ActionEENS_9allocatorIS3_EEEC2ERKS6_, symObjAddr: 0x764, symBinAddr: 0x100016F04, symSize: 0x94 }
  - { offsetInCU: 0x9071, offset: 0x5BC2E, size: 0x8, addend: 0x0, symName: __ZNSt3__116allocator_traitsINS_9allocatorINS_10shared_ptrI6ActionEEEEE37select_on_container_copy_constructionB8ue170006IS5_vvEES5_RKS5_, symObjAddr: 0x7F8, symBinAddr: 0x100016F98, symSize: 0x10 }
  - { offsetInCU: 0x90AA, offset: 0x5BC67, size: 0x8, addend: 0x0, symName: __ZNSt3__117__compressed_pairIPNS_10shared_ptrI6ActionEENS_9allocatorIS3_EEEC1B8ue170006IDnS6_EEOT_OT0_, symObjAddr: 0x830, symBinAddr: 0x100016FA8, symSize: 0x3C }
  - { offsetInCU: 0x9100, offset: 0x5BCBD, size: 0x8, addend: 0x0, symName: __ZNSt3__16vectorINS_10shared_ptrI6ActionEENS_9allocatorIS3_EEE16__init_with_sizeB8ue170006IPS3_S8_EEvT_T0_m, symObjAddr: 0x86C, symBinAddr: 0x100016FE4, symSize: 0xB8 }
  - { offsetInCU: 0x9173, offset: 0x5BD30, size: 0x8, addend: 0x0, symName: __ZNSt3__117__compressed_pairIPNS_10shared_ptrI6ActionEENS_9allocatorIS3_EEEC2B8ue170006IDnS6_EEOT_OT0_, symObjAddr: 0x984, symBinAddr: 0x10001709C, symSize: 0x44 }
  - { offsetInCU: 0x91C9, offset: 0x5BD86, size: 0x8, addend: 0x0, symName: __ZNSt3__122__compressed_pair_elemINS_9allocatorINS_10shared_ptrI6ActionEEEELi1ELb1EEC2B8ue170006IS5_vEEOT_, symObjAddr: 0x9E4, symBinAddr: 0x1000170E0, symSize: 0x18 }
  - { offsetInCU: 0x9209, offset: 0x5BDC6, size: 0x8, addend: 0x0, symName: __ZNSt3__16vectorINS_10shared_ptrI6ActionEENS_9allocatorIS3_EEE18__construct_at_endIPS3_S8_EEvT_T0_m, symObjAddr: 0xB1C, symBinAddr: 0x1000170F8, symSize: 0x8C }
  - { offsetInCU: 0x92B0, offset: 0x5BE6D, size: 0x8, addend: 0x0, symName: __ZNSt3__119__unwrap_range_implIPNS_10shared_ptrI6ActionEES4_E8__unwrapB8ue170006ES4_S4_, symObjAddr: 0x159C, symBinAddr: 0x100017334, symSize: 0x58 }
  - { offsetInCU: 0x92E6, offset: 0x5BEA3, size: 0x8, addend: 0x0, symName: __ZNSt3__14pairIPNS_10shared_ptrI6ActionEES4_EC1B8ue170006IS4_S4_LPv0EEEOT_OT0_, symObjAddr: 0x15F4, symBinAddr: 0x10001738C, symSize: 0x3C }
  - { offsetInCU: 0x9343, offset: 0x5BF00, size: 0x8, addend: 0x0, symName: __ZNSt3__14pairIPNS_10shared_ptrI6ActionEES4_EC2B8ue170006IS4_S4_LPv0EEEOT_OT0_, symObjAddr: 0x1630, symBinAddr: 0x1000173C8, symSize: 0x34 }
  - { offsetInCU: 0x93A0, offset: 0x5BF5D, size: 0x8, addend: 0x0, symName: __ZNSt3__116allocator_traitsINS_9allocatorINS_10shared_ptrI6ActionEEEEE9constructB8ue170006IS4_JRS4_EvvEEvRS5_PT_DpOT0_, symObjAddr: 0x16F4, symBinAddr: 0x1000173FC, symSize: 0x30 }
  - { offsetInCU: 0x93F4, offset: 0x5BFB1, size: 0x8, addend: 0x0, symName: __ZN11ParseResultD2Ev, symObjAddr: 0x22D4, symBinAddr: 0x100017468, symSize: 0x30 }
  - { offsetInCU: 0x941F, offset: 0x5BFDC, size: 0x8, addend: 0x0, symName: __ZNSt3__16vectorINS_10shared_ptrI6ActionEENS_9allocatorIS3_EEED1B8ue170006Ev, symObjAddr: 0x2304, symBinAddr: 0x100017498, symSize: 0x2C }
  - { offsetInCU: 0x9447, offset: 0x5C004, size: 0x8, addend: 0x0, symName: __ZNSt3__16vectorINS_10shared_ptrI6ActionEENS_9allocatorIS3_EEED2B8ue170006Ev, symObjAddr: 0x2330, symBinAddr: 0x1000174C4, symSize: 0x40 }
  - { offsetInCU: 0x946F, offset: 0x5C02C, size: 0x8, addend: 0x0, symName: __ZN8ToolModeC1Ev, symObjAddr: 0x25D0, symBinAddr: 0x100017504, symSize: 0x2C }
  - { offsetInCU: 0x9497, offset: 0x5C054, size: 0x8, addend: 0x0, symName: __ZNSt3__110unique_ptrI8ToolModeNS_14default_deleteIS1_EEEC1B8ue170006ILb1EvEEPS1_, symObjAddr: 0x25FC, symBinAddr: 0x100017530, symSize: 0x34 }
  - { offsetInCU: 0x94D8, offset: 0x5C095, size: 0x8, addend: 0x0, symName: __ZN8ToolModeC2Ev, symObjAddr: 0x2630, symBinAddr: 0x100017564, symSize: 0x78 }
  - { offsetInCU: 0x9500, offset: 0x5C0BD, size: 0x8, addend: 0x0, symName: __ZN10EditorModeC2Ev, symObjAddr: 0x26A8, symBinAddr: 0x1000175DC, symSize: 0x24 }
  - { offsetInCU: 0x9528, offset: 0x5C0E5, size: 0x8, addend: 0x0, symName: __ZN13CommandParserC1Ev, symObjAddr: 0x26CC, symBinAddr: 0x100017600, symSize: 0x2C }
  - { offsetInCU: 0x9550, offset: 0x5C10D, size: 0x8, addend: 0x0, symName: __ZN10EditorModeD1Ev, symObjAddr: 0x270C, symBinAddr: 0x10001762C, symSize: 0x14 }
  - { offsetInCU: 0x9578, offset: 0x5C135, size: 0x8, addend: 0x0, symName: __ZN10EditorModeD0Ev, symObjAddr: 0x2720, symBinAddr: 0x100017640, symSize: 0xC }
  - { offsetInCU: 0x95A0, offset: 0x5C15D, size: 0x8, addend: 0x0, symName: __ZN13CommandParserC2Ev, symObjAddr: 0x272C, symBinAddr: 0x10001764C, symSize: 0x80 }
  - { offsetInCU: 0x95C8, offset: 0x5C185, size: 0x8, addend: 0x0, symName: __ZNSt3__18optionalI14CommandDetailsEC1B8ue170006Ev, symObjAddr: 0x27AC, symBinAddr: 0x1000176CC, symSize: 0x2C }
  - { offsetInCU: 0x95F5, offset: 0x5C1B2, size: 0x8, addend: 0x0, symName: __ZNSt3__18optionalI14CommandDetailsEC2B8ue170006Ev, symObjAddr: 0x280C, symBinAddr: 0x1000176F8, symSize: 0x2C }
  - { offsetInCU: 0x9622, offset: 0x5C1DF, size: 0x8, addend: 0x0, symName: __ZNSt3__127__optional_move_assign_baseI14CommandDetailsLb1EEC2Ev, symObjAddr: 0x2838, symBinAddr: 0x100017724, symSize: 0x2C }
  - { offsetInCU: 0x9652, offset: 0x5C20F, size: 0x8, addend: 0x0, symName: __ZNSt3__127__optional_copy_assign_baseI14CommandDetailsLb1EEC2Ev, symObjAddr: 0x2864, symBinAddr: 0x100017750, symSize: 0x2C }
  - { offsetInCU: 0x9682, offset: 0x5C23F, size: 0x8, addend: 0x0, symName: __ZNSt3__120__optional_move_baseI14CommandDetailsLb1EEC2Ev, symObjAddr: 0x2890, symBinAddr: 0x10001777C, symSize: 0x2C }
  - { offsetInCU: 0x96B2, offset: 0x5C26F, size: 0x8, addend: 0x0, symName: __ZNSt3__120__optional_copy_baseI14CommandDetailsLb1EEC2Ev, symObjAddr: 0x28BC, symBinAddr: 0x1000177A8, symSize: 0x2C }
  - { offsetInCU: 0x96DD, offset: 0x5C29A, size: 0x8, addend: 0x0, symName: __ZNSt3__123__optional_storage_baseI14CommandDetailsLb0EEC2Ev, symObjAddr: 0x28E8, symBinAddr: 0x1000177D4, symSize: 0x2C }
  - { offsetInCU: 0x9708, offset: 0x5C2C5, size: 0x8, addend: 0x0, symName: __ZNSt3__124__optional_destruct_baseI14CommandDetailsLb1EEC2B8ue170006Ev, symObjAddr: 0x2914, symBinAddr: 0x100017800, symSize: 0x1C }
  - { offsetInCU: 0x9730, offset: 0x5C2ED, size: 0x8, addend: 0x0, symName: __ZNSt3__110unique_ptrI8ToolModeNS_14default_deleteIS1_EEEC2B8ue170006ILb1EvEEPS1_, symObjAddr: 0x2AD8, symBinAddr: 0x10001781C, symSize: 0x44 }
  - { offsetInCU: 0x9771, offset: 0x5C32E, size: 0x8, addend: 0x0, symName: __ZNSt3__117__compressed_pairIP8ToolModeNS_14default_deleteIS1_EEEC1B8ue170006IRS2_NS_16__value_init_tagEEEOT_OT0_, symObjAddr: 0x2B1C, symBinAddr: 0x100017860, symSize: 0x3C }
  - { offsetInCU: 0x97C7, offset: 0x5C384, size: 0x8, addend: 0x0, symName: __ZNSt3__117__compressed_pairIP8ToolModeNS_14default_deleteIS1_EEEC2B8ue170006IRS2_NS_16__value_init_tagEEEOT_OT0_, symObjAddr: 0x2B58, symBinAddr: 0x10001789C, symSize: 0x40 }
  - { offsetInCU: 0x981D, offset: 0x5C3DA, size: 0x8, addend: 0x0, symName: __ZNSt3__122__compressed_pair_elemIP8ToolModeLi0ELb0EEC2B8ue170006IRS2_vEEOT_, symObjAddr: 0x2B98, symBinAddr: 0x1000178DC, symSize: 0x24 }
  - { offsetInCU: 0x985D, offset: 0x5C41A, size: 0x8, addend: 0x0, symName: __ZNSt3__122__compressed_pair_elemINS_14default_deleteI8ToolModeEELi1ELb1EEC2B8ue170006ENS_16__value_init_tagE, symObjAddr: 0x2BBC, symBinAddr: 0x100017900, symSize: 0x14 }
  - { offsetInCU: 0x9890, offset: 0x5C44D, size: 0x8, addend: 0x0, symName: __ZNSt3__110unique_ptrI8ToolModeNS_14default_deleteIS1_EEED2B8ue170006Ev, symObjAddr: 0x2BD0, symBinAddr: 0x100017914, symSize: 0x30 }
  - { offsetInCU: 0x98B8, offset: 0x5C475, size: 0x8, addend: 0x0, symName: __ZNSt3__110unique_ptrI8ToolModeNS_14default_deleteIS1_EEE5resetB8ue170006EPS1_, symObjAddr: 0x2C00, symBinAddr: 0x100017944, symSize: 0x78 }
  - { offsetInCU: 0x98FB, offset: 0x5C4B8, size: 0x8, addend: 0x0, symName: __ZNSt3__117__compressed_pairIP8ToolModeNS_14default_deleteIS1_EEE5firstB8ue170006Ev, symObjAddr: 0x2C78, symBinAddr: 0x1000179BC, symSize: 0x24 }
  - { offsetInCU: 0x9920, offset: 0x5C4DD, size: 0x8, addend: 0x0, symName: __ZNSt3__117__compressed_pairIP8ToolModeNS_14default_deleteIS1_EEE6secondB8ue170006Ev, symObjAddr: 0x2C9C, symBinAddr: 0x1000179E0, symSize: 0x24 }
  - { offsetInCU: 0x9945, offset: 0x5C502, size: 0x8, addend: 0x0, symName: __ZNKSt3__114default_deleteI8ToolModeEclB8ue170006EPS1_, symObjAddr: 0x2CC0, symBinAddr: 0x100017A04, symSize: 0x4C }
  - { offsetInCU: 0x9978, offset: 0x5C535, size: 0x8, addend: 0x0, symName: __ZNSt3__122__compressed_pair_elemIP8ToolModeLi0ELb0EE5__getB8ue170006Ev, symObjAddr: 0x2D0C, symBinAddr: 0x100017A50, symSize: 0x14 }
  - { offsetInCU: 0x999D, offset: 0x5C55A, size: 0x8, addend: 0x0, symName: __ZNSt3__122__compressed_pair_elemINS_14default_deleteI8ToolModeEELi1ELb1EE5__getB8ue170006Ev, symObjAddr: 0x2D20, symBinAddr: 0x100017A64, symSize: 0x14 }
  - { offsetInCU: 0x99C2, offset: 0x5C57F, size: 0x8, addend: 0x0, symName: __ZNSt3__110unique_ptrI8ToolModeNS_14default_deleteIS1_EEE7releaseB8ue170006Ev, symObjAddr: 0x2D34, symBinAddr: 0x100017A78, symSize: 0x44 }
  - { offsetInCU: 0x99F6, offset: 0x5C5B3, size: 0x8, addend: 0x0, symName: __ZNSt3__110unique_ptrI8ToolModeNS_14default_deleteIS1_EEE11get_deleterB8ue170006Ev, symObjAddr: 0x2D78, symBinAddr: 0x100017ABC, symSize: 0x24 }
  - { offsetInCU: 0x9A20, offset: 0x5C5DD, size: 0x8, addend: 0x0, symName: __ZNSt3__114default_deleteI10EditorModeEC1B8ue170006I8ToolModeEERKNS0_IT_EEPNS_9enable_ifIXsr14is_convertibleIPS5_PS1_EE5valueEvE4typeE, symObjAddr: 0x2D9C, symBinAddr: 0x100017AE0, symSize: 0x3C }
  - { offsetInCU: 0x9A67, offset: 0x5C624, size: 0x8, addend: 0x0, symName: __ZNSt3__114default_deleteI10EditorModeEC2B8ue170006I8ToolModeEERKNS0_IT_EEPNS_9enable_ifIXsr14is_convertibleIPS5_PS1_EE5valueEvE4typeE, symObjAddr: 0x2DD8, symBinAddr: 0x100017B1C, symSize: 0x1C }
  - { offsetInCU: 0x9AAE, offset: 0x5C66B, size: 0x8, addend: 0x0, symName: __ZN10TypingModeC1Ev, symObjAddr: 0x2DF4, symBinAddr: 0x100017B38, symSize: 0x2C }
  - { offsetInCU: 0x9AD6, offset: 0x5C693, size: 0x8, addend: 0x0, symName: __ZNSt3__110unique_ptrI10TypingModeNS_14default_deleteIS1_EEEC1B8ue170006ILb1EvEEPS1_, symObjAddr: 0x2E20, symBinAddr: 0x100017B64, symSize: 0x34 }
  - { offsetInCU: 0x9B17, offset: 0x5C6D4, size: 0x8, addend: 0x0, symName: __ZN10TypingModeC2Ev, symObjAddr: 0x2E54, symBinAddr: 0x100017B98, symSize: 0x44 }
  - { offsetInCU: 0x9B3F, offset: 0x5C6FC, size: 0x8, addend: 0x0, symName: __ZNSt3__110unique_ptrI10TypingModeNS_14default_deleteIS1_EEEC2B8ue170006ILb1EvEEPS1_, symObjAddr: 0x2E98, symBinAddr: 0x100017BDC, symSize: 0x44 }
  - { offsetInCU: 0x9B80, offset: 0x5C73D, size: 0x8, addend: 0x0, symName: __ZNSt3__117__compressed_pairIP10TypingModeNS_14default_deleteIS1_EEEC1B8ue170006IRS2_NS_16__value_init_tagEEEOT_OT0_, symObjAddr: 0x2EDC, symBinAddr: 0x100017C20, symSize: 0x3C }
  - { offsetInCU: 0x9BD6, offset: 0x5C793, size: 0x8, addend: 0x0, symName: __ZNSt3__117__compressed_pairIP10TypingModeNS_14default_deleteIS1_EEEC2B8ue170006IRS2_NS_16__value_init_tagEEEOT_OT0_, symObjAddr: 0x2F18, symBinAddr: 0x100017C5C, symSize: 0x40 }
  - { offsetInCU: 0x9C2C, offset: 0x5C7E9, size: 0x8, addend: 0x0, symName: __ZNSt3__122__compressed_pair_elemIP10TypingModeLi0ELb0EEC2B8ue170006IRS2_vEEOT_, symObjAddr: 0x2F58, symBinAddr: 0x100017C9C, symSize: 0x24 }
  - { offsetInCU: 0x9C6C, offset: 0x5C829, size: 0x8, addend: 0x0, symName: __ZNSt3__122__compressed_pair_elemINS_14default_deleteI10TypingModeEELi1ELb1EEC2B8ue170006ENS_16__value_init_tagE, symObjAddr: 0x2F7C, symBinAddr: 0x100017CC0, symSize: 0x14 }
  - { offsetInCU: 0x9C9F, offset: 0x5C85C, size: 0x8, addend: 0x0, symName: __ZNSt3__110unique_ptrI10TypingModeNS_14default_deleteIS1_EEED2B8ue170006Ev, symObjAddr: 0x2F90, symBinAddr: 0x100017CD4, symSize: 0x30 }
  - { offsetInCU: 0x9CC7, offset: 0x5C884, size: 0x8, addend: 0x0, symName: __ZNSt3__110unique_ptrI10TypingModeNS_14default_deleteIS1_EEE5resetB8ue170006EPS1_, symObjAddr: 0x2FC0, symBinAddr: 0x100017D04, symSize: 0x78 }
  - { offsetInCU: 0x9D0A, offset: 0x5C8C7, size: 0x8, addend: 0x0, symName: __ZNSt3__117__compressed_pairIP10TypingModeNS_14default_deleteIS1_EEE5firstB8ue170006Ev, symObjAddr: 0x3038, symBinAddr: 0x100017D7C, symSize: 0x24 }
  - { offsetInCU: 0x9D2F, offset: 0x5C8EC, size: 0x8, addend: 0x0, symName: __ZNSt3__117__compressed_pairIP10TypingModeNS_14default_deleteIS1_EEE6secondB8ue170006Ev, symObjAddr: 0x305C, symBinAddr: 0x100017DA0, symSize: 0x24 }
  - { offsetInCU: 0x9D54, offset: 0x5C911, size: 0x8, addend: 0x0, symName: __ZNKSt3__114default_deleteI10TypingModeEclB8ue170006EPS1_, symObjAddr: 0x3080, symBinAddr: 0x100017DC4, symSize: 0x4C }
  - { offsetInCU: 0x9D87, offset: 0x5C944, size: 0x8, addend: 0x0, symName: __ZNSt3__122__compressed_pair_elemIP10TypingModeLi0ELb0EE5__getB8ue170006Ev, symObjAddr: 0x30CC, symBinAddr: 0x100017E10, symSize: 0x14 }
  - { offsetInCU: 0x9DAC, offset: 0x5C969, size: 0x8, addend: 0x0, symName: __ZNSt3__122__compressed_pair_elemINS_14default_deleteI10TypingModeEELi1ELb1EE5__getB8ue170006Ev, symObjAddr: 0x30E0, symBinAddr: 0x100017E24, symSize: 0x14 }
  - { offsetInCU: 0x9DD1, offset: 0x5C98E, size: 0x8, addend: 0x0, symName: __ZNSt3__110unique_ptrI10TypingModeNS_14default_deleteIS1_EEE7releaseB8ue170006Ev, symObjAddr: 0x30F4, symBinAddr: 0x100017E38, symSize: 0x44 }
  - { offsetInCU: 0x9E05, offset: 0x5C9C2, size: 0x8, addend: 0x0, symName: __ZNSt3__110unique_ptrI10TypingModeNS_14default_deleteIS1_EEE11get_deleterB8ue170006Ev, symObjAddr: 0x3138, symBinAddr: 0x100017E7C, symSize: 0x24 }
  - { offsetInCU: 0x9E2A, offset: 0x5C9E7, size: 0x8, addend: 0x0, symName: __ZNSt3__114default_deleteI10EditorModeEC1B8ue170006I10TypingModeEERKNS0_IT_EEPNS_9enable_ifIXsr14is_convertibleIPS5_PS1_EE5valueEvE4typeE, symObjAddr: 0x315C, symBinAddr: 0x100017EA0, symSize: 0x3C }
  - { offsetInCU: 0x9E71, offset: 0x5CA2E, size: 0x8, addend: 0x0, symName: __ZNSt3__114default_deleteI10EditorModeEC2B8ue170006I10TypingModeEERKNS0_IT_EEPNS_9enable_ifIXsr14is_convertibleIPS5_PS1_EE5valueEvE4typeE, symObjAddr: 0x3198, symBinAddr: 0x100017EDC, symSize: 0x1C }
  - { offsetInCU: 0x9EB8, offset: 0x5CA75, size: 0x8, addend: 0x0, symName: __ZNKSt3__117__compressed_pairIP10EditorModeNS_14default_deleteIS1_EEE5firstB8ue170006Ev, symObjAddr: 0x31B4, symBinAddr: 0x100017EF8, symSize: 0x24 }
  - { offsetInCU: 0x9EDD, offset: 0x5CA9A, size: 0x8, addend: 0x0, symName: __ZNKSt3__122__compressed_pair_elemIP10EditorModeLi0ELb0EE5__getB8ue170006Ev, symObjAddr: 0x31D8, symBinAddr: 0x100017F1C, symSize: 0x14 }
  - { offsetInCU: 0xD6F5, offset: 0x6A235, size: 0x8, addend: 0x0, symName: __ZNSt3__111make_sharedB8ue170006I11EraseActionJiEvEENS_10shared_ptrIT_EEDpOT0_, symObjAddr: 0xFD0, symBinAddr: 0x100018CAC, symSize: 0x40 }
  - { offsetInCU: 0xD954, offset: 0x6A494, size: 0x8, addend: 0x0, symName: __ZNSt3__111make_sharedB8ue170006I24ParagraphSplittingActionJEvEENS_10shared_ptrIT_EEDpOT0_, symObjAddr: 0x1070, symBinAddr: 0x100018D4C, symSize: 0x38 }
  - { offsetInCU: 0xDB9E, offset: 0x6A6DE, size: 0x8, addend: 0x0, symName: __ZNSt3__111make_sharedB8ue170006I12InsertActionJRiEvEENS_10shared_ptrIT_EEDpOT0_, symObjAddr: 0x14A4, symBinAddr: 0x1000190E4, symSize: 0x40 }
  - { offsetInCU: 0xDDFD, offset: 0x6A93D, size: 0x8, addend: 0x0, symName: __ZNSt3__115allocate_sharedB8ue170006I11EraseActionNS_9allocatorIS1_EEJiEvEENS_10shared_ptrIT_EERKT0_DpOT1_, symObjAddr: 0x4C38, symBinAddr: 0x100019248, symSize: 0x98 }
  - { offsetInCU: 0xE1A9, offset: 0x6ACE9, size: 0x8, addend: 0x0, symName: __ZNSt3__112construct_atB8ue170006I11EraseActionJiEPS1_EEPT_S4_DpOT0_, symObjAddr: 0x530C, symBinAddr: 0x10001991C, symSize: 0x48 }
  - { offsetInCU: 0xE21B, offset: 0x6AD5B, size: 0x8, addend: 0x0, symName: __ZNSt3__110destroy_atB8ue170006I11EraseActionLi0EEEvPT_, symObjAddr: 0x53F0, symBinAddr: 0x100019A00, symSize: 0x24 }
  - { offsetInCU: 0xE252, offset: 0x6AD92, size: 0x8, addend: 0x0, symName: __ZNSt3__112__destroy_atB8ue170006I11EraseActionLi0EEEvPT_, symObjAddr: 0x5414, symBinAddr: 0x100019A24, symSize: 0x2C }
  - { offsetInCU: 0xE2BC, offset: 0x6ADFC, size: 0x8, addend: 0x0, symName: __ZNSt3__115allocate_sharedB8ue170006I24ParagraphSplittingActionNS_9allocatorIS1_EEJEvEENS_10shared_ptrIT_EERKT0_DpOT1_, symObjAddr: 0x56C0, symBinAddr: 0x100019CD0, symSize: 0x90 }
  - { offsetInCU: 0xE648, offset: 0x6B188, size: 0x8, addend: 0x0, symName: __ZNSt3__112construct_atB8ue170006I24ParagraphSplittingActionJEPS1_EEPT_S4_DpOT0_, symObjAddr: 0x5D70, symBinAddr: 0x10001A380, symSize: 0x38 }
  - { offsetInCU: 0xE6A6, offset: 0x6B1E6, size: 0x8, addend: 0x0, symName: __ZNSt3__110destroy_atB8ue170006I24ParagraphSplittingActionLi0EEEvPT_, symObjAddr: 0x5EF8, symBinAddr: 0x10001A508, symSize: 0x24 }
  - { offsetInCU: 0xE6DD, offset: 0x6B21D, size: 0x8, addend: 0x0, symName: __ZNSt3__112__destroy_atB8ue170006I24ParagraphSplittingActionLi0EEEvPT_, symObjAddr: 0x5F1C, symBinAddr: 0x10001A52C, symSize: 0x2C }
  - { offsetInCU: 0xE747, offset: 0x6B287, size: 0x8, addend: 0x0, symName: __ZNSt3__115allocate_sharedB8ue170006I12InsertActionNS_9allocatorIS1_EEJRiEvEENS_10shared_ptrIT_EERKT0_DpOT1_, symObjAddr: 0x61C4, symBinAddr: 0x10001A7D4, symSize: 0x98 }
  - { offsetInCU: 0xEAF3, offset: 0x6B633, size: 0x8, addend: 0x0, symName: __ZNSt3__112construct_atB8ue170006I12InsertActionJRiEPS1_EEPT_S5_DpOT0_, symObjAddr: 0x6898, symBinAddr: 0x10001AEA8, symSize: 0x44 }
  - { offsetInCU: 0xEB65, offset: 0x6B6A5, size: 0x8, addend: 0x0, symName: __ZNSt3__110destroy_atB8ue170006I12InsertActionLi0EEEvPT_, symObjAddr: 0x6978, symBinAddr: 0x10001AF88, symSize: 0x24 }
  - { offsetInCU: 0xEB9C, offset: 0x6B6DC, size: 0x8, addend: 0x0, symName: __ZNSt3__112__destroy_atB8ue170006I12InsertActionLi0EEEvPT_, symObjAddr: 0x699C, symBinAddr: 0x10001AFAC, symSize: 0x2C }
  - { offsetInCU: 0x119BA, offset: 0x6E4FA, size: 0x8, addend: 0x0, symName: __ZN10TypingMode18parseMouseMovementE8Position10ScreenSizeS1_, symObjAddr: 0x0, symBinAddr: 0x100017F30, symSize: 0x2CC }
  - { offsetInCU: 0x11A2E, offset: 0x6E56E, size: 0x8, addend: 0x0, symName: __ZN10TypingMode15parseSpecialKeyE10SpecialKey10ScreenSize, symObjAddr: 0x478, symBinAddr: 0x1000181FC, symSize: 0xA94 }
  - { offsetInCU: 0x11A9C, offset: 0x6E5DC, size: 0x8, addend: 0x0, symName: __ZNSt3__110shared_ptrI6ActionEC1B8ue170006I11EraseActionvEEONS0_IT_EE, symObjAddr: 0x1010, symBinAddr: 0x100018CEC, symSize: 0x34 }
  - { offsetInCU: 0x11ADD, offset: 0x6E61D, size: 0x8, addend: 0x0, symName: __ZNSt3__110shared_ptrI11EraseActionED1B8ue170006Ev, symObjAddr: 0x1044, symBinAddr: 0x100018D20, symSize: 0x2C }
  - { offsetInCU: 0x11B28, offset: 0x6E668, size: 0x8, addend: 0x0, symName: __ZNSt3__110shared_ptrI6ActionEC1B8ue170006I24ParagraphSplittingActionvEEONS0_IT_EE, symObjAddr: 0x10A8, symBinAddr: 0x100018D84, symSize: 0x34 }
  - { offsetInCU: 0x11B69, offset: 0x6E6A9, size: 0x8, addend: 0x0, symName: __ZNSt3__110shared_ptrI24ParagraphSplittingActionED1B8ue170006Ev, symObjAddr: 0x10DC, symBinAddr: 0x100018DB8, symSize: 0x2C }
  - { offsetInCU: 0x11B91, offset: 0x6E6D1, size: 0x8, addend: 0x0, symName: __ZN10TypingMode10parseInputE5Input10ScreenSizeS1_RK8Settings, symObjAddr: 0x1108, symBinAddr: 0x100018DE4, symSize: 0x300 }
  - { offsetInCU: 0x11C17, offset: 0x6E757, size: 0x8, addend: 0x0, symName: __ZNSt3__110shared_ptrI6ActionEC1B8ue170006I12InsertActionvEEONS0_IT_EE, symObjAddr: 0x1508, symBinAddr: 0x100019124, symSize: 0x34 }
  - { offsetInCU: 0x11C58, offset: 0x6E798, size: 0x8, addend: 0x0, symName: __ZNSt3__110shared_ptrI12InsertActionED1B8ue170006Ev, symObjAddr: 0x153C, symBinAddr: 0x100019158, symSize: 0x2C }
  - { offsetInCU: 0x11C80, offset: 0x6E7C0, size: 0x8, addend: 0x0, symName: __ZN10TypingModeD1Ev, symObjAddr: 0x1568, symBinAddr: 0x100019184, symSize: 0x2C }
  - { offsetInCU: 0x11CA8, offset: 0x6E7E8, size: 0x8, addend: 0x0, symName: __ZN10TypingModeD0Ev, symObjAddr: 0x1594, symBinAddr: 0x1000191B0, symSize: 0x30 }
  - { offsetInCU: 0x11CD0, offset: 0x6E810, size: 0x8, addend: 0x0, symName: __ZNK10TypingMode12getModeLabelEv, symObjAddr: 0x15C4, symBinAddr: 0x1000191E0, symSize: 0x3C }
  - { offsetInCU: 0x11CF5, offset: 0x6E835, size: 0x8, addend: 0x0, symName: __ZN10TypingModeD2Ev, symObjAddr: 0x32EC, symBinAddr: 0x10001921C, symSize: 0x2C }
  - { offsetInCU: 0x11D22, offset: 0x6E862, size: 0x8, addend: 0x0, symName: __ZNSt3__19allocatorI11EraseActionEC1B8ue170006Ev, symObjAddr: 0x4CD0, symBinAddr: 0x1000192E0, symSize: 0x2C }
  - { offsetInCU: 0x11D77, offset: 0x6E8B7, size: 0x8, addend: 0x0, symName: __ZNSt3__118__allocation_guardINS_9allocatorINS_20__shared_ptr_emplaceI11EraseActionNS1_IS3_EEEEEEEC1B8ue170006IS4_EET_m, symObjAddr: 0x4CFC, symBinAddr: 0x10001930C, symSize: 0x34 }
  - { offsetInCU: 0x11DC4, offset: 0x6E904, size: 0x8, addend: 0x0, symName: __ZNKSt3__118__allocation_guardINS_9allocatorINS_20__shared_ptr_emplaceI11EraseActionNS1_IS3_EEEEEEE5__getB8ue170006Ev, symObjAddr: 0x4D30, symBinAddr: 0x100019340, symSize: 0x18 }
  - { offsetInCU: 0x11DEE, offset: 0x6E92E, size: 0x8, addend: 0x0, symName: __ZNSt3__120__shared_ptr_emplaceI11EraseActionNS_9allocatorIS1_EEEC1B8ue170006IJiEEES3_DpOT_, symObjAddr: 0x4D48, symBinAddr: 0x100019358, symSize: 0x34 }
  - { offsetInCU: 0x11E3F, offset: 0x6E97F, size: 0x8, addend: 0x0, symName: __ZNSt3__118__allocation_guardINS_9allocatorINS_20__shared_ptr_emplaceI11EraseActionNS1_IS3_EEEEEEE13__release_ptrB8ue170006Ev, symObjAddr: 0x4D7C, symBinAddr: 0x10001938C, symSize: 0x24 }
  - { offsetInCU: 0x11E72, offset: 0x6E9B2, size: 0x8, addend: 0x0, symName: __ZNSt3__110shared_ptrI11EraseActionE27__create_with_control_blockB8ue170006IS1_NS_20__shared_ptr_emplaceIS1_NS_9allocatorIS1_EEEEEES2_PT_PT0_, symObjAddr: 0x4DA0, symBinAddr: 0x1000193B0, symSize: 0xA4 }
  - { offsetInCU: 0x11EC7, offset: 0x6EA07, size: 0x8, addend: 0x0, symName: __ZNSt3__120__shared_ptr_emplaceI11EraseActionNS_9allocatorIS1_EEE10__get_elemB8ue170006Ev, symObjAddr: 0x4E44, symBinAddr: 0x100019454, symSize: 0x28 }
  - { offsetInCU: 0x11EEC, offset: 0x6EA2C, size: 0x8, addend: 0x0, symName: __ZNSt3__118__allocation_guardINS_9allocatorINS_20__shared_ptr_emplaceI11EraseActionNS1_IS3_EEEEEEED1B8ue170006Ev, symObjAddr: 0x4E6C, symBinAddr: 0x10001947C, symSize: 0x2C }
  - { offsetInCU: 0x11F14, offset: 0x6EA54, size: 0x8, addend: 0x0, symName: __ZNSt3__118__allocation_guardINS_9allocatorINS_20__shared_ptr_emplaceI11EraseActionNS1_IS3_EEEEEEEC2B8ue170006IS4_EET_m, symObjAddr: 0x4E98, symBinAddr: 0x1000194A8, symSize: 0x50 }
  - { offsetInCU: 0x11F61, offset: 0x6EAA1, size: 0x8, addend: 0x0, symName: __ZNSt3__19allocatorINS_20__shared_ptr_emplaceI11EraseActionNS0_IS2_EEEEEC1B8ue170006IS2_EERKNS0_IT_EE, symObjAddr: 0x4EE8, symBinAddr: 0x1000194F8, symSize: 0x34 }
  - { offsetInCU: 0x11F9D, offset: 0x6EADD, size: 0x8, addend: 0x0, symName: __ZNSt3__116allocator_traitsINS_9allocatorINS_20__shared_ptr_emplaceI11EraseActionNS1_IS3_EEEEEEE8allocateB8ue170006ERS6_m, symObjAddr: 0x4F1C, symBinAddr: 0x10001952C, symSize: 0x2C }
  - { offsetInCU: 0x11FD0, offset: 0x6EB10, size: 0x8, addend: 0x0, symName: __ZNSt3__19allocatorINS_20__shared_ptr_emplaceI11EraseActionNS0_IS2_EEEEEC2B8ue170006IS2_EERKNS0_IT_EE, symObjAddr: 0x4F48, symBinAddr: 0x100019558, symSize: 0x30 }
  - { offsetInCU: 0x1200C, offset: 0x6EB4C, size: 0x8, addend: 0x0, symName: __ZNSt3__116__non_trivial_ifILb1ENS_9allocatorINS_20__shared_ptr_emplaceI11EraseActionNS1_IS3_EEEEEEEC2B8ue170006Ev, symObjAddr: 0x4F78, symBinAddr: 0x100019588, symSize: 0x14 }
  - { offsetInCU: 0x12034, offset: 0x6EB74, size: 0x8, addend: 0x0, symName: __ZNSt3__19allocatorINS_20__shared_ptr_emplaceI11EraseActionNS0_IS2_EEEEE8allocateB8ue170006Em, symObjAddr: 0x4F8C, symBinAddr: 0x10001959C, symSize: 0x5C }
  - { offsetInCU: 0x12071, offset: 0x6EBB1, size: 0x8, addend: 0x0, symName: __ZNSt3__116allocator_traitsINS_9allocatorINS_20__shared_ptr_emplaceI11EraseActionNS1_IS3_EEEEEEE8max_sizeB8ue170006IS6_vvEEmRKS6_, symObjAddr: 0x4FE8, symBinAddr: 0x1000195F8, symSize: 0x28 }
  - { offsetInCU: 0x1209C, offset: 0x6EBDC, size: 0x8, addend: 0x0, symName: __ZNSt3__120__shared_ptr_emplaceI11EraseActionNS_9allocatorIS1_EEEC2B8ue170006IJiEEES3_DpOT_, symObjAddr: 0x5010, symBinAddr: 0x100019620, symSize: 0xC8 }
  - { offsetInCU: 0x1210E, offset: 0x6EC4E, size: 0x8, addend: 0x0, symName: __ZNSt3__120__shared_ptr_emplaceI11EraseActionNS_9allocatorIS1_EEE8_StorageC1B8ue170006EOS3_, symObjAddr: 0x50D8, symBinAddr: 0x1000196E8, symSize: 0x34 }
  - { offsetInCU: 0x12145, offset: 0x6EC85, size: 0x8, addend: 0x0, symName: __ZNSt3__120__shared_ptr_emplaceI11EraseActionNS_9allocatorIS1_EEE11__get_allocB8ue170006Ev, symObjAddr: 0x510C, symBinAddr: 0x10001971C, symSize: 0x28 }
  - { offsetInCU: 0x1216F, offset: 0x6ECAF, size: 0x8, addend: 0x0, symName: __ZNSt3__116allocator_traitsINS_9allocatorI11EraseActionEEE9constructB8ue170006IS2_JiEvvEEvRS3_PT_DpOT0_, symObjAddr: 0x5134, symBinAddr: 0x100019744, symSize: 0x30 }
  - { offsetInCU: 0x121C3, offset: 0x6ED03, size: 0x8, addend: 0x0, symName: __ZNSt3__120__shared_ptr_emplaceI11EraseActionNS_9allocatorIS1_EEE8_StorageD1B8ue170006Ev, symObjAddr: 0x5164, symBinAddr: 0x100019774, symSize: 0x2C }
  - { offsetInCU: 0x121EB, offset: 0x6ED2B, size: 0x8, addend: 0x0, symName: __ZNSt3__120__shared_ptr_emplaceI11EraseActionNS_9allocatorIS1_EEED1Ev, symObjAddr: 0x5190, symBinAddr: 0x1000197A0, symSize: 0x2C }
  - { offsetInCU: 0x12216, offset: 0x6ED56, size: 0x8, addend: 0x0, symName: __ZNSt3__120__shared_ptr_emplaceI11EraseActionNS_9allocatorIS1_EEED0Ev, symObjAddr: 0x51BC, symBinAddr: 0x1000197CC, symSize: 0x30 }
  - { offsetInCU: 0x12241, offset: 0x6ED81, size: 0x8, addend: 0x0, symName: __ZNSt3__120__shared_ptr_emplaceI11EraseActionNS_9allocatorIS1_EEE16__on_zero_sharedEv, symObjAddr: 0x51EC, symBinAddr: 0x1000197FC, symSize: 0x44 }
  - { offsetInCU: 0x12287, offset: 0x6EDC7, size: 0x8, addend: 0x0, symName: __ZNSt3__120__shared_ptr_emplaceI11EraseActionNS_9allocatorIS1_EEE21__on_zero_shared_weakEv, symObjAddr: 0x5230, symBinAddr: 0x100019840, symSize: 0x5C }
  - { offsetInCU: 0x122C7, offset: 0x6EE07, size: 0x8, addend: 0x0, symName: __ZNSt3__120__shared_ptr_emplaceI11EraseActionNS_9allocatorIS1_EEE8_StorageC2B8ue170006EOS3_, symObjAddr: 0x528C, symBinAddr: 0x10001989C, symSize: 0x30 }
  - { offsetInCU: 0x122FE, offset: 0x6EE3E, size: 0x8, addend: 0x0, symName: __ZNSt3__120__shared_ptr_emplaceI11EraseActionNS_9allocatorIS1_EEE8_Storage11__get_allocB8ue170006Ev, symObjAddr: 0x52BC, symBinAddr: 0x1000198CC, symSize: 0x3C }
  - { offsetInCU: 0x12350, offset: 0x6EE90, size: 0x8, addend: 0x0, symName: __ZNSt3__117__compressed_pairINS_9allocatorI11EraseActionEES2_E16__get_first_baseB8ue170006EPS4_, symObjAddr: 0x52F8, symBinAddr: 0x100019908, symSize: 0x14 }
  - { offsetInCU: 0x12373, offset: 0x6EEB3, size: 0x8, addend: 0x0, symName: __ZNSt3__120__shared_ptr_emplaceI11EraseActionNS_9allocatorIS1_EEE8_StorageD2B8ue170006Ev, symObjAddr: 0x5354, symBinAddr: 0x100019964, symSize: 0x2C }
  - { offsetInCU: 0x1239B, offset: 0x6EEDB, size: 0x8, addend: 0x0, symName: __ZNSt3__120__shared_ptr_emplaceI11EraseActionNS_9allocatorIS1_EEED2Ev, symObjAddr: 0x5380, symBinAddr: 0x100019990, symSize: 0x48 }
  - { offsetInCU: 0x123C6, offset: 0x6EF06, size: 0x8, addend: 0x0, symName: __ZNSt3__116allocator_traitsINS_9allocatorI11EraseActionEEE7destroyB8ue170006IS2_vvEEvRS3_PT_, symObjAddr: 0x53C8, symBinAddr: 0x1000199D8, symSize: 0x28 }
  - { offsetInCU: 0x12400, offset: 0x6EF40, size: 0x8, addend: 0x0, symName: __ZNSt3__116allocator_traitsINS_9allocatorINS_20__shared_ptr_emplaceI11EraseActionNS1_IS3_EEEEEEE10deallocateB8ue170006ERS6_PS5_m, symObjAddr: 0x5440, symBinAddr: 0x100019A50, symSize: 0x34 }
  - { offsetInCU: 0x12447, offset: 0x6EF87, size: 0x8, addend: 0x0, symName: __ZNSt3__114pointer_traitsIPNS_20__shared_ptr_emplaceI11EraseActionNS_9allocatorIS2_EEEEE10pointer_toB8ue170006ERS5_, symObjAddr: 0x5474, symBinAddr: 0x100019A84, symSize: 0x14 }
  - { offsetInCU: 0x1246A, offset: 0x6EFAA, size: 0x8, addend: 0x0, symName: __ZNSt3__19allocatorINS_20__shared_ptr_emplaceI11EraseActionNS0_IS2_EEEEE10deallocateB8ue170006EPS4_m, symObjAddr: 0x5488, symBinAddr: 0x100019A98, symSize: 0x44 }
  - { offsetInCU: 0x124AB, offset: 0x6EFEB, size: 0x8, addend: 0x0, symName: __ZNSt3__110shared_ptrI11EraseActionEC1B8ue170006Ev, symObjAddr: 0x54CC, symBinAddr: 0x100019ADC, symSize: 0x2C }
  - { offsetInCU: 0x124D3, offset: 0x6F013, size: 0x8, addend: 0x0, symName: __ZNSt3__110shared_ptrI11EraseActionE18__enable_weak_thisB8ue170006Ez, symObjAddr: 0x54F8, symBinAddr: 0x100019B08, symSize: 0x10 }
  - { offsetInCU: 0x124F9, offset: 0x6F039, size: 0x8, addend: 0x0, symName: __ZNSt3__110shared_ptrI11EraseActionEC2B8ue170006Ev, symObjAddr: 0x5508, symBinAddr: 0x100019B18, symSize: 0x1C }
  - { offsetInCU: 0x12521, offset: 0x6F061, size: 0x8, addend: 0x0, symName: __ZNSt3__120__shared_ptr_emplaceI11EraseActionNS_9allocatorIS1_EEE8_Storage10__get_elemB8ue170006Ev, symObjAddr: 0x5524, symBinAddr: 0x100019B34, symSize: 0x3C }
  - { offsetInCU: 0x12573, offset: 0x6F0B3, size: 0x8, addend: 0x0, symName: __ZNSt3__117__compressed_pairINS_9allocatorI11EraseActionEES2_E17__get_second_baseB8ue170006EPS4_, symObjAddr: 0x5560, symBinAddr: 0x100019B70, symSize: 0x14 }
  - { offsetInCU: 0x12596, offset: 0x6F0D6, size: 0x8, addend: 0x0, symName: __ZNSt3__118__allocation_guardINS_9allocatorINS_20__shared_ptr_emplaceI11EraseActionNS1_IS3_EEEEEEED2B8ue170006Ev, symObjAddr: 0x5574, symBinAddr: 0x100019B84, symSize: 0x2C }
  - { offsetInCU: 0x125BE, offset: 0x6F0FE, size: 0x8, addend: 0x0, symName: __ZNSt3__118__allocation_guardINS_9allocatorINS_20__shared_ptr_emplaceI11EraseActionNS1_IS3_EEEEEEE9__destroyB8ue170006Ev, symObjAddr: 0x55A0, symBinAddr: 0x100019BB0, symSize: 0x4C }
  - { offsetInCU: 0x125E3, offset: 0x6F123, size: 0x8, addend: 0x0, symName: __ZNSt3__19allocatorI11EraseActionEC2B8ue170006Ev, symObjAddr: 0x55EC, symBinAddr: 0x100019BFC, symSize: 0x2C }
  - { offsetInCU: 0x1260B, offset: 0x6F14B, size: 0x8, addend: 0x0, symName: __ZNSt3__116__non_trivial_ifILb1ENS_9allocatorI11EraseActionEEEC2B8ue170006Ev, symObjAddr: 0x5618, symBinAddr: 0x100019C28, symSize: 0x14 }
  - { offsetInCU: 0x12633, offset: 0x6F173, size: 0x8, addend: 0x0, symName: __ZNSt3__110shared_ptrI11EraseActionED2B8ue170006Ev, symObjAddr: 0x562C, symBinAddr: 0x100019C3C, symSize: 0x54 }
  - { offsetInCU: 0x1265B, offset: 0x6F19B, size: 0x8, addend: 0x0, symName: __ZNSt3__110shared_ptrI6ActionEC2B8ue170006I11EraseActionvEEONS0_IT_EE, symObjAddr: 0x5680, symBinAddr: 0x100019C90, symSize: 0x40 }
  - { offsetInCU: 0x1269C, offset: 0x6F1DC, size: 0x8, addend: 0x0, symName: __ZNSt3__19allocatorI24ParagraphSplittingActionEC1B8ue170006Ev, symObjAddr: 0x5750, symBinAddr: 0x100019D60, symSize: 0x2C }
  - { offsetInCU: 0x126F1, offset: 0x6F231, size: 0x8, addend: 0x0, symName: __ZNSt3__118__allocation_guardINS_9allocatorINS_20__shared_ptr_emplaceI24ParagraphSplittingActionNS1_IS3_EEEEEEEC1B8ue170006IS4_EET_m, symObjAddr: 0x577C, symBinAddr: 0x100019D8C, symSize: 0x34 }
  - { offsetInCU: 0x1273E, offset: 0x6F27E, size: 0x8, addend: 0x0, symName: __ZNKSt3__118__allocation_guardINS_9allocatorINS_20__shared_ptr_emplaceI24ParagraphSplittingActionNS1_IS3_EEEEEEE5__getB8ue170006Ev, symObjAddr: 0x57B0, symBinAddr: 0x100019DC0, symSize: 0x18 }
  - { offsetInCU: 0x12763, offset: 0x6F2A3, size: 0x8, addend: 0x0, symName: __ZNSt3__120__shared_ptr_emplaceI24ParagraphSplittingActionNS_9allocatorIS1_EEEC1B8ue170006IJEEES3_DpOT_, symObjAddr: 0x57C8, symBinAddr: 0x100019DD8, symSize: 0x2C }
  - { offsetInCU: 0x1279F, offset: 0x6F2DF, size: 0x8, addend: 0x0, symName: __ZNSt3__118__allocation_guardINS_9allocatorINS_20__shared_ptr_emplaceI24ParagraphSplittingActionNS1_IS3_EEEEEEE13__release_ptrB8ue170006Ev, symObjAddr: 0x57F4, symBinAddr: 0x100019E04, symSize: 0x24 }
  - { offsetInCU: 0x127D2, offset: 0x6F312, size: 0x8, addend: 0x0, symName: __ZNSt3__110shared_ptrI24ParagraphSplittingActionE27__create_with_control_blockB8ue170006IS1_NS_20__shared_ptr_emplaceIS1_NS_9allocatorIS1_EEEEEES2_PT_PT0_, symObjAddr: 0x5818, symBinAddr: 0x100019E28, symSize: 0xA4 }
  - { offsetInCU: 0x12827, offset: 0x6F367, size: 0x8, addend: 0x0, symName: __ZNSt3__120__shared_ptr_emplaceI24ParagraphSplittingActionNS_9allocatorIS1_EEE10__get_elemB8ue170006Ev, symObjAddr: 0x58BC, symBinAddr: 0x100019ECC, symSize: 0x28 }
  - { offsetInCU: 0x1284C, offset: 0x6F38C, size: 0x8, addend: 0x0, symName: __ZNSt3__118__allocation_guardINS_9allocatorINS_20__shared_ptr_emplaceI24ParagraphSplittingActionNS1_IS3_EEEEEEED1B8ue170006Ev, symObjAddr: 0x58E4, symBinAddr: 0x100019EF4, symSize: 0x2C }
  - { offsetInCU: 0x12874, offset: 0x6F3B4, size: 0x8, addend: 0x0, symName: __ZNSt3__118__allocation_guardINS_9allocatorINS_20__shared_ptr_emplaceI24ParagraphSplittingActionNS1_IS3_EEEEEEEC2B8ue170006IS4_EET_m, symObjAddr: 0x5910, symBinAddr: 0x100019F20, symSize: 0x50 }
  - { offsetInCU: 0x128C1, offset: 0x6F401, size: 0x8, addend: 0x0, symName: __ZNSt3__19allocatorINS_20__shared_ptr_emplaceI24ParagraphSplittingActionNS0_IS2_EEEEEC1B8ue170006IS2_EERKNS0_IT_EE, symObjAddr: 0x5960, symBinAddr: 0x100019F70, symSize: 0x34 }
  - { offsetInCU: 0x128FD, offset: 0x6F43D, size: 0x8, addend: 0x0, symName: __ZNSt3__116allocator_traitsINS_9allocatorINS_20__shared_ptr_emplaceI24ParagraphSplittingActionNS1_IS3_EEEEEEE8allocateB8ue170006ERS6_m, symObjAddr: 0x5994, symBinAddr: 0x100019FA4, symSize: 0x2C }
  - { offsetInCU: 0x12930, offset: 0x6F470, size: 0x8, addend: 0x0, symName: __ZNSt3__19allocatorINS_20__shared_ptr_emplaceI24ParagraphSplittingActionNS0_IS2_EEEEEC2B8ue170006IS2_EERKNS0_IT_EE, symObjAddr: 0x59C0, symBinAddr: 0x100019FD0, symSize: 0x30 }
  - { offsetInCU: 0x1296C, offset: 0x6F4AC, size: 0x8, addend: 0x0, symName: __ZNSt3__116__non_trivial_ifILb1ENS_9allocatorINS_20__shared_ptr_emplaceI24ParagraphSplittingActionNS1_IS3_EEEEEEEC2B8ue170006Ev, symObjAddr: 0x59F0, symBinAddr: 0x10001A000, symSize: 0x14 }
  - { offsetInCU: 0x12994, offset: 0x6F4D4, size: 0x8, addend: 0x0, symName: __ZNSt3__19allocatorINS_20__shared_ptr_emplaceI24ParagraphSplittingActionNS0_IS2_EEEEE8allocateB8ue170006Em, symObjAddr: 0x5A04, symBinAddr: 0x10001A014, symSize: 0x58 }
  - { offsetInCU: 0x129D1, offset: 0x6F511, size: 0x8, addend: 0x0, symName: __ZNSt3__116allocator_traitsINS_9allocatorINS_20__shared_ptr_emplaceI24ParagraphSplittingActionNS1_IS3_EEEEEEE8max_sizeB8ue170006IS6_vvEEmRKS6_, symObjAddr: 0x5A5C, symBinAddr: 0x10001A06C, symSize: 0x28 }
  - { offsetInCU: 0x129FC, offset: 0x6F53C, size: 0x8, addend: 0x0, symName: __ZNSt3__120__shared_ptr_emplaceI24ParagraphSplittingActionNS_9allocatorIS1_EEEC2B8ue170006IJEEES3_DpOT_, symObjAddr: 0x5A84, symBinAddr: 0x10001A094, symSize: 0xC0 }
  - { offsetInCU: 0x12A59, offset: 0x6F599, size: 0x8, addend: 0x0, symName: __ZNSt3__120__shared_ptr_emplaceI24ParagraphSplittingActionNS_9allocatorIS1_EEE8_StorageC1B8ue170006EOS3_, symObjAddr: 0x5B44, symBinAddr: 0x10001A154, symSize: 0x34 }
  - { offsetInCU: 0x12A90, offset: 0x6F5D0, size: 0x8, addend: 0x0, symName: __ZNSt3__120__shared_ptr_emplaceI24ParagraphSplittingActionNS_9allocatorIS1_EEE11__get_allocB8ue170006Ev, symObjAddr: 0x5B78, symBinAddr: 0x10001A188, symSize: 0x28 }
  - { offsetInCU: 0x12ABA, offset: 0x6F5FA, size: 0x8, addend: 0x0, symName: __ZNSt3__116allocator_traitsINS_9allocatorI24ParagraphSplittingActionEEE9constructB8ue170006IS2_JEvvEEvRS3_PT_DpOT0_, symObjAddr: 0x5BA0, symBinAddr: 0x10001A1B0, symSize: 0x28 }
  - { offsetInCU: 0x12AF9, offset: 0x6F639, size: 0x8, addend: 0x0, symName: __ZNSt3__120__shared_ptr_emplaceI24ParagraphSplittingActionNS_9allocatorIS1_EEE8_StorageD1B8ue170006Ev, symObjAddr: 0x5BC8, symBinAddr: 0x10001A1D8, symSize: 0x2C }
  - { offsetInCU: 0x12B21, offset: 0x6F661, size: 0x8, addend: 0x0, symName: __ZNSt3__120__shared_ptr_emplaceI24ParagraphSplittingActionNS_9allocatorIS1_EEED1Ev, symObjAddr: 0x5BF4, symBinAddr: 0x10001A204, symSize: 0x2C }
  - { offsetInCU: 0x12B4C, offset: 0x6F68C, size: 0x8, addend: 0x0, symName: __ZNSt3__120__shared_ptr_emplaceI24ParagraphSplittingActionNS_9allocatorIS1_EEED0Ev, symObjAddr: 0x5C20, symBinAddr: 0x10001A230, symSize: 0x30 }
  - { offsetInCU: 0x12B77, offset: 0x6F6B7, size: 0x8, addend: 0x0, symName: __ZNSt3__120__shared_ptr_emplaceI24ParagraphSplittingActionNS_9allocatorIS1_EEE16__on_zero_sharedEv, symObjAddr: 0x5C50, symBinAddr: 0x10001A260, symSize: 0x44 }
  - { offsetInCU: 0x12BBD, offset: 0x6F6FD, size: 0x8, addend: 0x0, symName: __ZNSt3__120__shared_ptr_emplaceI24ParagraphSplittingActionNS_9allocatorIS1_EEE21__on_zero_shared_weakEv, symObjAddr: 0x5C94, symBinAddr: 0x10001A2A4, symSize: 0x5C }
  - { offsetInCU: 0x12BFD, offset: 0x6F73D, size: 0x8, addend: 0x0, symName: __ZNSt3__120__shared_ptr_emplaceI24ParagraphSplittingActionNS_9allocatorIS1_EEE8_StorageC2B8ue170006EOS3_, symObjAddr: 0x5CF0, symBinAddr: 0x10001A300, symSize: 0x30 }
  - { offsetInCU: 0x12C34, offset: 0x6F774, size: 0x8, addend: 0x0, symName: __ZNSt3__120__shared_ptr_emplaceI24ParagraphSplittingActionNS_9allocatorIS1_EEE8_Storage11__get_allocB8ue170006Ev, symObjAddr: 0x5D20, symBinAddr: 0x10001A330, symSize: 0x3C }
  - { offsetInCU: 0x12C86, offset: 0x6F7C6, size: 0x8, addend: 0x0, symName: __ZNSt3__117__compressed_pairINS_9allocatorI24ParagraphSplittingActionEES2_E16__get_first_baseB8ue170006EPS4_, symObjAddr: 0x5D5C, symBinAddr: 0x10001A36C, symSize: 0x14 }
  - { offsetInCU: 0x12CA9, offset: 0x6F7E9, size: 0x8, addend: 0x0, symName: __ZN24ParagraphSplittingActionC1Ev, symObjAddr: 0x5DA8, symBinAddr: 0x10001A3B8, symSize: 0x2C }
  - { offsetInCU: 0x12CD1, offset: 0x6F811, size: 0x8, addend: 0x0, symName: __ZN24ParagraphSplittingActionC2Ev, symObjAddr: 0x5DD4, symBinAddr: 0x10001A3E4, symSize: 0x44 }
  - { offsetInCU: 0x12CF9, offset: 0x6F839, size: 0x8, addend: 0x0, symName: __ZN6ActionC2Ev, symObjAddr: 0x5E18, symBinAddr: 0x10001A428, symSize: 0x24 }
  - { offsetInCU: 0x12D21, offset: 0x6F861, size: 0x8, addend: 0x0, symName: __ZN6ActionD1Ev, symObjAddr: 0x5E3C, symBinAddr: 0x10001A44C, symSize: 0x14 }
  - { offsetInCU: 0x12D49, offset: 0x6F889, size: 0x8, addend: 0x0, symName: __ZN6ActionD0Ev, symObjAddr: 0x5E50, symBinAddr: 0x10001A460, symSize: 0xC }
  - { offsetInCU: 0x12D71, offset: 0x6F8B1, size: 0x8, addend: 0x0, symName: __ZNSt3__120__shared_ptr_emplaceI24ParagraphSplittingActionNS_9allocatorIS1_EEE8_StorageD2B8ue170006Ev, symObjAddr: 0x5E5C, symBinAddr: 0x10001A46C, symSize: 0x2C }
  - { offsetInCU: 0x12D99, offset: 0x6F8D9, size: 0x8, addend: 0x0, symName: __ZNSt3__120__shared_ptr_emplaceI24ParagraphSplittingActionNS_9allocatorIS1_EEED2Ev, symObjAddr: 0x5E88, symBinAddr: 0x10001A498, symSize: 0x48 }
  - { offsetInCU: 0x12DC4, offset: 0x6F904, size: 0x8, addend: 0x0, symName: __ZNSt3__116allocator_traitsINS_9allocatorI24ParagraphSplittingActionEEE7destroyB8ue170006IS2_vvEEvRS3_PT_, symObjAddr: 0x5ED0, symBinAddr: 0x10001A4E0, symSize: 0x28 }
  - { offsetInCU: 0x12DFE, offset: 0x6F93E, size: 0x8, addend: 0x0, symName: __ZNSt3__116allocator_traitsINS_9allocatorINS_20__shared_ptr_emplaceI24ParagraphSplittingActionNS1_IS3_EEEEEEE10deallocateB8ue170006ERS6_PS5_m, symObjAddr: 0x5F48, symBinAddr: 0x10001A558, symSize: 0x34 }
  - { offsetInCU: 0x12E45, offset: 0x6F985, size: 0x8, addend: 0x0, symName: __ZNSt3__114pointer_traitsIPNS_20__shared_ptr_emplaceI24ParagraphSplittingActionNS_9allocatorIS2_EEEEE10pointer_toB8ue170006ERS5_, symObjAddr: 0x5F7C, symBinAddr: 0x10001A58C, symSize: 0x14 }
  - { offsetInCU: 0x12E68, offset: 0x6F9A8, size: 0x8, addend: 0x0, symName: __ZNSt3__19allocatorINS_20__shared_ptr_emplaceI24ParagraphSplittingActionNS0_IS2_EEEEE10deallocateB8ue170006EPS4_m, symObjAddr: 0x5F90, symBinAddr: 0x10001A5A0, symSize: 0x40 }
  - { offsetInCU: 0x12EA9, offset: 0x6F9E9, size: 0x8, addend: 0x0, symName: __ZNSt3__110shared_ptrI24ParagraphSplittingActionEC1B8ue170006Ev, symObjAddr: 0x5FD0, symBinAddr: 0x10001A5E0, symSize: 0x2C }
  - { offsetInCU: 0x12ED1, offset: 0x6FA11, size: 0x8, addend: 0x0, symName: __ZNSt3__110shared_ptrI24ParagraphSplittingActionE18__enable_weak_thisB8ue170006Ez, symObjAddr: 0x5FFC, symBinAddr: 0x10001A60C, symSize: 0x10 }
  - { offsetInCU: 0x12EF7, offset: 0x6FA37, size: 0x8, addend: 0x0, symName: __ZNSt3__110shared_ptrI24ParagraphSplittingActionEC2B8ue170006Ev, symObjAddr: 0x600C, symBinAddr: 0x10001A61C, symSize: 0x1C }
  - { offsetInCU: 0x12F1F, offset: 0x6FA5F, size: 0x8, addend: 0x0, symName: __ZNSt3__120__shared_ptr_emplaceI24ParagraphSplittingActionNS_9allocatorIS1_EEE8_Storage10__get_elemB8ue170006Ev, symObjAddr: 0x6028, symBinAddr: 0x10001A638, symSize: 0x3C }
  - { offsetInCU: 0x12F71, offset: 0x6FAB1, size: 0x8, addend: 0x0, symName: __ZNSt3__117__compressed_pairINS_9allocatorI24ParagraphSplittingActionEES2_E17__get_second_baseB8ue170006EPS4_, symObjAddr: 0x6064, symBinAddr: 0x10001A674, symSize: 0x14 }
  - { offsetInCU: 0x12F94, offset: 0x6FAD4, size: 0x8, addend: 0x0, symName: __ZNSt3__118__allocation_guardINS_9allocatorINS_20__shared_ptr_emplaceI24ParagraphSplittingActionNS1_IS3_EEEEEEED2B8ue170006Ev, symObjAddr: 0x6078, symBinAddr: 0x10001A688, symSize: 0x2C }
  - { offsetInCU: 0x12FBC, offset: 0x6FAFC, size: 0x8, addend: 0x0, symName: __ZNSt3__118__allocation_guardINS_9allocatorINS_20__shared_ptr_emplaceI24ParagraphSplittingActionNS1_IS3_EEEEEEE9__destroyB8ue170006Ev, symObjAddr: 0x60A4, symBinAddr: 0x10001A6B4, symSize: 0x4C }
  - { offsetInCU: 0x12FE1, offset: 0x6FB21, size: 0x8, addend: 0x0, symName: __ZNSt3__19allocatorI24ParagraphSplittingActionEC2B8ue170006Ev, symObjAddr: 0x60F0, symBinAddr: 0x10001A700, symSize: 0x2C }
  - { offsetInCU: 0x13009, offset: 0x6FB49, size: 0x8, addend: 0x0, symName: __ZNSt3__116__non_trivial_ifILb1ENS_9allocatorI24ParagraphSplittingActionEEEC2B8ue170006Ev, symObjAddr: 0x611C, symBinAddr: 0x10001A72C, symSize: 0x14 }
  - { offsetInCU: 0x13031, offset: 0x6FB71, size: 0x8, addend: 0x0, symName: __ZNSt3__110shared_ptrI24ParagraphSplittingActionED2B8ue170006Ev, symObjAddr: 0x6130, symBinAddr: 0x10001A740, symSize: 0x54 }
  - { offsetInCU: 0x13059, offset: 0x6FB99, size: 0x8, addend: 0x0, symName: __ZNSt3__110shared_ptrI6ActionEC2B8ue170006I24ParagraphSplittingActionvEEONS0_IT_EE, symObjAddr: 0x6184, symBinAddr: 0x10001A794, symSize: 0x40 }
  - { offsetInCU: 0x1309A, offset: 0x6FBDA, size: 0x8, addend: 0x0, symName: __ZNSt3__19allocatorI12InsertActionEC1B8ue170006Ev, symObjAddr: 0x625C, symBinAddr: 0x10001A86C, symSize: 0x2C }
  - { offsetInCU: 0x130EF, offset: 0x6FC2F, size: 0x8, addend: 0x0, symName: __ZNSt3__118__allocation_guardINS_9allocatorINS_20__shared_ptr_emplaceI12InsertActionNS1_IS3_EEEEEEEC1B8ue170006IS4_EET_m, symObjAddr: 0x6288, symBinAddr: 0x10001A898, symSize: 0x34 }
  - { offsetInCU: 0x1313C, offset: 0x6FC7C, size: 0x8, addend: 0x0, symName: __ZNKSt3__118__allocation_guardINS_9allocatorINS_20__shared_ptr_emplaceI12InsertActionNS1_IS3_EEEEEEE5__getB8ue170006Ev, symObjAddr: 0x62BC, symBinAddr: 0x10001A8CC, symSize: 0x18 }
  - { offsetInCU: 0x13166, offset: 0x6FCA6, size: 0x8, addend: 0x0, symName: __ZNSt3__120__shared_ptr_emplaceI12InsertActionNS_9allocatorIS1_EEEC1B8ue170006IJRiEEES3_DpOT_, symObjAddr: 0x62D4, symBinAddr: 0x10001A8E4, symSize: 0x34 }
  - { offsetInCU: 0x131B7, offset: 0x6FCF7, size: 0x8, addend: 0x0, symName: __ZNSt3__118__allocation_guardINS_9allocatorINS_20__shared_ptr_emplaceI12InsertActionNS1_IS3_EEEEEEE13__release_ptrB8ue170006Ev, symObjAddr: 0x6308, symBinAddr: 0x10001A918, symSize: 0x24 }
  - { offsetInCU: 0x131EA, offset: 0x6FD2A, size: 0x8, addend: 0x0, symName: __ZNSt3__110shared_ptrI12InsertActionE27__create_with_control_blockB8ue170006IS1_NS_20__shared_ptr_emplaceIS1_NS_9allocatorIS1_EEEEEES2_PT_PT0_, symObjAddr: 0x632C, symBinAddr: 0x10001A93C, symSize: 0xA4 }
  - { offsetInCU: 0x1323F, offset: 0x6FD7F, size: 0x8, addend: 0x0, symName: __ZNSt3__120__shared_ptr_emplaceI12InsertActionNS_9allocatorIS1_EEE10__get_elemB8ue170006Ev, symObjAddr: 0x63D0, symBinAddr: 0x10001A9E0, symSize: 0x28 }
  - { offsetInCU: 0x13264, offset: 0x6FDA4, size: 0x8, addend: 0x0, symName: __ZNSt3__118__allocation_guardINS_9allocatorINS_20__shared_ptr_emplaceI12InsertActionNS1_IS3_EEEEEEED1B8ue170006Ev, symObjAddr: 0x63F8, symBinAddr: 0x10001AA08, symSize: 0x2C }
  - { offsetInCU: 0x1328C, offset: 0x6FDCC, size: 0x8, addend: 0x0, symName: __ZNSt3__118__allocation_guardINS_9allocatorINS_20__shared_ptr_emplaceI12InsertActionNS1_IS3_EEEEEEEC2B8ue170006IS4_EET_m, symObjAddr: 0x6424, symBinAddr: 0x10001AA34, symSize: 0x50 }
  - { offsetInCU: 0x132D9, offset: 0x6FE19, size: 0x8, addend: 0x0, symName: __ZNSt3__19allocatorINS_20__shared_ptr_emplaceI12InsertActionNS0_IS2_EEEEEC1B8ue170006IS2_EERKNS0_IT_EE, symObjAddr: 0x6474, symBinAddr: 0x10001AA84, symSize: 0x34 }
  - { offsetInCU: 0x13315, offset: 0x6FE55, size: 0x8, addend: 0x0, symName: __ZNSt3__116allocator_traitsINS_9allocatorINS_20__shared_ptr_emplaceI12InsertActionNS1_IS3_EEEEEEE8allocateB8ue170006ERS6_m, symObjAddr: 0x64A8, symBinAddr: 0x10001AAB8, symSize: 0x2C }
  - { offsetInCU: 0x13348, offset: 0x6FE88, size: 0x8, addend: 0x0, symName: __ZNSt3__19allocatorINS_20__shared_ptr_emplaceI12InsertActionNS0_IS2_EEEEEC2B8ue170006IS2_EERKNS0_IT_EE, symObjAddr: 0x64D4, symBinAddr: 0x10001AAE4, symSize: 0x30 }
  - { offsetInCU: 0x13384, offset: 0x6FEC4, size: 0x8, addend: 0x0, symName: __ZNSt3__116__non_trivial_ifILb1ENS_9allocatorINS_20__shared_ptr_emplaceI12InsertActionNS1_IS3_EEEEEEEC2B8ue170006Ev, symObjAddr: 0x6504, symBinAddr: 0x10001AB14, symSize: 0x14 }
  - { offsetInCU: 0x133AC, offset: 0x6FEEC, size: 0x8, addend: 0x0, symName: __ZNSt3__19allocatorINS_20__shared_ptr_emplaceI12InsertActionNS0_IS2_EEEEE8allocateB8ue170006Em, symObjAddr: 0x6518, symBinAddr: 0x10001AB28, symSize: 0x5C }
  - { offsetInCU: 0x133E9, offset: 0x6FF29, size: 0x8, addend: 0x0, symName: __ZNSt3__116allocator_traitsINS_9allocatorINS_20__shared_ptr_emplaceI12InsertActionNS1_IS3_EEEEEEE8max_sizeB8ue170006IS6_vvEEmRKS6_, symObjAddr: 0x6574, symBinAddr: 0x10001AB84, symSize: 0x28 }
  - { offsetInCU: 0x13414, offset: 0x6FF54, size: 0x8, addend: 0x0, symName: __ZNSt3__120__shared_ptr_emplaceI12InsertActionNS_9allocatorIS1_EEEC2B8ue170006IJRiEEES3_DpOT_, symObjAddr: 0x659C, symBinAddr: 0x10001ABAC, symSize: 0xC8 }
  - { offsetInCU: 0x13486, offset: 0x6FFC6, size: 0x8, addend: 0x0, symName: __ZNSt3__120__shared_ptr_emplaceI12InsertActionNS_9allocatorIS1_EEE8_StorageC1B8ue170006EOS3_, symObjAddr: 0x6664, symBinAddr: 0x10001AC74, symSize: 0x34 }
  - { offsetInCU: 0x134BD, offset: 0x6FFFD, size: 0x8, addend: 0x0, symName: __ZNSt3__120__shared_ptr_emplaceI12InsertActionNS_9allocatorIS1_EEE11__get_allocB8ue170006Ev, symObjAddr: 0x6698, symBinAddr: 0x10001ACA8, symSize: 0x28 }
  - { offsetInCU: 0x134E7, offset: 0x70027, size: 0x8, addend: 0x0, symName: __ZNSt3__116allocator_traitsINS_9allocatorI12InsertActionEEE9constructB8ue170006IS2_JRiEvvEEvRS3_PT_DpOT0_, symObjAddr: 0x66C0, symBinAddr: 0x10001ACD0, symSize: 0x30 }
  - { offsetInCU: 0x1353B, offset: 0x7007B, size: 0x8, addend: 0x0, symName: __ZNSt3__120__shared_ptr_emplaceI12InsertActionNS_9allocatorIS1_EEE8_StorageD1B8ue170006Ev, symObjAddr: 0x66F0, symBinAddr: 0x10001AD00, symSize: 0x2C }
  - { offsetInCU: 0x13563, offset: 0x700A3, size: 0x8, addend: 0x0, symName: __ZNSt3__120__shared_ptr_emplaceI12InsertActionNS_9allocatorIS1_EEED1Ev, symObjAddr: 0x671C, symBinAddr: 0x10001AD2C, symSize: 0x2C }
  - { offsetInCU: 0x1358E, offset: 0x700CE, size: 0x8, addend: 0x0, symName: __ZNSt3__120__shared_ptr_emplaceI12InsertActionNS_9allocatorIS1_EEED0Ev, symObjAddr: 0x6748, symBinAddr: 0x10001AD58, symSize: 0x30 }
  - { offsetInCU: 0x135B9, offset: 0x700F9, size: 0x8, addend: 0x0, symName: __ZNSt3__120__shared_ptr_emplaceI12InsertActionNS_9allocatorIS1_EEE16__on_zero_sharedEv, symObjAddr: 0x6778, symBinAddr: 0x10001AD88, symSize: 0x44 }
  - { offsetInCU: 0x135FF, offset: 0x7013F, size: 0x8, addend: 0x0, symName: __ZNSt3__120__shared_ptr_emplaceI12InsertActionNS_9allocatorIS1_EEE21__on_zero_shared_weakEv, symObjAddr: 0x67BC, symBinAddr: 0x10001ADCC, symSize: 0x5C }
  - { offsetInCU: 0x1363F, offset: 0x7017F, size: 0x8, addend: 0x0, symName: __ZNSt3__120__shared_ptr_emplaceI12InsertActionNS_9allocatorIS1_EEE8_StorageC2B8ue170006EOS3_, symObjAddr: 0x6818, symBinAddr: 0x10001AE28, symSize: 0x30 }
  - { offsetInCU: 0x13676, offset: 0x701B6, size: 0x8, addend: 0x0, symName: __ZNSt3__120__shared_ptr_emplaceI12InsertActionNS_9allocatorIS1_EEE8_Storage11__get_allocB8ue170006Ev, symObjAddr: 0x6848, symBinAddr: 0x10001AE58, symSize: 0x3C }
  - { offsetInCU: 0x136C8, offset: 0x70208, size: 0x8, addend: 0x0, symName: __ZNSt3__117__compressed_pairINS_9allocatorI12InsertActionEES2_E16__get_first_baseB8ue170006EPS4_, symObjAddr: 0x6884, symBinAddr: 0x10001AE94, symSize: 0x14 }
  - { offsetInCU: 0x136EB, offset: 0x7022B, size: 0x8, addend: 0x0, symName: __ZNSt3__120__shared_ptr_emplaceI12InsertActionNS_9allocatorIS1_EEE8_StorageD2B8ue170006Ev, symObjAddr: 0x68DC, symBinAddr: 0x10001AEEC, symSize: 0x2C }
  - { offsetInCU: 0x13713, offset: 0x70253, size: 0x8, addend: 0x0, symName: __ZNSt3__120__shared_ptr_emplaceI12InsertActionNS_9allocatorIS1_EEED2Ev, symObjAddr: 0x6908, symBinAddr: 0x10001AF18, symSize: 0x48 }
  - { offsetInCU: 0x1373E, offset: 0x7027E, size: 0x8, addend: 0x0, symName: __ZNSt3__116allocator_traitsINS_9allocatorI12InsertActionEEE7destroyB8ue170006IS2_vvEEvRS3_PT_, symObjAddr: 0x6950, symBinAddr: 0x10001AF60, symSize: 0x28 }
  - { offsetInCU: 0x13778, offset: 0x702B8, size: 0x8, addend: 0x0, symName: __ZNSt3__116allocator_traitsINS_9allocatorINS_20__shared_ptr_emplaceI12InsertActionNS1_IS3_EEEEEEE10deallocateB8ue170006ERS6_PS5_m, symObjAddr: 0x69C8, symBinAddr: 0x10001AFD8, symSize: 0x34 }
  - { offsetInCU: 0x137BF, offset: 0x702FF, size: 0x8, addend: 0x0, symName: __ZNSt3__114pointer_traitsIPNS_20__shared_ptr_emplaceI12InsertActionNS_9allocatorIS2_EEEEE10pointer_toB8ue170006ERS5_, symObjAddr: 0x69FC, symBinAddr: 0x10001B00C, symSize: 0x14 }
  - { offsetInCU: 0x137E2, offset: 0x70322, size: 0x8, addend: 0x0, symName: __ZNSt3__19allocatorINS_20__shared_ptr_emplaceI12InsertActionNS0_IS2_EEEEE10deallocateB8ue170006EPS4_m, symObjAddr: 0x6A10, symBinAddr: 0x10001B020, symSize: 0x44 }
  - { offsetInCU: 0x13823, offset: 0x70363, size: 0x8, addend: 0x0, symName: __ZNSt3__110shared_ptrI12InsertActionEC1B8ue170006Ev, symObjAddr: 0x6A54, symBinAddr: 0x10001B064, symSize: 0x2C }
  - { offsetInCU: 0x1384B, offset: 0x7038B, size: 0x8, addend: 0x0, symName: __ZNSt3__110shared_ptrI12InsertActionE18__enable_weak_thisB8ue170006Ez, symObjAddr: 0x6A80, symBinAddr: 0x10001B090, symSize: 0x10 }
  - { offsetInCU: 0x13871, offset: 0x703B1, size: 0x8, addend: 0x0, symName: __ZNSt3__110shared_ptrI12InsertActionEC2B8ue170006Ev, symObjAddr: 0x6A90, symBinAddr: 0x10001B0A0, symSize: 0x1C }
  - { offsetInCU: 0x13899, offset: 0x703D9, size: 0x8, addend: 0x0, symName: __ZNSt3__120__shared_ptr_emplaceI12InsertActionNS_9allocatorIS1_EEE8_Storage10__get_elemB8ue170006Ev, symObjAddr: 0x6AAC, symBinAddr: 0x10001B0BC, symSize: 0x3C }
  - { offsetInCU: 0x138EB, offset: 0x7042B, size: 0x8, addend: 0x0, symName: __ZNSt3__117__compressed_pairINS_9allocatorI12InsertActionEES2_E17__get_second_baseB8ue170006EPS4_, symObjAddr: 0x6AE8, symBinAddr: 0x10001B0F8, symSize: 0x14 }
  - { offsetInCU: 0x1390E, offset: 0x7044E, size: 0x8, addend: 0x0, symName: __ZNSt3__118__allocation_guardINS_9allocatorINS_20__shared_ptr_emplaceI12InsertActionNS1_IS3_EEEEEEED2B8ue170006Ev, symObjAddr: 0x6AFC, symBinAddr: 0x10001B10C, symSize: 0x2C }
  - { offsetInCU: 0x13936, offset: 0x70476, size: 0x8, addend: 0x0, symName: __ZNSt3__118__allocation_guardINS_9allocatorINS_20__shared_ptr_emplaceI12InsertActionNS1_IS3_EEEEEEE9__destroyB8ue170006Ev, symObjAddr: 0x6B28, symBinAddr: 0x10001B138, symSize: 0x4C }
  - { offsetInCU: 0x1395B, offset: 0x7049B, size: 0x8, addend: 0x0, symName: __ZNSt3__19allocatorI12InsertActionEC2B8ue170006Ev, symObjAddr: 0x6B74, symBinAddr: 0x10001B184, symSize: 0x2C }
  - { offsetInCU: 0x13983, offset: 0x704C3, size: 0x8, addend: 0x0, symName: __ZNSt3__116__non_trivial_ifILb1ENS_9allocatorI12InsertActionEEEC2B8ue170006Ev, symObjAddr: 0x6BA0, symBinAddr: 0x10001B1B0, symSize: 0x14 }
  - { offsetInCU: 0x139AB, offset: 0x704EB, size: 0x8, addend: 0x0, symName: __ZNSt3__110shared_ptrI12InsertActionED2B8ue170006Ev, symObjAddr: 0x6BB4, symBinAddr: 0x10001B1C4, symSize: 0x54 }
  - { offsetInCU: 0x139D3, offset: 0x70513, size: 0x8, addend: 0x0, symName: __ZNSt3__110shared_ptrI6ActionEC2B8ue170006I12InsertActionvEEONS0_IT_EE, symObjAddr: 0x6C08, symBinAddr: 0x10001B218, symSize: 0x40 }
  - { offsetInCU: 0x26, offset: 0x705F1, size: 0x8, addend: 0x0, symName: __ZN22DelimiterCaseSetActionC2E10ScreenSizeNSt3__112basic_stringIcNS1_11char_traitsIcEENS1_9allocatorIcEEEE9Directionb4Case, symObjAddr: 0x0, symBinAddr: 0x10001B258, symSize: 0xD0 }
  - { offsetInCU: 0xB835, offset: 0x7BE00, size: 0x8, addend: 0x0, symName: __ZNSt3__13minB8ue170006IiEERKT_S3_S3_, symObjAddr: 0x428, symBinAddr: 0x10001B65C, symSize: 0x2C }
  - { offsetInCU: 0xB878, offset: 0x7BE43, size: 0x8, addend: 0x0, symName: __ZNSt3__13maxB8ue170006IiEERKT_S3_S3_, symObjAddr: 0x454, symBinAddr: 0x10001B688, symSize: 0x2C }
  - { offsetInCU: 0xB8BB, offset: 0x7BE86, size: 0x8, addend: 0x0, symName: __ZNSt3__13minB8ue170006IiNS_6__lessIvvEEEERKT_S5_S5_T0_, symObjAddr: 0x764, symBinAddr: 0x10001B83C, symSize: 0x54 }
  - { offsetInCU: 0xB95C, offset: 0x7BF27, size: 0x8, addend: 0x0, symName: __ZNSt3__13maxB8ue170006IiNS_6__lessIvvEEEERKT_S5_S5_T0_, symObjAddr: 0x7EC, symBinAddr: 0x10001B8C4, symSize: 0x54 }
  - { offsetInCU: 0xCE6B, offset: 0x7D436, size: 0x8, addend: 0x0, symName: __Z7toloweri, symObjAddr: 0x5C4, symBinAddr: 0x10001B7BC, symSize: 0x24 }
  - { offsetInCU: 0xCE99, offset: 0x7D464, size: 0x8, addend: 0x0, symName: __Z7toupperi, symObjAddr: 0x5A0, symBinAddr: 0x10001B798, symSize: 0x24 }
  - { offsetInCU: 0xE3BF, offset: 0x7E98A, size: 0x8, addend: 0x0, symName: __ZN22DelimiterCaseSetActionC2E10ScreenSizeNSt3__112basic_stringIcNS1_11char_traitsIcEENS1_9allocatorIcEEEE9Directionb4Case, symObjAddr: 0x0, symBinAddr: 0x10001B258, symSize: 0xD0 }
  - { offsetInCU: 0xE431, offset: 0x7E9FC, size: 0x8, addend: 0x0, symName: __ZN22DelimiterCaseSetActionC1E10ScreenSizeNSt3__112basic_stringIcNS1_11char_traitsIcEENS1_9allocatorIcEEEE9Directionb4Case, symObjAddr: 0xD0, symBinAddr: 0x10001B328, symSize: 0x60 }
  - { offsetInCU: 0xE4A3, offset: 0x7EA6E, size: 0x8, addend: 0x0, symName: __ZN22DelimiterCaseSetAction7applyToER11EditorState, symObjAddr: 0x130, symBinAddr: 0x10001B388, symSize: 0x270 }
  - { offsetInCU: 0xE564, offset: 0x7EB2F, size: 0x8, addend: 0x0, symName: __ZNK11EditorState9getCursorEv, symObjAddr: 0x3A0, symBinAddr: 0x10001B5F8, symSize: 0x18 }
  - { offsetInCU: 0xE589, offset: 0x7EB54, size: 0x8, addend: 0x0, symName: __ZNK6Cursor11getPositionEv, symObjAddr: 0x3B8, symBinAddr: 0x10001B610, symSize: 0x20 }
  - { offsetInCU: 0xE5AE, offset: 0x7EB79, size: 0x8, addend: 0x0, symName: __ZNK11EditorState12getParagraphEm, symObjAddr: 0x3D8, symBinAddr: 0x10001B630, symSize: 0x2C }
  - { offsetInCU: 0xE5E1, offset: 0x7EBAC, size: 0x8, addend: 0x0, symName: __ZN22DelimiterCaseSetAction9setCaseAtER11EditorState8Position, symObjAddr: 0x480, symBinAddr: 0x10001B6B4, symSize: 0xC0 }
  - { offsetInCU: 0xE632, offset: 0x7EBFD, size: 0x8, addend: 0x0, symName: __ZNOSt3__18optionalIcEdeB8ue170006Ev, symObjAddr: 0x57C, symBinAddr: 0x10001B774, symSize: 0x24 }
  - { offsetInCU: 0xE657, offset: 0x7EC22, size: 0x8, addend: 0x0, symName: __ZN22DelimiterCaseSetActionD1Ev, symObjAddr: 0x5E8, symBinAddr: 0x10001B7E0, symSize: 0x2C }
  - { offsetInCU: 0xE67F, offset: 0x7EC4A, size: 0x8, addend: 0x0, symName: __ZN22DelimiterCaseSetActionD0Ev, symObjAddr: 0x614, symBinAddr: 0x10001B80C, symSize: 0x30 }
  - { offsetInCU: 0xE6BB, offset: 0x7EC86, size: 0x8, addend: 0x0, symName: __ZNKSt3__16__lessIvvEclB8ue170006IiiEEbRKT_RKT0_, symObjAddr: 0x7B8, symBinAddr: 0x10001B890, symSize: 0x34 }
  - { offsetInCU: 0xE70E, offset: 0x7ECD9, size: 0x8, addend: 0x0, symName: __ZNRSt3__123__optional_storage_baseIcLb0EE5__getB8ue170006Ev, symObjAddr: 0x86C, symBinAddr: 0x10001B918, symSize: 0x14 }
  - { offsetInCU: 0xE733, offset: 0x7ECFE, size: 0x8, addend: 0x0, symName: __ZN22DelimiterCaseSetActionD2Ev, symObjAddr: 0x880, symBinAddr: 0x10001B92C, symSize: 0x2C }
  - { offsetInCU: 0xE75B, offset: 0x7ED26, size: 0x8, addend: 0x0, symName: __ZN15DelimiterActionD2Ev, symObjAddr: 0x8AC, symBinAddr: 0x10001B958, symSize: 0x48 }
  - { offsetInCU: 0xE783, offset: 0x7ED4E, size: 0x8, addend: 0x0, symName: __ZN6ActionD2Ev, symObjAddr: 0x8F4, symBinAddr: 0x10001B9A0, symSize: 0x14 }
  - { offsetInCU: 0xE7AB, offset: 0x7ED76, size: 0x8, addend: 0x0, symName: __ZN15DelimiterActionD1Ev, symObjAddr: 0x908, symBinAddr: 0x10001B9B4, symSize: 0x14 }
  - { offsetInCU: 0xE7D3, offset: 0x7ED9E, size: 0x8, addend: 0x0, symName: __ZN15DelimiterActionD0Ev, symObjAddr: 0x91C, symBinAddr: 0x10001B9C8, symSize: 0xC }
  - { offsetInCU: 0x26, offset: 0x7EE14, size: 0x8, addend: 0x0, symName: __ZN18ScopeCaseSetActionC2E10ScreenSize5Scope4Case, symObjAddr: 0x0, symBinAddr: 0x10001B9D4, symSize: 0x70 }
  - { offsetInCU: 0xE1F4, offset: 0x8CFE2, size: 0x8, addend: 0x0, symName: __ZN18ScopeCaseSetActionC2E10ScreenSize5Scope4Case, symObjAddr: 0x0, symBinAddr: 0x10001B9D4, symSize: 0x70 }
  - { offsetInCU: 0xE249, offset: 0x8D037, size: 0x8, addend: 0x0, symName: __ZN18ScopeCaseSetActionC1E10ScreenSize5Scope4Case, symObjAddr: 0x70, symBinAddr: 0x10001BA44, symSize: 0x44 }
  - { offsetInCU: 0xE29E, offset: 0x8D08C, size: 0x8, addend: 0x0, symName: __ZN18ScopeCaseSetAction7applyToER11EditorState, symObjAddr: 0xB4, symBinAddr: 0x10001BA88, symSize: 0x250 }
  - { offsetInCU: 0xE36D, offset: 0x8D15B, size: 0x8, addend: 0x0, symName: __ZN18ScopeCaseSetActionD1Ev, symObjAddr: 0x3FC, symBinAddr: 0x10001BCD8, symSize: 0x2C }
  - { offsetInCU: 0xE395, offset: 0x8D183, size: 0x8, addend: 0x0, symName: __ZN18ScopeCaseSetActionD0Ev, symObjAddr: 0x428, symBinAddr: 0x10001BD04, symSize: 0x30 }
  - { offsetInCU: 0xE3BD, offset: 0x8D1AB, size: 0x8, addend: 0x0, symName: __ZN18ScopeCaseSetActionD2Ev, symObjAddr: 0x5B8, symBinAddr: 0x10001BD34, symSize: 0x2C }
  - { offsetInCU: 0xE3E5, offset: 0x8D1D3, size: 0x8, addend: 0x0, symName: __ZN11ScopeActionD2Ev, symObjAddr: 0x5E4, symBinAddr: 0x10001BD60, symSize: 0x2C }
  - { offsetInCU: 0x26, offset: 0x8D22B, size: 0x8, addend: 0x0, symName: __ZN12IndentActionC2Ei, symObjAddr: 0x0, symBinAddr: 0x10001BD8C, symSize: 0x50 }
  - { offsetInCU: 0xE0F4, offset: 0x9B2F9, size: 0x8, addend: 0x0, symName: __ZN12IndentActionC2Ei, symObjAddr: 0x0, symBinAddr: 0x10001BD8C, symSize: 0x50 }
  - { offsetInCU: 0xE12D, offset: 0x9B332, size: 0x8, addend: 0x0, symName: __ZN12IndentActionC1Ei, symObjAddr: 0x74, symBinAddr: 0x10001BDDC, symSize: 0x34 }
  - { offsetInCU: 0xE166, offset: 0x9B36B, size: 0x8, addend: 0x0, symName: __ZN12IndentAction7applyToER11EditorState, symObjAddr: 0xA8, symBinAddr: 0x10001BE10, symSize: 0x94 }
  - { offsetInCU: 0xE1C5, offset: 0x9B3CA, size: 0x8, addend: 0x0, symName: __ZNK6Cursor6getRowEv, symObjAddr: 0x154, symBinAddr: 0x10001BEA4, symSize: 0x18 }
  - { offsetInCU: 0xE1EA, offset: 0x9B3EF, size: 0x8, addend: 0x0, symName: __ZN12IndentActionD1Ev, symObjAddr: 0x1A8, symBinAddr: 0x10001BEBC, symSize: 0x2C }
  - { offsetInCU: 0xE212, offset: 0x9B417, size: 0x8, addend: 0x0, symName: __ZN12IndentActionD0Ev, symObjAddr: 0x1D4, symBinAddr: 0x10001BEE8, symSize: 0x30 }
  - { offsetInCU: 0xE23A, offset: 0x9B43F, size: 0x8, addend: 0x0, symName: __ZN12IndentActionD2Ev, symObjAddr: 0x250, symBinAddr: 0x10001BF18, symSize: 0x2C }
  - { offsetInCU: 0x26, offset: 0x9B497, size: 0x8, addend: 0x0, symName: __ZN19DelimiterMoveActionC2E10ScreenSizeNSt3__112basic_stringIcNS1_11char_traitsIcEENS1_9allocatorIcEEEE9Direction11EndBehaviorb, symObjAddr: 0x0, symBinAddr: 0x10001BF44, symSize: 0xC8 }
  - { offsetInCU: 0xE1EC, offset: 0xA965D, size: 0x8, addend: 0x0, symName: __ZN19DelimiterMoveActionC2E10ScreenSizeNSt3__112basic_stringIcNS1_11char_traitsIcEENS1_9allocatorIcEEEE9Direction11EndBehaviorb, symObjAddr: 0x0, symBinAddr: 0x10001BF44, symSize: 0xC8 }
  - { offsetInCU: 0xE25E, offset: 0xA96CF, size: 0x8, addend: 0x0, symName: __ZN19DelimiterMoveActionC1E10ScreenSizeNSt3__112basic_stringIcNS1_11char_traitsIcEENS1_9allocatorIcEEEE9Direction11EndBehaviorb, symObjAddr: 0xC8, symBinAddr: 0x10001C00C, symSize: 0x60 }
  - { offsetInCU: 0xE2D0, offset: 0xA9741, size: 0x8, addend: 0x0, symName: __ZN19DelimiterMoveAction7applyToER11EditorState, symObjAddr: 0x128, symBinAddr: 0x10001C06C, symSize: 0x48 }
  - { offsetInCU: 0xE305, offset: 0xA9776, size: 0x8, addend: 0x0, symName: __ZN19DelimiterMoveActionD1Ev, symObjAddr: 0x170, symBinAddr: 0x10001C0B4, symSize: 0x2C }
  - { offsetInCU: 0xE32D, offset: 0xA979E, size: 0x8, addend: 0x0, symName: __ZN19DelimiterMoveActionD0Ev, symObjAddr: 0x19C, symBinAddr: 0x10001C0E0, symSize: 0x30 }
  - { offsetInCU: 0xE355, offset: 0xA97C6, size: 0x8, addend: 0x0, symName: __ZN19DelimiterMoveActionD2Ev, symObjAddr: 0x1CC, symBinAddr: 0x10001C110, symSize: 0x2C }
  - { offsetInCU: 0x26, offset: 0xA9819, size: 0x8, addend: 0x0, symName: __ZN11ScopeActionC2E10ScreenSize11EndBehavior, symObjAddr: 0x0, symBinAddr: 0x10001C13C, symSize: 0x5C }
  - { offsetInCU: 0xE063, offset: 0xB7856, size: 0x8, addend: 0x0, symName: __ZN11ScopeActionC2E10ScreenSize11EndBehavior, symObjAddr: 0x0, symBinAddr: 0x10001C13C, symSize: 0x5C }
  - { offsetInCU: 0xE0AA, offset: 0xB789D, size: 0x8, addend: 0x0, symName: __ZN11ScopeAction12startOfScopeERK11EditorState5Scope, symObjAddr: 0x80, symBinAddr: 0x10001C198, symSize: 0x2EC }
  - { offsetInCU: 0xE14F, offset: 0xB7942, size: 0x8, addend: 0x0, symName: __ZNK6Cursor9getColumnEv, symObjAddr: 0x428, symBinAddr: 0x10001C484, symSize: 0x18 }
  - { offsetInCU: 0xE174, offset: 0xB7967, size: 0x8, addend: 0x0, symName: __ZNSt16invalid_argumentC1B8ue170006EPKc, symObjAddr: 0x440, symBinAddr: 0x10001C49C, symSize: 0x34 }
  - { offsetInCU: 0xE1AA, offset: 0xB799D, size: 0x8, addend: 0x0, symName: __ZN11ScopeAction10endOfScopeERK11EditorState5Scope, symObjAddr: 0x474, symBinAddr: 0x10001C4D0, symSize: 0x418 }
  - { offsetInCU: 0xE288, offset: 0xB7A7B, size: 0x8, addend: 0x0, symName: __ZNK11EditorState21getNumberOfParagrahpsEv, symObjAddr: 0x88C, symBinAddr: 0x10001C8E8, symSize: 0x2C }
  - { offsetInCU: 0xE2AD, offset: 0xB7AA0, size: 0x8, addend: 0x0, symName: __ZN11ScopeActionD1Ev, symObjAddr: 0x8E4, symBinAddr: 0x10001C914, symSize: 0x14 }
  - { offsetInCU: 0xE2D5, offset: 0xB7AC8, size: 0x8, addend: 0x0, symName: __ZN11ScopeActionD0Ev, symObjAddr: 0x8F8, symBinAddr: 0x10001C928, symSize: 0xC }
  - { offsetInCU: 0xE2FD, offset: 0xB7AF0, size: 0x8, addend: 0x0, symName: __ZNSt16invalid_argumentC2B8ue170006EPKc, symObjAddr: 0xA70, symBinAddr: 0x10001C934, symSize: 0x4C }
  - { offsetInCU: 0x26, offset: 0xB7B60, size: 0x8, addend: 0x0, symName: __ZN24ParagraphSplittingAction7applyToER11EditorState, symObjAddr: 0x0, symBinAddr: 0x10001C980, symSize: 0x28 }
  - { offsetInCU: 0xE068, offset: 0xC5BA2, size: 0x8, addend: 0x0, symName: __ZN24ParagraphSplittingAction7applyToER11EditorState, symObjAddr: 0x0, symBinAddr: 0x10001C980, symSize: 0x28 }
  - { offsetInCU: 0xE09D, offset: 0xC5BD7, size: 0x8, addend: 0x0, symName: __ZN24ParagraphSplittingActionD1Ev, symObjAddr: 0x28, symBinAddr: 0x10001C9A8, symSize: 0x2C }
  - { offsetInCU: 0xE0C5, offset: 0xC5BFF, size: 0x8, addend: 0x0, symName: __ZN24ParagraphSplittingActionD0Ev, symObjAddr: 0x54, symBinAddr: 0x10001C9D4, symSize: 0x30 }
  - { offsetInCU: 0xE0ED, offset: 0xC5C27, size: 0x8, addend: 0x0, symName: __ZN24ParagraphSplittingActionD2Ev, symObjAddr: 0x84, symBinAddr: 0x10001CA04, symSize: 0x2C }
  - { offsetInCU: 0x26, offset: 0xC5C7A, size: 0x8, addend: 0x0, symName: __ZN15ScopeMoveActionC2E10ScreenSize11EndBehavior5Scope9Direction, symObjAddr: 0x0, symBinAddr: 0x10001CA30, symSize: 0x74 }
  - { offsetInCU: 0xE10F, offset: 0xD3D63, size: 0x8, addend: 0x0, symName: __ZN15ScopeMoveActionC2E10ScreenSize11EndBehavior5Scope9Direction, symObjAddr: 0x0, symBinAddr: 0x10001CA30, symSize: 0x74 }
  - { offsetInCU: 0xE172, offset: 0xD3DC6, size: 0x8, addend: 0x0, symName: __ZN15ScopeMoveActionC1E10ScreenSize11EndBehavior5Scope9Direction, symObjAddr: 0x74, symBinAddr: 0x10001CAA4, symSize: 0x4C }
  - { offsetInCU: 0xE1D5, offset: 0xD3E29, size: 0x8, addend: 0x0, symName: __ZN15ScopeMoveAction7applyToER11EditorState, symObjAddr: 0xC0, symBinAddr: 0x10001CAF0, symSize: 0xB8 }
  - { offsetInCU: 0xE20A, offset: 0xD3E5E, size: 0x8, addend: 0x0, symName: __ZN15ScopeMoveActionD1Ev, symObjAddr: 0x178, symBinAddr: 0x10001CBA8, symSize: 0x2C }
  - { offsetInCU: 0xE232, offset: 0xD3E86, size: 0x8, addend: 0x0, symName: __ZN15ScopeMoveActionD0Ev, symObjAddr: 0x1A4, symBinAddr: 0x10001CBD4, symSize: 0x30 }
  - { offsetInCU: 0xE25A, offset: 0xD3EAE, size: 0x8, addend: 0x0, symName: __ZN15ScopeMoveActionD2Ev, symObjAddr: 0x1D4, symBinAddr: 0x10001CC04, symSize: 0x2C }
  - { offsetInCU: 0xE126, offset: 0xE2001, size: 0x8, addend: 0x0, symName: __ZN10SaveActionC2E16SaveConfirmation, symObjAddr: 0x0, symBinAddr: 0x10001CC30, symSize: 0x50 }
  - { offsetInCU: 0xE15F, offset: 0xE203A, size: 0x8, addend: 0x0, symName: __ZN10SaveActionC1E16SaveConfirmation, symObjAddr: 0x74, symBinAddr: 0x10001CC80, symSize: 0x34 }
  - { offsetInCU: 0xE198, offset: 0xE2073, size: 0x8, addend: 0x0, symName: __ZN10SaveAction7applyToER11EditorState, symObjAddr: 0xA8, symBinAddr: 0x10001CCB4, symSize: 0xA4 }
  - { offsetInCU: 0xE1CD, offset: 0xE20A8, size: 0x8, addend: 0x0, symName: __ZN11EditorState7getFileEv, symObjAddr: 0x14C, symBinAddr: 0x10001CD58, symSize: 0x14 }
  - { offsetInCU: 0xE1F7, offset: 0xE20D2, size: 0x8, addend: 0x0, symName: __ZN10SaveActionD1Ev, symObjAddr: 0x194, symBinAddr: 0x10001CD6C, symSize: 0x2C }
  - { offsetInCU: 0xE21F, offset: 0xE20FA, size: 0x8, addend: 0x0, symName: __ZN10SaveActionD0Ev, symObjAddr: 0x1C0, symBinAddr: 0x10001CD98, symSize: 0x30 }
  - { offsetInCU: 0xE247, offset: 0xE2122, size: 0x8, addend: 0x0, symName: __ZN10SaveActionD2Ev, symObjAddr: 0x3C4, symBinAddr: 0x10001CDC8, symSize: 0x2C }
  - { offsetInCU: 0x26, offset: 0xE217A, size: 0x8, addend: 0x0, symName: __ZN15DelimiterActionC2E10ScreenSizeNSt3__112basic_stringIcNS1_11char_traitsIcEENS1_9allocatorIcEEEE9Direction11EndBehaviorb, symObjAddr: 0x0, symBinAddr: 0x10001CDF4, symSize: 0xBC }
  - { offsetInCU: 0xE158, offset: 0xF02AC, size: 0x8, addend: 0x0, symName: __ZN15DelimiterActionC2E10ScreenSizeNSt3__112basic_stringIcNS1_11char_traitsIcEENS1_9allocatorIcEEEE9Direction11EndBehaviorb, symObjAddr: 0x0, symBinAddr: 0x10001CDF4, symSize: 0xBC }
  - { offsetInCU: 0xE1CA, offset: 0xF031E, size: 0x8, addend: 0x0, symName: __ZN15DelimiterAction16findStopPositionER11EditorState, symObjAddr: 0xF4, symBinAddr: 0x10001CEB0, symSize: 0x2A8 }
  - { offsetInCU: 0xE26F, offset: 0xF03C3, size: 0x8, addend: 0x0, symName: __ZNKSt3__123__optional_storage_baseIcLb0EE9has_valueB8ue170006Ev, symObjAddr: 0x3D4, symBinAddr: 0x10001D158, symSize: 0x1C }
  - { offsetInCU: 0xE294, offset: 0xF03E8, size: 0x8, addend: 0x0, symName: __ZNRSt3__18optionalIcEdeB8ue170006Ev, symObjAddr: 0x3F0, symBinAddr: 0x10001D174, symSize: 0x24 }
  - { offsetInCU: 0x26, offset: 0xF0442, size: 0x8, addend: 0x0, symName: __ZN12InsertActionC2Ec, symObjAddr: 0x0, symBinAddr: 0x10001D198, symSize: 0x50 }
  - { offsetInCU: 0xE068, offset: 0xFE484, size: 0x8, addend: 0x0, symName: __ZN12InsertActionC2Ec, symObjAddr: 0x0, symBinAddr: 0x10001D198, symSize: 0x50 }
  - { offsetInCU: 0xE0A1, offset: 0xFE4BD, size: 0x8, addend: 0x0, symName: __ZN12InsertActionC1Ec, symObjAddr: 0x74, symBinAddr: 0x10001D1E8, symSize: 0x34 }
  - { offsetInCU: 0xE0DA, offset: 0xFE4F6, size: 0x8, addend: 0x0, symName: __ZN12InsertAction7applyToER11EditorState, symObjAddr: 0xA8, symBinAddr: 0x10001D21C, symSize: 0x58 }
  - { offsetInCU: 0xE10F, offset: 0xFE52B, size: 0x8, addend: 0x0, symName: __ZN12InsertActionD1Ev, symObjAddr: 0x138, symBinAddr: 0x10001D274, symSize: 0x2C }
  - { offsetInCU: 0xE137, offset: 0xFE553, size: 0x8, addend: 0x0, symName: __ZN12InsertActionD0Ev, symObjAddr: 0x164, symBinAddr: 0x10001D2A0, symSize: 0x30 }
  - { offsetInCU: 0xE15F, offset: 0xFE57B, size: 0x8, addend: 0x0, symName: __ZN12InsertActionD2Ev, symObjAddr: 0x1B4, symBinAddr: 0x10001D2D0, symSize: 0x2C }
  - { offsetInCU: 0xE126, offset: 0x10C6CE, size: 0x8, addend: 0x0, symName: __ZN10QuitActionC2E8QuitMode, symObjAddr: 0x0, symBinAddr: 0x10001D2FC, symSize: 0x50 }
  - { offsetInCU: 0xE15F, offset: 0x10C707, size: 0x8, addend: 0x0, symName: __ZN10QuitActionC1E8QuitMode, symObjAddr: 0x74, symBinAddr: 0x10001D34C, symSize: 0x34 }
  - { offsetInCU: 0xE198, offset: 0x10C740, size: 0x8, addend: 0x0, symName: __ZN10QuitAction7applyToER11EditorState, symObjAddr: 0xA8, symBinAddr: 0x10001D380, symSize: 0xBC }
  - { offsetInCU: 0xE1CD, offset: 0x10C775, size: 0x8, addend: 0x0, symName: __ZNK11EditorState12getSaveStateEv, symObjAddr: 0x164, symBinAddr: 0x10001D43C, symSize: 0x24 }
  - { offsetInCU: 0xE1F7, offset: 0x10C79F, size: 0x8, addend: 0x0, symName: __ZN11EditorState9setIsQuitEb, symObjAddr: 0x1BC, symBinAddr: 0x10001D460, symSize: 0x2C }
  - { offsetInCU: 0xE22A, offset: 0x10C7D2, size: 0x8, addend: 0x0, symName: __ZN10QuitActionD1Ev, symObjAddr: 0x1E8, symBinAddr: 0x10001D48C, symSize: 0x2C }
  - { offsetInCU: 0xE252, offset: 0x10C7FA, size: 0x8, addend: 0x0, symName: __ZN10QuitActionD0Ev, symObjAddr: 0x214, symBinAddr: 0x10001D4B8, symSize: 0x30 }
  - { offsetInCU: 0xE27A, offset: 0x10C822, size: 0x8, addend: 0x0, symName: __ZNK8TextFile12getSaveStateEv, symObjAddr: 0x264, symBinAddr: 0x10001D4E8, symSize: 0x18 }
  - { offsetInCU: 0xE29F, offset: 0x10C847, size: 0x8, addend: 0x0, symName: __ZN10QuitActionD2Ev, symObjAddr: 0x430, symBinAddr: 0x10001D500, symSize: 0x2C }
  - { offsetInCU: 0x26, offset: 0x10C8A9, size: 0x8, addend: 0x0, symName: __ZN22ParagraphJoiningAction7applyToER11EditorState, symObjAddr: 0x0, symBinAddr: 0x10001D52C, symSize: 0x80 }
  - { offsetInCU: 0xE0E3, offset: 0x11A966, size: 0x8, addend: 0x0, symName: __ZN22ParagraphJoiningAction7applyToER11EditorState, symObjAddr: 0x0, symBinAddr: 0x10001D52C, symSize: 0x80 }
  - { offsetInCU: 0xE118, offset: 0x11A99B, size: 0x8, addend: 0x0, symName: __ZN22ParagraphJoiningActionD1Ev, symObjAddr: 0xDC, symBinAddr: 0x10001D5AC, symSize: 0x2C }
  - { offsetInCU: 0xE140, offset: 0x11A9C3, size: 0x8, addend: 0x0, symName: __ZN22ParagraphJoiningActionD0Ev, symObjAddr: 0x108, symBinAddr: 0x10001D5D8, symSize: 0x30 }
  - { offsetInCU: 0xE168, offset: 0x11A9EB, size: 0x8, addend: 0x0, symName: __ZN22ParagraphJoiningActionD2Ev, symObjAddr: 0x138, symBinAddr: 0x10001D608, symSize: 0x2C }
  - { offsetInCU: 0x26, offset: 0x11AA3E, size: 0x8, addend: 0x0, symName: __ZN23FixedPositionMoveActionC2E10ScreenSize8Position, symObjAddr: 0x0, symBinAddr: 0x10001D634, symSize: 0x5C }
  - { offsetInCU: 0xE068, offset: 0x128A80, size: 0x8, addend: 0x0, symName: __ZN23FixedPositionMoveActionC2E10ScreenSize8Position, symObjAddr: 0x0, symBinAddr: 0x10001D634, symSize: 0x5C }
  - { offsetInCU: 0xE0AF, offset: 0x128AC7, size: 0x8, addend: 0x0, symName: __ZN23FixedPositionMoveActionC1E10ScreenSize8Position, symObjAddr: 0x80, symBinAddr: 0x10001D690, symSize: 0x3C }
  - { offsetInCU: 0xE0F6, offset: 0x128B0E, size: 0x8, addend: 0x0, symName: __ZN23FixedPositionMoveAction7applyToER11EditorState, symObjAddr: 0xBC, symBinAddr: 0x10001D6CC, symSize: 0x294 }
  - { offsetInCU: 0xE1D6, offset: 0x128BEE, size: 0x8, addend: 0x0, symName: __ZN23FixedPositionMoveActionD1Ev, symObjAddr: 0x434, symBinAddr: 0x10001D960, symSize: 0x2C }
  - { offsetInCU: 0xE1FE, offset: 0x128C16, size: 0x8, addend: 0x0, symName: __ZN23FixedPositionMoveActionD0Ev, symObjAddr: 0x460, symBinAddr: 0x10001D98C, symSize: 0x30 }
  - { offsetInCU: 0xE226, offset: 0x128C3E, size: 0x8, addend: 0x0, symName: __ZN23FixedPositionMoveActionD2Ev, symObjAddr: 0x684, symBinAddr: 0x10001D9BC, symSize: 0x2C }
  - { offsetInCU: 0x26, offset: 0x128C91, size: 0x8, addend: 0x0, symName: __ZN14UnindentActionC2Ei, symObjAddr: 0x0, symBinAddr: 0x10001D9E8, symSize: 0x50 }
  - { offsetInCU: 0xE0EF, offset: 0x136D5A, size: 0x8, addend: 0x0, symName: __ZN14UnindentActionC2Ei, symObjAddr: 0x0, symBinAddr: 0x10001D9E8, symSize: 0x50 }
  - { offsetInCU: 0xE128, offset: 0x136D93, size: 0x8, addend: 0x0, symName: __ZN14UnindentActionC1Ei, symObjAddr: 0x74, symBinAddr: 0x10001DA38, symSize: 0x34 }
  - { offsetInCU: 0xE161, offset: 0x136DCC, size: 0x8, addend: 0x0, symName: __ZN14UnindentAction7applyToER11EditorState, symObjAddr: 0xA8, symBinAddr: 0x10001DA6C, symSize: 0xF0 }
  - { offsetInCU: 0xE1DC, offset: 0x136E47, size: 0x8, addend: 0x0, symName: __ZN14UnindentActionD1Ev, symObjAddr: 0x244, symBinAddr: 0x10001DB5C, symSize: 0x2C }
  - { offsetInCU: 0xE204, offset: 0x136E6F, size: 0x8, addend: 0x0, symName: __ZN14UnindentActionD0Ev, symObjAddr: 0x270, symBinAddr: 0x10001DB88, symSize: 0x30 }
  - { offsetInCU: 0xE22C, offset: 0x136E97, size: 0x8, addend: 0x0, symName: __ZN14UnindentActionD2Ev, symObjAddr: 0x300, symBinAddr: 0x10001DBB8, symSize: 0x2C }
  - { offsetInCU: 0x26, offset: 0x136EEA, size: 0x8, addend: 0x0, symName: __ZN18CharwiseMoveActionC2E10ScreenSize9Direction, symObjAddr: 0x0, symBinAddr: 0x10001DBE4, symSize: 0x5C }
  - { offsetInCU: 0xE068, offset: 0x144F2C, size: 0x8, addend: 0x0, symName: __ZN18CharwiseMoveActionC2E10ScreenSize9Direction, symObjAddr: 0x0, symBinAddr: 0x10001DBE4, symSize: 0x5C }
  - { offsetInCU: 0xE0AF, offset: 0x144F73, size: 0x8, addend: 0x0, symName: __ZN18CharwiseMoveActionC1E10ScreenSize9Direction, symObjAddr: 0x80, symBinAddr: 0x10001DC40, symSize: 0x3C }
  - { offsetInCU: 0xE0F6, offset: 0x144FBA, size: 0x8, addend: 0x0, symName: __ZN18CharwiseMoveAction7applyToER11EditorState, symObjAddr: 0xBC, symBinAddr: 0x10001DC7C, symSize: 0xF4 }
  - { offsetInCU: 0xE12B, offset: 0x144FEF, size: 0x8, addend: 0x0, symName: __ZN18CharwiseMoveActionD1Ev, symObjAddr: 0x1F4, symBinAddr: 0x10001DD80, symSize: 0x2C }
  - { offsetInCU: 0xE153, offset: 0x145017, size: 0x8, addend: 0x0, symName: __ZN18CharwiseMoveActionD0Ev, symObjAddr: 0x220, symBinAddr: 0x10001DDAC, symSize: 0x30 }
  - { offsetInCU: 0xE17B, offset: 0x14503F, size: 0x8, addend: 0x0, symName: __ZN18CharwiseMoveActionD2Ev, symObjAddr: 0x2BC, symBinAddr: 0x10001DDDC, symSize: 0x2C }
  - { offsetInCU: 0x26, offset: 0x145092, size: 0x8, addend: 0x0, symName: __ZN11EraseActionC2Eib, symObjAddr: 0x0, symBinAddr: 0x10001DE08, symSize: 0x68 }
  - { offsetInCU: 0xE068, offset: 0x1530D4, size: 0x8, addend: 0x0, symName: __ZN11EraseActionC2Eib, symObjAddr: 0x0, symBinAddr: 0x10001DE08, symSize: 0x68 }
  - { offsetInCU: 0xE0AF, offset: 0x15311B, size: 0x8, addend: 0x0, symName: __ZN11EraseActionC1Eib, symObjAddr: 0x8C, symBinAddr: 0x10001DE70, symSize: 0x48 }
  - { offsetInCU: 0xE0F6, offset: 0x153162, size: 0x8, addend: 0x0, symName: __ZN11EraseAction7applyToER11EditorState, symObjAddr: 0xD4, symBinAddr: 0x10001DEB8, symSize: 0x1F4 }
  - { offsetInCU: 0xE147, offset: 0x1531B3, size: 0x8, addend: 0x0, symName: __ZN11EraseActionD1Ev, symObjAddr: 0x37C, symBinAddr: 0x10001E0AC, symSize: 0x2C }
  - { offsetInCU: 0xE16F, offset: 0x1531DB, size: 0x8, addend: 0x0, symName: __ZN11EraseActionD0Ev, symObjAddr: 0x3A8, symBinAddr: 0x10001E0D8, symSize: 0x30 }
  - { offsetInCU: 0xE197, offset: 0x153203, size: 0x8, addend: 0x0, symName: __ZN11EraseActionD2Ev, symObjAddr: 0x518, symBinAddr: 0x10001E108, symSize: 0x2C }
  - { offsetInCU: 0x5D, offset: 0x15328D, size: 0x8, addend: 0x0, symName: __ZNSt3__17nulloptE, symObjAddr: 0x2032C, symBinAddr: 0x10005070C, symSize: 0x0 }
  - { offsetInCU: 0x77, offset: 0x1532A7, size: 0x8, addend: 0x0, symName: __ZNSt3__18in_placeE, symObjAddr: 0x20678, symBinAddr: 0x100050A58, symSize: 0x0 }
  - { offsetInCU: 0xCCFF, offset: 0x15FF2F, size: 0x8, addend: 0x0, symName: __ZNSt3__17advanceB8ue170006INS_16reverse_iteratorIPNS_10shared_ptrI6ActionEEEEllvEEvRT_T0_, symObjAddr: 0x8EC4, symBinAddr: 0x100024554, symSize: 0x38 }
  - { offsetInCU: 0x1B505, offset: 0x16E735, size: 0x8, addend: 0x0, symName: __ZNSt3__111make_sharedB8ue170006I18CharwiseMoveActionJR10ScreenSizeR9DirectionEvEENS_10shared_ptrIT_EEDpOT0_, symObjAddr: 0x2D4, symBinAddr: 0x10001E3A8, symSize: 0x48 }
  - { offsetInCU: 0x1B55C, offset: 0x16E78C, size: 0x8, addend: 0x0, symName: __ZNSt3__111make_sharedB8ue170006I19DelimiterMoveActionJR10ScreenSizeNS_12basic_stringIcNS_11char_traitsIcEENS_9allocatorIcEEEER9DirectionR11EndBehaviorbEvEENS_10shared_ptrIT_EEDpOT0_, symObjAddr: 0xD24, symBinAddr: 0x10001ED30, symSize: 0x60 }
  - { offsetInCU: 0x1B80B, offset: 0x16EA3B, size: 0x8, addend: 0x0, symName: __ZNSt3__111make_sharedB8ue170006I15ScopeMoveActionJR10ScreenSizeR11EndBehaviorR5ScopeR9DirectionEvEENS_10shared_ptrIT_EEDpOT0_, symObjAddr: 0xE98, symBinAddr: 0x10001EE68, symSize: 0x58 }
  - { offsetInCU: 0x1BAA6, offset: 0x16ECD6, size: 0x8, addend: 0x0, symName: __ZNSt3__111make_sharedB8ue170006I19DelimiterMoveActionJR10ScreenSizeRNS_12basic_stringIcNS_11char_traitsIcEENS_9allocatorIcEEEER9DirectionR11EndBehaviorbEvEENS_10shared_ptrIT_EEDpOT0_, symObjAddr: 0xF50, symBinAddr: 0x10001EF20, symSize: 0x60 }
  - { offsetInCU: 0x1BB39, offset: 0x16ED69, size: 0x8, addend: 0x0, symName: __ZNSt3__111make_sharedB8ue170006I22DelimiterCaseSetActionJR10ScreenSizeNS_12basic_stringIcNS_11char_traitsIcEENS_9allocatorIcEEEE9DirectionbR4CaseEvEENS_10shared_ptrIT_EEDpOT0_, symObjAddr: 0x17EC, symBinAddr: 0x10001F7BC, symSize: 0x60 }
  - { offsetInCU: 0x1BDE8, offset: 0x16F018, size: 0x8, addend: 0x0, symName: __ZNSt3__111make_sharedB8ue170006I18ScopeCaseSetActionJR10ScreenSizeR5ScopeR4CaseEvEENS_10shared_ptrIT_EEDpOT0_, symObjAddr: 0x1C3C, symBinAddr: 0x10001FBE8, symSize: 0x50 }
  - { offsetInCU: 0x1C06F, offset: 0x16F29F, size: 0x8, addend: 0x0, symName: __ZNSt3__111make_sharedB8ue170006I22DelimiterCaseSetActionJR10ScreenSizeRNS_12basic_stringIcNS_11char_traitsIcEENS_9allocatorIcEEEE9DirectionbR4CaseEvEENS_10shared_ptrIT_EEDpOT0_, symObjAddr: 0x1CEC, symBinAddr: 0x10001FC98, symSize: 0x60 }
  - { offsetInCU: 0x1C102, offset: 0x16F332, size: 0x8, addend: 0x0, symName: __ZNSt3__111make_sharedB8ue170006I10QuitActionJ8QuitModeEvEENS_10shared_ptrIT_EEDpOT0_, symObjAddr: 0x2B00, symBinAddr: 0x100020A78, symSize: 0x40 }
  - { offsetInCU: 0x1C361, offset: 0x16F591, size: 0x8, addend: 0x0, symName: __ZNSt3__111make_sharedB8ue170006I10SaveActionJR16SaveConfirmationEvEENS_10shared_ptrIT_EEDpOT0_, symObjAddr: 0x2BB0, symBinAddr: 0x100020B28, symSize: 0x40 }
  - { offsetInCU: 0x1D101, offset: 0x170331, size: 0x8, addend: 0x0, symName: __ZNSt3__111make_sharedB8ue170006I13MessageActionJRNS_12basic_stringIcNS_11char_traitsIcEENS_9allocatorIcEEEEEvEENS_10shared_ptrIT_EEDpOT0_, symObjAddr: 0x2EA8, symBinAddr: 0x100020D70, symSize: 0x40 }
  - { offsetInCU: 0x1D360, offset: 0x170590, size: 0x8, addend: 0x0, symName: __ZNSt3__111make_sharedB8ue170006I15ScopeMoveActionJR10ScreenSize11EndBehavior5ScopeR9DirectionEvEENS_10shared_ptrIT_EEDpOT0_, symObjAddr: 0x32CC, symBinAddr: 0x100021194, symSize: 0x58 }
  - { offsetInCU: 0x1D3DF, offset: 0x17060F, size: 0x8, addend: 0x0, symName: __ZNSt3__111make_sharedB8ue170006I13MessageActionJRA42_KcEvEENS_10shared_ptrIT_EEDpOT0_, symObjAddr: 0x385C, symBinAddr: 0x100021644, symSize: 0x40 }
  - { offsetInCU: 0x1D422, offset: 0x170652, size: 0x8, addend: 0x0, symName: __ZNSt3__111make_sharedB8ue170006I13MessageActionJRA35_KcEvEENS_10shared_ptrIT_EEDpOT0_, symObjAddr: 0x389C, symBinAddr: 0x100021684, symSize: 0x40 }
  - { offsetInCU: 0x1D465, offset: 0x170695, size: 0x8, addend: 0x0, symName: __ZNSt3__111make_sharedB8ue170006I15ScopeMoveActionJR10ScreenSize11EndBehavior5Scope9DirectionEvEENS_10shared_ptrIT_EEDpOT0_, symObjAddr: 0x4768, symBinAddr: 0x1000224B0, symSize: 0x58 }
  - { offsetInCU: 0x1D4E4, offset: 0x170714, size: 0x8, addend: 0x0, symName: __ZNSt3__111make_sharedB8ue170006I22ParagraphJoiningActionJEvEENS_10shared_ptrIT_EEDpOT0_, symObjAddr: 0x47C0, symBinAddr: 0x100022508, symSize: 0x38 }
  - { offsetInCU: 0x1D72E, offset: 0x17095E, size: 0x8, addend: 0x0, symName: __ZNSt3__111make_sharedB8ue170006I11EraseActionJibEvEENS_10shared_ptrIT_EEDpOT0_, symObjAddr: 0x4858, symBinAddr: 0x1000225A0, symSize: 0x48 }
  - { offsetInCU: 0x1D785, offset: 0x1709B5, size: 0x8, addend: 0x0, symName: __ZNSt3__111make_sharedB8ue170006I12InsertActionJRcEvEENS_10shared_ptrIT_EEDpOT0_, symObjAddr: 0x48A0, symBinAddr: 0x1000225E8, symSize: 0x40 }
  - { offsetInCU: 0x1D7C8, offset: 0x1709F8, size: 0x8, addend: 0x0, symName: __ZNSt3__111make_sharedB8ue170006I12IndentActionJiEvEENS_10shared_ptrIT_EEDpOT0_, symObjAddr: 0x4940, symBinAddr: 0x100022628, symSize: 0x40 }
  - { offsetInCU: 0x1DA27, offset: 0x170C57, size: 0x8, addend: 0x0, symName: __ZNSt3__111make_sharedB8ue170006I14UnindentActionJiEvEENS_10shared_ptrIT_EEDpOT0_, symObjAddr: 0x49E0, symBinAddr: 0x1000226C8, symSize: 0x40 }
  - { offsetInCU: 0x1FDBC, offset: 0x172FEC, size: 0x8, addend: 0x0, symName: __ZNSt3__127__throw_bad_optional_accessB8ue170006Ev, symObjAddr: 0x75E8, symBinAddr: 0x100023630, symSize: 0x38 }
  - { offsetInCU: 0x1FDD7, offset: 0x173007, size: 0x8, addend: 0x0, symName: __ZNSt3__112construct_atB8ue170006INS_10shared_ptrI6ActionEEJNS1_I18CharwiseMoveActionEEEPS3_EEPT_S8_DpOT0_, symObjAddr: 0x8274, symBinAddr: 0x100023984, symSize: 0x3C }
  - { offsetInCU: 0x1FE49, offset: 0x173079, size: 0x8, addend: 0x0, symName: __ZNSt3__142__uninitialized_allocator_move_if_noexceptB8ue170006INS_9allocatorINS_10shared_ptrI6ActionEEEENS_16reverse_iteratorIPS4_EES8_S8_EET2_RT_T0_T1_S9_, symObjAddr: 0x8790, symBinAddr: 0x100023E20, symSize: 0x124 }
  - { offsetInCU: 0x1FEE9, offset: 0x173119, size: 0x8, addend: 0x0, symName: __ZNSt3__14swapB8ue170006IPNS_10shared_ptrI6ActionEEEENS_9enable_ifIXaasr21is_move_constructibleIT_EE5valuesr18is_move_assignableIS6_EE5valueEvE4typeERS6_S9_, symObjAddr: 0x88B4, symBinAddr: 0x100023F44, symSize: 0x3C }
  - { offsetInCU: 0x1FF3A, offset: 0x17316A, size: 0x8, addend: 0x0, symName: __ZNSt3__122__make_exception_guardB8ue170006INS_29_AllocatorDestroyRangeReverseINS_9allocatorINS_10shared_ptrI6ActionEEEENS_16reverse_iteratorIPS5_EEEEEENS_28__exception_guard_exceptionsIT_EESC_, symObjAddr: 0x88F0, symBinAddr: 0x100023F80, symSize: 0x4C }
  - { offsetInCU: 0x1FF70, offset: 0x1731A0, size: 0x8, addend: 0x0, symName: __ZNSt3__112construct_atB8ue170006INS_10shared_ptrI6ActionEEJS3_EPS3_EEPT_S6_DpOT0_, symObjAddr: 0x8ABC, symBinAddr: 0x10002414C, symSize: 0x3C }
  - { offsetInCU: 0x1FFE2, offset: 0x173212, size: 0x8, addend: 0x0, symName: __ZNSt3__119__allocator_destroyB8ue170006INS_9allocatorINS_10shared_ptrI6ActionEEEENS_16reverse_iteratorINS6_IPS4_EEEES9_EEvRT_T0_T1_, symObjAddr: 0x8C70, symBinAddr: 0x100024300, symSize: 0x70 }
  - { offsetInCU: 0x20047, offset: 0x173277, size: 0x8, addend: 0x0, symName: __ZNSt3__1neB8ue170006INS_16reverse_iteratorIPNS_10shared_ptrI6ActionEEEES6_EEbRKNS1_IT_EERKNS1_IT0_EE, symObjAddr: 0x8D1C, symBinAddr: 0x1000243AC, symSize: 0x60 }
  - { offsetInCU: 0x20093, offset: 0x1732C3, size: 0x8, addend: 0x0, symName: __ZNSt3__112__to_addressB8ue170006INS_16reverse_iteratorINS1_IPNS_10shared_ptrI6ActionEEEEEEvEEu7__decayIDTclsr19__to_address_helperIT_EE6__callclsr3stdE7declvalIRKS8_EEEEESA_, symObjAddr: 0x8D7C, symBinAddr: 0x10002440C, symSize: 0x24 }
  - { offsetInCU: 0x200F3, offset: 0x173323, size: 0x8, addend: 0x0, symName: __ZNSt3__14prevB8ue170006INS_16reverse_iteratorIPNS_10shared_ptrI6ActionEEEEEENS_9enable_ifIXsr29__has_input_iterator_categoryIT_EE5valueES8_E4typeES8_NS_15iterator_traitsIS8_E15difference_typeE, symObjAddr: 0x8E78, symBinAddr: 0x100024508, symSize: 0x4C }
  - { offsetInCU: 0x20136, offset: 0x173366, size: 0x8, addend: 0x0, symName: __ZNSt3__19__advanceB8ue170006INS_16reverse_iteratorIPNS_10shared_ptrI6ActionEEEEEEvRT_NS_15iterator_traitsIS7_E15difference_typeENS_26random_access_iterator_tagE, symObjAddr: 0x8EFC, symBinAddr: 0x10002458C, symSize: 0x2C }
  - { offsetInCU: 0x201A7, offset: 0x1733D7, size: 0x8, addend: 0x0, symName: __ZNSt3__112construct_atB8ue170006I14CommandDetailsJRS1_EPS1_EEPT_S5_DpOT0_, symObjAddr: 0x91CC, symBinAddr: 0x10002485C, symSize: 0x34 }
  - { offsetInCU: 0x20219, offset: 0x173449, size: 0x8, addend: 0x0, symName: __ZNSt3__115allocate_sharedB8ue170006I18CharwiseMoveActionNS_9allocatorIS1_EEJR10ScreenSizeR9DirectionEvEENS_10shared_ptrIT_EERKT0_DpOT1_, symObjAddr: 0x98F0, symBinAddr: 0x100024E44, symSize: 0xA0 }
  - { offsetInCU: 0x203D2, offset: 0x173602, size: 0x8, addend: 0x0, symName: __ZNSt3__112construct_atB8ue170006I18CharwiseMoveActionJR10ScreenSizeR9DirectionEPS1_EEPT_S8_DpOT0_, symObjAddr: 0xA068, symBinAddr: 0x100025028, symSize: 0x54 }
  - { offsetInCU: 0x20457, offset: 0x173687, size: 0x8, addend: 0x0, symName: __ZNSt3__115allocate_sharedB8ue170006I19DelimiterMoveActionNS_9allocatorIS1_EEJR10ScreenSizeNS_12basic_stringIcNS_11char_traitsIcEENS2_IcEEEER9DirectionR11EndBehaviorbEvEENS_10shared_ptrIT_EERKT0_DpOT1_, symObjAddr: 0xA428, symBinAddr: 0x10002507C, symSize: 0xB8 }
  - { offsetInCU: 0x208D6, offset: 0x173B06, size: 0x8, addend: 0x0, symName: __ZNSt3__112construct_atB8ue170006I19DelimiterMoveActionJR10ScreenSizeNS_12basic_stringIcNS_11char_traitsIcEENS_9allocatorIcEEEER9DirectionR11EndBehaviorbEPS1_EEPT_SG_DpOT0_, symObjAddr: 0xAB7C, symBinAddr: 0x1000257D0, symSize: 0xB8 }
  - { offsetInCU: 0x20994, offset: 0x173BC4, size: 0x8, addend: 0x0, symName: __ZNSt3__110destroy_atB8ue170006I19DelimiterMoveActionLi0EEEvPT_, symObjAddr: 0xACD0, symBinAddr: 0x100025924, symSize: 0x24 }
  - { offsetInCU: 0x209CB, offset: 0x173BFB, size: 0x8, addend: 0x0, symName: __ZNSt3__112__destroy_atB8ue170006I19DelimiterMoveActionLi0EEEvPT_, symObjAddr: 0xACF4, symBinAddr: 0x100025948, symSize: 0x2C }
  - { offsetInCU: 0x20A35, offset: 0x173C65, size: 0x8, addend: 0x0, symName: __ZNSt3__115allocate_sharedB8ue170006I15ScopeMoveActionNS_9allocatorIS1_EEJR10ScreenSizeR11EndBehaviorR5ScopeR9DirectionEvEENS_10shared_ptrIT_EERKT0_DpOT1_, symObjAddr: 0xAFA0, symBinAddr: 0x100025BF4, symSize: 0xB0 }
  - { offsetInCU: 0x20EDB, offset: 0x17410B, size: 0x8, addend: 0x0, symName: __ZNSt3__112construct_atB8ue170006I15ScopeMoveActionJR10ScreenSizeR11EndBehaviorR5ScopeR9DirectionEPS1_EEPT_SC_DpOT0_, symObjAddr: 0xB6D4, symBinAddr: 0x100026328, symSize: 0x6C }
  - { offsetInCU: 0x20F86, offset: 0x1741B6, size: 0x8, addend: 0x0, symName: __ZNSt3__110destroy_atB8ue170006I15ScopeMoveActionLi0EEEvPT_, symObjAddr: 0xB7DC, symBinAddr: 0x100026430, symSize: 0x24 }
  - { offsetInCU: 0x20FBD, offset: 0x1741ED, size: 0x8, addend: 0x0, symName: __ZNSt3__112__destroy_atB8ue170006I15ScopeMoveActionLi0EEEvPT_, symObjAddr: 0xB800, symBinAddr: 0x100026454, symSize: 0x2C }
  - { offsetInCU: 0x21027, offset: 0x174257, size: 0x8, addend: 0x0, symName: __ZNSt3__115allocate_sharedB8ue170006I19DelimiterMoveActionNS_9allocatorIS1_EEJR10ScreenSizeRNS_12basic_stringIcNS_11char_traitsIcEENS2_IcEEEER9DirectionR11EndBehaviorbEvEENS_10shared_ptrIT_EERKT0_DpOT1_, symObjAddr: 0xBAAC, symBinAddr: 0x100026700, symSize: 0xB8 }
  - { offsetInCU: 0x210F1, offset: 0x174321, size: 0x8, addend: 0x0, symName: __ZNSt3__112construct_atB8ue170006I19DelimiterMoveActionJR10ScreenSizeRNS_12basic_stringIcNS_11char_traitsIcEENS_9allocatorIcEEEER9DirectionR11EndBehaviorbEPS1_EEPT_SH_DpOT0_, symObjAddr: 0xBCF0, symBinAddr: 0x100026944, symSize: 0xB8 }
  - { offsetInCU: 0x211AF, offset: 0x1743DF, size: 0x8, addend: 0x0, symName: __ZNSt3__115allocate_sharedB8ue170006I22DelimiterCaseSetActionNS_9allocatorIS1_EEJR10ScreenSizeNS_12basic_stringIcNS_11char_traitsIcEENS2_IcEEEE9DirectionbR4CaseEvEENS_10shared_ptrIT_EERKT0_DpOT1_, symObjAddr: 0xBDA8, symBinAddr: 0x1000269FC, symSize: 0xB8 }
  - { offsetInCU: 0x2162E, offset: 0x17485E, size: 0x8, addend: 0x0, symName: __ZNSt3__112construct_atB8ue170006I22DelimiterCaseSetActionJR10ScreenSizeNS_12basic_stringIcNS_11char_traitsIcEENS_9allocatorIcEEEE9DirectionbR4CaseEPS1_EEPT_SF_DpOT0_, symObjAddr: 0xC4FC, symBinAddr: 0x100027150, symSize: 0xB8 }
  - { offsetInCU: 0x216EC, offset: 0x17491C, size: 0x8, addend: 0x0, symName: __ZNSt3__110destroy_atB8ue170006I22DelimiterCaseSetActionLi0EEEvPT_, symObjAddr: 0xC650, symBinAddr: 0x1000272A4, symSize: 0x24 }
  - { offsetInCU: 0x21723, offset: 0x174953, size: 0x8, addend: 0x0, symName: __ZNSt3__112__destroy_atB8ue170006I22DelimiterCaseSetActionLi0EEEvPT_, symObjAddr: 0xC674, symBinAddr: 0x1000272C8, symSize: 0x2C }
  - { offsetInCU: 0x2178D, offset: 0x1749BD, size: 0x8, addend: 0x0, symName: __ZNSt3__115allocate_sharedB8ue170006I18ScopeCaseSetActionNS_9allocatorIS1_EEJR10ScreenSizeR5ScopeR4CaseEvEENS_10shared_ptrIT_EERKT0_DpOT1_, symObjAddr: 0xC920, symBinAddr: 0x100027574, symSize: 0xA8 }
  - { offsetInCU: 0x21B76, offset: 0x174DA6, size: 0x8, addend: 0x0, symName: __ZNSt3__112construct_atB8ue170006I18ScopeCaseSetActionJR10ScreenSizeR5ScopeR4CaseEPS1_EEPT_SA_DpOT0_, symObjAddr: 0xD034, symBinAddr: 0x100027C88, symSize: 0x60 }
  - { offsetInCU: 0x21C0E, offset: 0x174E3E, size: 0x8, addend: 0x0, symName: __ZNSt3__110destroy_atB8ue170006I18ScopeCaseSetActionLi0EEEvPT_, symObjAddr: 0xD130, symBinAddr: 0x100027D84, symSize: 0x24 }
  - { offsetInCU: 0x21C45, offset: 0x174E75, size: 0x8, addend: 0x0, symName: __ZNSt3__112__destroy_atB8ue170006I18ScopeCaseSetActionLi0EEEvPT_, symObjAddr: 0xD154, symBinAddr: 0x100027DA8, symSize: 0x2C }
  - { offsetInCU: 0x21CAF, offset: 0x174EDF, size: 0x8, addend: 0x0, symName: __ZNSt3__115allocate_sharedB8ue170006I22DelimiterCaseSetActionNS_9allocatorIS1_EEJR10ScreenSizeRNS_12basic_stringIcNS_11char_traitsIcEENS2_IcEEEE9DirectionbR4CaseEvEENS_10shared_ptrIT_EERKT0_DpOT1_, symObjAddr: 0xD400, symBinAddr: 0x100028054, symSize: 0xB8 }
  - { offsetInCU: 0x21D79, offset: 0x174FA9, size: 0x8, addend: 0x0, symName: __ZNSt3__112construct_atB8ue170006I22DelimiterCaseSetActionJR10ScreenSizeRNS_12basic_stringIcNS_11char_traitsIcEENS_9allocatorIcEEEE9DirectionbR4CaseEPS1_EEPT_SG_DpOT0_, symObjAddr: 0xD644, symBinAddr: 0x100028298, symSize: 0xB8 }
  - { offsetInCU: 0x21E37, offset: 0x175067, size: 0x8, addend: 0x0, symName: __ZNSt3__115allocate_sharedB8ue170006I10QuitActionNS_9allocatorIS1_EEJ8QuitModeEvEENS_10shared_ptrIT_EERKT0_DpOT1_, symObjAddr: 0xD6FC, symBinAddr: 0x100028350, symSize: 0x98 }
  - { offsetInCU: 0x221E3, offset: 0x175413, size: 0x8, addend: 0x0, symName: __ZNSt3__112construct_atB8ue170006I10QuitActionJ8QuitModeEPS1_EEPT_S5_DpOT0_, symObjAddr: 0xDDD0, symBinAddr: 0x100028A24, symSize: 0x40 }
  - { offsetInCU: 0x22255, offset: 0x175485, size: 0x8, addend: 0x0, symName: __ZNSt3__110destroy_atB8ue170006I10QuitActionLi0EEEvPT_, symObjAddr: 0xDEAC, symBinAddr: 0x100028B00, symSize: 0x24 }
  - { offsetInCU: 0x2228C, offset: 0x1754BC, size: 0x8, addend: 0x0, symName: __ZNSt3__112__destroy_atB8ue170006I10QuitActionLi0EEEvPT_, symObjAddr: 0xDED0, symBinAddr: 0x100028B24, symSize: 0x2C }
  - { offsetInCU: 0x222F6, offset: 0x175526, size: 0x8, addend: 0x0, symName: __ZNSt3__115allocate_sharedB8ue170006I10SaveActionNS_9allocatorIS1_EEJR16SaveConfirmationEvEENS_10shared_ptrIT_EERKT0_DpOT1_, symObjAddr: 0xE13C, symBinAddr: 0x100028D90, symSize: 0x98 }
  - { offsetInCU: 0x226A2, offset: 0x1758D2, size: 0x8, addend: 0x0, symName: __ZNSt3__112construct_atB8ue170006I10SaveActionJR16SaveConfirmationEPS1_EEPT_S6_DpOT0_, symObjAddr: 0xE810, symBinAddr: 0x100029464, symSize: 0x40 }
  - { offsetInCU: 0x22714, offset: 0x175944, size: 0x8, addend: 0x0, symName: __ZNSt3__110destroy_atB8ue170006I10SaveActionLi0EEEvPT_, symObjAddr: 0xE8EC, symBinAddr: 0x100029540, symSize: 0x24 }
  - { offsetInCU: 0x2274B, offset: 0x17597B, size: 0x8, addend: 0x0, symName: __ZNSt3__112__destroy_atB8ue170006I10SaveActionLi0EEEvPT_, symObjAddr: 0xE910, symBinAddr: 0x100029564, symSize: 0x2C }
  - { offsetInCU: 0x227B5, offset: 0x1759E5, size: 0x8, addend: 0x0, symName: __ZNSt3__17launderB8ue170006IKNS_4pairIKc11ParseResultEEEEPT_S7_, symObjAddr: 0x1002C, symBinAddr: 0x10002AB24, symSize: 0x24 }
  - { offsetInCU: 0x227EC, offset: 0x175A1C, size: 0x8, addend: 0x0, symName: __ZNSt3__19__launderB8ue170006IKNS_4pairIKc11ParseResultEEEEPT_S7_, symObjAddr: 0x10050, symBinAddr: 0x10002AB48, symSize: 0x14 }
  - { offsetInCU: 0x2289B, offset: 0x175ACB, size: 0x8, addend: 0x0, symName: __ZNSt3__112construct_atB8ue170006INS_4pairIKc11ParseResultEEJRKS4_EPS4_EEPT_S9_DpOT0_, symObjAddr: 0x103D0, symBinAddr: 0x10002AEC8, symSize: 0x3C }
  - { offsetInCU: 0x2290D, offset: 0x175B3D, size: 0x8, addend: 0x0, symName: __ZNSt3__17launderB8ue170006INS_4pairIKc11ParseResultEEEEPT_S6_, symObjAddr: 0x104AC, symBinAddr: 0x10002AFA4, symSize: 0x24 }
  - { offsetInCU: 0x22944, offset: 0x175B74, size: 0x8, addend: 0x0, symName: __ZNSt3__19__launderB8ue170006INS_4pairIKc11ParseResultEEEEPT_S6_, symObjAddr: 0x104D0, symBinAddr: 0x10002AFC8, symSize: 0x14 }
  - { offsetInCU: 0x2297B, offset: 0x175BAB, size: 0x8, addend: 0x0, symName: __ZNSt3__110destroy_atB8ue170006INS_4pairIKc11ParseResultEELi0EEEvPT_, symObjAddr: 0x10F94, symBinAddr: 0x10002B9DC, symSize: 0x24 }
  - { offsetInCU: 0x229B2, offset: 0x175BE2, size: 0x8, addend: 0x0, symName: __ZNSt3__112__destroy_atB8ue170006INS_4pairIKc11ParseResultEELi0EEEvPT_, symObjAddr: 0x10FB8, symBinAddr: 0x10002BA00, symSize: 0x24 }
  - { offsetInCU: 0x229E9, offset: 0x175C19, size: 0x8, addend: 0x0, symName: __ZNSt3__1eqB8ue170006ERKNS_25__hash_map_const_iteratorINS_21__hash_const_iteratorIPNS_11__hash_nodeINS_17__hash_value_typeIc11ParseResultEEPvEEEEEESC_, symObjAddr: 0x1125C, symBinAddr: 0x10002BCA4, symSize: 0x30 }
  - { offsetInCU: 0x22A26, offset: 0x175C56, size: 0x8, addend: 0x0, symName: __ZNSt3__1eqB8ue170006ERKNS_21__hash_const_iteratorIPNS_11__hash_nodeINS_17__hash_value_typeIc11ParseResultEEPvEEEESA_, symObjAddr: 0x11304, symBinAddr: 0x10002BD4C, symSize: 0x30 }
  - { offsetInCU: 0x22A63, offset: 0x175C93, size: 0x8, addend: 0x0, symName: __ZNSt3__1eqB8ue170006ERKNS_19__hash_map_iteratorINS_15__hash_iteratorIPNS_11__hash_nodeINS_17__hash_value_typeIc11ParseResultEEPvEEEEEESC_, symObjAddr: 0x116C0, symBinAddr: 0x10002C108, symSize: 0x30 }
  - { offsetInCU: 0x22AA0, offset: 0x175CD0, size: 0x8, addend: 0x0, symName: __ZNSt3__1eqB8ue170006ERKNS_15__hash_iteratorIPNS_11__hash_nodeINS_17__hash_value_typeIc11ParseResultEEPvEEEESA_, symObjAddr: 0x119E8, symBinAddr: 0x10002C3CC, symSize: 0x30 }
  - { offsetInCU: 0x22B43, offset: 0x175D73, size: 0x8, addend: 0x0, symName: __ZNSt3__115allocate_sharedB8ue170006I13MessageActionNS_9allocatorIS1_EEJRNS_12basic_stringIcNS_11char_traitsIcEENS2_IcEEEEEvEENS_10shared_ptrIT_EERKT0_DpOT1_, symObjAddr: 0x11AF0, symBinAddr: 0x10002C454, symSize: 0x98 }
  - { offsetInCU: 0x22F53, offset: 0x176183, size: 0x8, addend: 0x0, symName: __ZNSt3__112construct_atB8ue170006I13MessageActionJRNS_12basic_stringIcNS_11char_traitsIcEENS_9allocatorIcEEEEEPS1_EEPT_SB_DpOT0_, symObjAddr: 0x121C4, symBinAddr: 0x10002CB28, symSize: 0x7C }
  - { offsetInCU: 0x22FC5, offset: 0x1761F5, size: 0x8, addend: 0x0, symName: __ZNSt3__110destroy_atB8ue170006I13MessageActionLi0EEEvPT_, symObjAddr: 0x12504, symBinAddr: 0x10002CE10, symSize: 0x24 }
  - { offsetInCU: 0x22FFC, offset: 0x17622C, size: 0x8, addend: 0x0, symName: __ZNSt3__112__destroy_atB8ue170006I13MessageActionLi0EEEvPT_, symObjAddr: 0x12528, symBinAddr: 0x10002CE34, symSize: 0x2C }
  - { offsetInCU: 0x23066, offset: 0x176296, size: 0x8, addend: 0x0, symName: __ZNSt3__115allocate_sharedB8ue170006I15ScopeMoveActionNS_9allocatorIS1_EEJR10ScreenSize11EndBehavior5ScopeR9DirectionEvEENS_10shared_ptrIT_EERKT0_DpOT1_, symObjAddr: 0x127D4, symBinAddr: 0x10002D0E0, symSize: 0xB0 }
  - { offsetInCU: 0x2311B, offset: 0x17634B, size: 0x8, addend: 0x0, symName: __ZNSt3__112construct_atB8ue170006I15ScopeMoveActionJR10ScreenSize11EndBehavior5ScopeR9DirectionEPS1_EEPT_SA_DpOT0_, symObjAddr: 0x129F8, symBinAddr: 0x10002D304, symSize: 0x6C }
  - { offsetInCU: 0x231C6, offset: 0x1763F6, size: 0x8, addend: 0x0, symName: __ZNSt3__115allocate_sharedB8ue170006I13MessageActionNS_9allocatorIS1_EEJRA42_KcEvEENS_10shared_ptrIT_EERKT0_DpOT1_, symObjAddr: 0x1375C, symBinAddr: 0x10002D370, symSize: 0x98 }
  - { offsetInCU: 0x2323F, offset: 0x17646F, size: 0x8, addend: 0x0, symName: __ZNSt3__112construct_atB8ue170006I13MessageActionJRA42_KcEPS1_EEPT_S7_DpOT0_, symObjAddr: 0x13920, symBinAddr: 0x10002D534, symSize: 0x7C }
  - { offsetInCU: 0x232B1, offset: 0x1764E1, size: 0x8, addend: 0x0, symName: __ZNSt3__115allocate_sharedB8ue170006I13MessageActionNS_9allocatorIS1_EEJRA35_KcEvEENS_10shared_ptrIT_EERKT0_DpOT1_, symObjAddr: 0x1399C, symBinAddr: 0x10002D5B0, symSize: 0x98 }
  - { offsetInCU: 0x2332A, offset: 0x17655A, size: 0x8, addend: 0x0, symName: __ZNSt3__112construct_atB8ue170006I13MessageActionJRA35_KcEPS1_EEPT_S7_DpOT0_, symObjAddr: 0x13B60, symBinAddr: 0x10002D774, symSize: 0x7C }
  - { offsetInCU: 0x234BE, offset: 0x1766EE, size: 0x8, addend: 0x0, symName: __ZNSt3__115allocate_sharedB8ue170006I15ScopeMoveActionNS_9allocatorIS1_EEJR10ScreenSize11EndBehavior5Scope9DirectionEvEENS_10shared_ptrIT_EERKT0_DpOT1_, symObjAddr: 0x14664, symBinAddr: 0x10002D7F0, symSize: 0xB0 }
  - { offsetInCU: 0x23573, offset: 0x1767A3, size: 0x8, addend: 0x0, symName: __ZNSt3__112construct_atB8ue170006I15ScopeMoveActionJR10ScreenSize11EndBehavior5Scope9DirectionEPS1_EEPT_S9_DpOT0_, symObjAddr: 0x14888, symBinAddr: 0x10002DA14, symSize: 0x6C }
  - { offsetInCU: 0x2361E, offset: 0x17684E, size: 0x8, addend: 0x0, symName: __ZNSt3__115allocate_sharedB8ue170006I22ParagraphJoiningActionNS_9allocatorIS1_EEJEvEENS_10shared_ptrIT_EERKT0_DpOT1_, symObjAddr: 0x148F4, symBinAddr: 0x10002DA80, symSize: 0x90 }
  - { offsetInCU: 0x239AA, offset: 0x176BDA, size: 0x8, addend: 0x0, symName: __ZNSt3__112construct_atB8ue170006I22ParagraphJoiningActionJEPS1_EEPT_S4_DpOT0_, symObjAddr: 0x14FA4, symBinAddr: 0x10002E130, symSize: 0x38 }
  - { offsetInCU: 0x23A08, offset: 0x176C38, size: 0x8, addend: 0x0, symName: __ZNSt3__110destroy_atB8ue170006I22ParagraphJoiningActionLi0EEEvPT_, symObjAddr: 0x150E8, symBinAddr: 0x10002E274, symSize: 0x24 }
  - { offsetInCU: 0x23A3F, offset: 0x176C6F, size: 0x8, addend: 0x0, symName: __ZNSt3__112__destroy_atB8ue170006I22ParagraphJoiningActionLi0EEEvPT_, symObjAddr: 0x1510C, symBinAddr: 0x10002E298, symSize: 0x2C }
  - { offsetInCU: 0x23AA9, offset: 0x176CD9, size: 0x8, addend: 0x0, symName: __ZNSt3__115allocate_sharedB8ue170006I11EraseActionNS_9allocatorIS1_EEJibEvEENS_10shared_ptrIT_EERKT0_DpOT1_, symObjAddr: 0x153B4, symBinAddr: 0x10002E540, symSize: 0xA0 }
  - { offsetInCU: 0x23B36, offset: 0x176D66, size: 0x8, addend: 0x0, symName: __ZNSt3__112construct_atB8ue170006I11EraseActionJibEPS1_EEPT_S4_DpOT0_, symObjAddr: 0x15598, symBinAddr: 0x10002E724, symSize: 0x50 }
  - { offsetInCU: 0x23BBB, offset: 0x176DEB, size: 0x8, addend: 0x0, symName: __ZNSt3__115allocate_sharedB8ue170006I12InsertActionNS_9allocatorIS1_EEJRcEvEENS_10shared_ptrIT_EERKT0_DpOT1_, symObjAddr: 0x155E8, symBinAddr: 0x10002E774, symSize: 0x98 }
  - { offsetInCU: 0x23D1A, offset: 0x176F4A, size: 0x8, addend: 0x0, symName: __ZNSt3__112construct_atB8ue170006I12InsertActionJRcEPS1_EEPT_S5_DpOT0_, symObjAddr: 0x15CBC, symBinAddr: 0x10002E938, symSize: 0x40 }
  - { offsetInCU: 0x23D8C, offset: 0x176FBC, size: 0x8, addend: 0x0, symName: __ZNSt3__115allocate_sharedB8ue170006I12IndentActionNS_9allocatorIS1_EEJiEvEENS_10shared_ptrIT_EERKT0_DpOT1_, symObjAddr: 0x16068, symBinAddr: 0x10002E978, symSize: 0x98 }
  - { offsetInCU: 0x24138, offset: 0x177368, size: 0x8, addend: 0x0, symName: __ZNSt3__112construct_atB8ue170006I12IndentActionJiEPS1_EEPT_S4_DpOT0_, symObjAddr: 0x1673C, symBinAddr: 0x10002F04C, symSize: 0x40 }
  - { offsetInCU: 0x241AA, offset: 0x1773DA, size: 0x8, addend: 0x0, symName: __ZNSt3__110destroy_atB8ue170006I12IndentActionLi0EEEvPT_, symObjAddr: 0x16818, symBinAddr: 0x10002F128, symSize: 0x24 }
  - { offsetInCU: 0x241E1, offset: 0x177411, size: 0x8, addend: 0x0, symName: __ZNSt3__112__destroy_atB8ue170006I12IndentActionLi0EEEvPT_, symObjAddr: 0x1683C, symBinAddr: 0x10002F14C, symSize: 0x2C }
  - { offsetInCU: 0x2424B, offset: 0x17747B, size: 0x8, addend: 0x0, symName: __ZNSt3__115allocate_sharedB8ue170006I14UnindentActionNS_9allocatorIS1_EEJiEvEENS_10shared_ptrIT_EERKT0_DpOT1_, symObjAddr: 0x16AE8, symBinAddr: 0x10002F3F8, symSize: 0x98 }
  - { offsetInCU: 0x245F7, offset: 0x177827, size: 0x8, addend: 0x0, symName: __ZNSt3__112construct_atB8ue170006I14UnindentActionJiEPS1_EEPT_S4_DpOT0_, symObjAddr: 0x171BC, symBinAddr: 0x10002FACC, symSize: 0x40 }
  - { offsetInCU: 0x24669, offset: 0x177899, size: 0x8, addend: 0x0, symName: __ZNSt3__110destroy_atB8ue170006I14UnindentActionLi0EEEvPT_, symObjAddr: 0x17298, symBinAddr: 0x10002FBA8, symSize: 0x24 }
  - { offsetInCU: 0x246A0, offset: 0x1778D0, size: 0x8, addend: 0x0, symName: __ZNSt3__112__destroy_atB8ue170006I14UnindentActionLi0EEEvPT_, symObjAddr: 0x172BC, symBinAddr: 0x10002FBCC, symSize: 0x2C }
  - { offsetInCU: 0x2470A, offset: 0x17793A, size: 0x8, addend: 0x0, symName: __ZNSt3__17launderB8ue170006IKNS_4pairIKc14CommandDetailsEEEEPT_S7_, symObjAddr: 0x187CC, symBinAddr: 0x1000310DC, symSize: 0x24 }
  - { offsetInCU: 0x24741, offset: 0x177971, size: 0x8, addend: 0x0, symName: __ZNSt3__19__launderB8ue170006IKNS_4pairIKc14CommandDetailsEEEEPT_S7_, symObjAddr: 0x187F0, symBinAddr: 0x100031100, symSize: 0x14 }
  - { offsetInCU: 0x247F0, offset: 0x177A20, size: 0x8, addend: 0x0, symName: __ZNSt3__112construct_atB8ue170006INS_4pairIKc14CommandDetailsEEJRKS4_EPS4_EEPT_S9_DpOT0_, symObjAddr: 0x18B70, symBinAddr: 0x100031480, symSize: 0x34 }
  - { offsetInCU: 0x24862, offset: 0x177A92, size: 0x8, addend: 0x0, symName: __ZNSt3__17launderB8ue170006INS_4pairIKc14CommandDetailsEEEEPT_S6_, symObjAddr: 0x18BC8, symBinAddr: 0x1000314D8, symSize: 0x24 }
  - { offsetInCU: 0x24899, offset: 0x177AC9, size: 0x8, addend: 0x0, symName: __ZNSt3__19__launderB8ue170006INS_4pairIKc14CommandDetailsEEEEPT_S6_, symObjAddr: 0x18BEC, symBinAddr: 0x1000314FC, symSize: 0x14 }
  - { offsetInCU: 0x248D0, offset: 0x177B00, size: 0x8, addend: 0x0, symName: __ZNSt3__110destroy_atB8ue170006INS_4pairIKc14CommandDetailsEELi0EEEvPT_, symObjAddr: 0x19600, symBinAddr: 0x100031F10, symSize: 0x24 }
  - { offsetInCU: 0x24907, offset: 0x177B37, size: 0x8, addend: 0x0, symName: __ZNSt3__112__destroy_atB8ue170006INS_4pairIKc14CommandDetailsEELi0EEEvPT_, symObjAddr: 0x19624, symBinAddr: 0x100031F34, symSize: 0x10 }
  - { offsetInCU: 0x2493F, offset: 0x177B6F, size: 0x8, addend: 0x0, symName: __ZNSt3__1eqB8ue170006ERKNS_25__hash_map_const_iteratorINS_21__hash_const_iteratorIPNS_11__hash_nodeINS_17__hash_value_typeIc14CommandDetailsEEPvEEEEEESC_, symObjAddr: 0x198B4, symBinAddr: 0x1000321C4, symSize: 0x30 }
  - { offsetInCU: 0x2497C, offset: 0x177BAC, size: 0x8, addend: 0x0, symName: __ZNSt3__1eqB8ue170006ERKNS_21__hash_const_iteratorIPNS_11__hash_nodeINS_17__hash_value_typeIc14CommandDetailsEEPvEEEESA_, symObjAddr: 0x1995C, symBinAddr: 0x10003226C, symSize: 0x30 }
  - { offsetInCU: 0x249B9, offset: 0x177BE9, size: 0x8, addend: 0x0, symName: __ZNSt3__1eqB8ue170006ERKNS_19__hash_map_iteratorINS_15__hash_iteratorIPNS_11__hash_nodeINS_17__hash_value_typeIc14CommandDetailsEEPvEEEEEESC_, symObjAddr: 0x19D18, symBinAddr: 0x100032628, symSize: 0x30 }
  - { offsetInCU: 0x249F6, offset: 0x177C26, size: 0x8, addend: 0x0, symName: __ZNSt3__1eqB8ue170006ERKNS_15__hash_iteratorIPNS_11__hash_nodeINS_17__hash_value_typeIc14CommandDetailsEEPvEEEESA_, symObjAddr: 0x19FDC, symBinAddr: 0x1000328EC, symSize: 0x30 }
  - { offsetInCU: 0x24A99, offset: 0x177CC9, size: 0x8, addend: 0x0, symName: __ZNSt3__17launderB8ue170006IKNS_4pairIKccEEEEPT_S6_, symObjAddr: 0x1B2C8, symBinAddr: 0x100033BD8, symSize: 0x24 }
  - { offsetInCU: 0x24AD0, offset: 0x177D00, size: 0x8, addend: 0x0, symName: __ZNSt3__19__launderB8ue170006IKNS_4pairIKccEEEEPT_S6_, symObjAddr: 0x1B2EC, symBinAddr: 0x100033BFC, symSize: 0x14 }
  - { offsetInCU: 0x24B7F, offset: 0x177DAF, size: 0x8, addend: 0x0, symName: __ZNSt3__112construct_atB8ue170006INS_4pairIKccEEJRKS3_EPS3_EEPT_S8_DpOT0_, symObjAddr: 0x1B66C, symBinAddr: 0x100033F7C, symSize: 0x2C }
  - { offsetInCU: 0x24BF1, offset: 0x177E21, size: 0x8, addend: 0x0, symName: __ZNSt3__17launderB8ue170006INS_4pairIKccEEEEPT_S5_, symObjAddr: 0x1B6BC, symBinAddr: 0x100033FCC, symSize: 0x24 }
  - { offsetInCU: 0x24C28, offset: 0x177E58, size: 0x8, addend: 0x0, symName: __ZNSt3__19__launderB8ue170006INS_4pairIKccEEEEPT_S5_, symObjAddr: 0x1B6E0, symBinAddr: 0x100033FF0, symSize: 0x14 }
  - { offsetInCU: 0x24C5F, offset: 0x177E8F, size: 0x8, addend: 0x0, symName: __ZNSt3__110destroy_atB8ue170006INS_4pairIKccEELi0EEEvPT_, symObjAddr: 0x1C0F4, symBinAddr: 0x100034A04, symSize: 0x24 }
  - { offsetInCU: 0x24C96, offset: 0x177EC6, size: 0x8, addend: 0x0, symName: __ZNSt3__112__destroy_atB8ue170006INS_4pairIKccEELi0EEEvPT_, symObjAddr: 0x1C118, symBinAddr: 0x100034A28, symSize: 0x10 }
  - { offsetInCU: 0x24CCE, offset: 0x177EFE, size: 0x8, addend: 0x0, symName: __ZNSt3__1eqB8ue170006ERKNS_25__hash_map_const_iteratorINS_21__hash_const_iteratorIPNS_11__hash_nodeINS_17__hash_value_typeIccEEPvEEEEEESB_, symObjAddr: 0x1C3A8, symBinAddr: 0x100034CB8, symSize: 0x30 }
  - { offsetInCU: 0x24D0B, offset: 0x177F3B, size: 0x8, addend: 0x0, symName: __ZNSt3__1eqB8ue170006ERKNS_21__hash_const_iteratorIPNS_11__hash_nodeINS_17__hash_value_typeIccEEPvEEEES9_, symObjAddr: 0x1C450, symBinAddr: 0x100034D60, symSize: 0x30 }
  - { offsetInCU: 0x24D48, offset: 0x177F78, size: 0x8, addend: 0x0, symName: __ZNSt3__1eqB8ue170006ERKNS_19__hash_map_iteratorINS_15__hash_iteratorIPNS_11__hash_nodeINS_17__hash_value_typeIccEEPvEEEEEESB_, symObjAddr: 0x1C80C, symBinAddr: 0x10003511C, symSize: 0x30 }
  - { offsetInCU: 0x24D85, offset: 0x177FB5, size: 0x8, addend: 0x0, symName: __ZNSt3__1eqB8ue170006ERKNS_15__hash_iteratorIPNS_11__hash_nodeINS_17__hash_value_typeIccEEPvEEEES9_, symObjAddr: 0x1CAD0, symBinAddr: 0x1000353E0, symSize: 0x30 }
  - { offsetInCU: 0x24E28, offset: 0x178058, size: 0x8, addend: 0x0, symName: __ZNSt3__17launderB8ue170006IKNS_4pairIKc5ScopeEEEEPT_S7_, symObjAddr: 0x1DDBC, symBinAddr: 0x1000366CC, symSize: 0x24 }
  - { offsetInCU: 0x24E5F, offset: 0x17808F, size: 0x8, addend: 0x0, symName: __ZNSt3__19__launderB8ue170006IKNS_4pairIKc5ScopeEEEEPT_S7_, symObjAddr: 0x1DDE0, symBinAddr: 0x1000366F0, symSize: 0x14 }
  - { offsetInCU: 0x24F0E, offset: 0x17813E, size: 0x8, addend: 0x0, symName: __ZNSt3__112construct_atB8ue170006INS_4pairIKc5ScopeEEJRKS4_EPS4_EEPT_S9_DpOT0_, symObjAddr: 0x1E160, symBinAddr: 0x100036A70, symSize: 0x2C }
  - { offsetInCU: 0x24F80, offset: 0x1781B0, size: 0x8, addend: 0x0, symName: __ZNSt3__17launderB8ue170006INS_4pairIKc5ScopeEEEEPT_S6_, symObjAddr: 0x1E1B0, symBinAddr: 0x100036AC0, symSize: 0x24 }
  - { offsetInCU: 0x24FB7, offset: 0x1781E7, size: 0x8, addend: 0x0, symName: __ZNSt3__19__launderB8ue170006INS_4pairIKc5ScopeEEEEPT_S6_, symObjAddr: 0x1E1D4, symBinAddr: 0x100036AE4, symSize: 0x14 }
  - { offsetInCU: 0x24FEE, offset: 0x17821E, size: 0x8, addend: 0x0, symName: __ZNSt3__110destroy_atB8ue170006INS_4pairIKc5ScopeEELi0EEEvPT_, symObjAddr: 0x1EBE8, symBinAddr: 0x1000374F8, symSize: 0x24 }
  - { offsetInCU: 0x25025, offset: 0x178255, size: 0x8, addend: 0x0, symName: __ZNSt3__112__destroy_atB8ue170006INS_4pairIKc5ScopeEELi0EEEvPT_, symObjAddr: 0x1EC0C, symBinAddr: 0x10003751C, symSize: 0x10 }
  - { offsetInCU: 0x2505D, offset: 0x17828D, size: 0x8, addend: 0x0, symName: __ZNSt3__1eqB8ue170006ERKNS_25__hash_map_const_iteratorINS_21__hash_const_iteratorIPNS_11__hash_nodeINS_17__hash_value_typeIc5ScopeEEPvEEEEEESC_, symObjAddr: 0x1EE9C, symBinAddr: 0x1000377AC, symSize: 0x30 }
  - { offsetInCU: 0x2509A, offset: 0x1782CA, size: 0x8, addend: 0x0, symName: __ZNSt3__1eqB8ue170006ERKNS_21__hash_const_iteratorIPNS_11__hash_nodeINS_17__hash_value_typeIc5ScopeEEPvEEEESA_, symObjAddr: 0x1EF44, symBinAddr: 0x100037854, symSize: 0x30 }
  - { offsetInCU: 0x250D7, offset: 0x178307, size: 0x8, addend: 0x0, symName: __ZNSt3__1eqB8ue170006ERKNS_19__hash_map_iteratorINS_15__hash_iteratorIPNS_11__hash_nodeINS_17__hash_value_typeIc5ScopeEEPvEEEEEESC_, symObjAddr: 0x1F300, symBinAddr: 0x100037C10, symSize: 0x30 }
  - { offsetInCU: 0x25114, offset: 0x178344, size: 0x8, addend: 0x0, symName: __ZNSt3__1eqB8ue170006ERKNS_15__hash_iteratorIPNS_11__hash_nodeINS_17__hash_value_typeIc5ScopeEEPvEEEESA_, symObjAddr: 0x1F5C4, symBinAddr: 0x100037ED4, symSize: 0x30 }
  - { offsetInCU: 0x26124, offset: 0x179354, size: 0x8, addend: 0x0, symName: __ZNSt3__16vectorINS_10shared_ptrI6ActionEENS_9allocatorIS3_EEE26__swap_out_circular_bufferERNS_14__split_bufferIS3_RS5_EE, symObjAddr: 0x83A8, symBinAddr: 0x100023AB8, symSize: 0x110 }
  - { offsetInCU: 0x29B36, offset: 0x17CD66, size: 0x8, addend: 0x0, symName: __ZN13CommandParser10emptyParseEv, symObjAddr: 0x0, symBinAddr: 0x10001E134, symSize: 0x3C }
  - { offsetInCU: 0x29B5D, offset: 0x17CD8D, size: 0x8, addend: 0x0, symName: __ZNSt3__18optionalI8ModeTypeEC1B8ue170006ENS_9nullopt_tE, symObjAddr: 0x3C, symBinAddr: 0x10001E170, symSize: 0x2C }
  - { offsetInCU: 0x29B90, offset: 0x17CDC0, size: 0x8, addend: 0x0, symName: __ZN13CommandParser25generateCharacterwiseMoveE10ScreenSize, symObjAddr: 0x94, symBinAddr: 0x10001E19C, symSize: 0x20C }
  - { offsetInCU: 0x29BCA, offset: 0x17CDFA, size: 0x8, addend: 0x0, symName: __ZNSt3__18optionalI14CommandDetailsEptB8ue170006Ev, symObjAddr: 0x31C, symBinAddr: 0x10001E3F0, symSize: 0x24 }
  - { offsetInCU: 0x29BF4, offset: 0x17CE24, size: 0x8, addend: 0x0, symName: __ZN13CommandParser26generateMultiCharacterMoveE10ScreenSize11EndBehavior, symObjAddr: 0x408, symBinAddr: 0x10001E414, symSize: 0x8CC }
  - { offsetInCU: 0x29C3A, offset: 0x17CE6A, size: 0x8, addend: 0x0, symName: __ZNKSt3__123__optional_storage_baseI5ScopeLb0EE9has_valueB8ue170006Ev, symObjAddr: 0xCD4, symBinAddr: 0x10001ECE0, symSize: 0x1C }
  - { offsetInCU: 0x29C64, offset: 0x17CE94, size: 0x8, addend: 0x0, symName: __ZNSt3__18optionalI8ModeTypeEC1B8ue170006IRS1_Li0EEEOT_, symObjAddr: 0xCF0, symBinAddr: 0x10001ECFC, symSize: 0x34 }
  - { offsetInCU: 0x29CAA, offset: 0x17CEDA, size: 0x8, addend: 0x0, symName: __ZNRSt3__18optionalIcE5valueB8ue170006Ev, symObjAddr: 0xD84, symBinAddr: 0x10001ED90, symSize: 0x3C }
  - { offsetInCU: 0x29CF2, offset: 0x17CF22, size: 0x8, addend: 0x0, symName: __ZNSt3__110shared_ptrI6ActionEC1B8ue170006I19DelimiterMoveActionvEEONS0_IT_EE, symObjAddr: 0xDFC, symBinAddr: 0x10001EDCC, symSize: 0x34 }
  - { offsetInCU: 0x29D33, offset: 0x17CF63, size: 0x8, addend: 0x0, symName: __ZNSt3__110shared_ptrI19DelimiterMoveActionED1B8ue170006Ev, symObjAddr: 0xE30, symBinAddr: 0x10001EE00, symSize: 0x2C }
  - { offsetInCU: 0x29D5B, offset: 0x17CF8B, size: 0x8, addend: 0x0, symName: __ZNRSt3__18optionalI5ScopeE5valueB8ue170006Ev, symObjAddr: 0xE5C, symBinAddr: 0x10001EE2C, symSize: 0x3C }
  - { offsetInCU: 0x29DA3, offset: 0x17CFD3, size: 0x8, addend: 0x0, symName: __ZNSt3__110shared_ptrI6ActionEC1B8ue170006I15ScopeMoveActionvEEONS0_IT_EE, symObjAddr: 0xEF0, symBinAddr: 0x10001EEC0, symSize: 0x34 }
  - { offsetInCU: 0x29DE4, offset: 0x17D014, size: 0x8, addend: 0x0, symName: __ZNSt3__110shared_ptrI15ScopeMoveActionED1B8ue170006Ev, symObjAddr: 0xF24, symBinAddr: 0x10001EEF4, symSize: 0x2C }
  - { offsetInCU: 0x29E0C, offset: 0x17D03C, size: 0x8, addend: 0x0, symName: __ZN13CommandParser22generateCaseSetCommandE10ScreenSize4Case, symObjAddr: 0xFB0, symBinAddr: 0x10001EF80, symSize: 0x83C }
  - { offsetInCU: 0x29E67, offset: 0x17D097, size: 0x8, addend: 0x0, symName: __ZN13CommandParser24getOpeningRangeIndicatorEc, symObjAddr: 0x184C, symBinAddr: 0x10001F81C, symSize: 0x1A4 }
  - { offsetInCU: 0x29ED1, offset: 0x17D101, size: 0x8, addend: 0x0, symName: __ZNSt3__110shared_ptrI6ActionEC1B8ue170006I22DelimiterCaseSetActionvEEONS0_IT_EE, symObjAddr: 0x1A14, symBinAddr: 0x10001F9C0, symSize: 0x34 }
  - { offsetInCU: 0x29F12, offset: 0x17D142, size: 0x8, addend: 0x0, symName: __ZN13CommandParser24getClosingRangeIndicatorEc, symObjAddr: 0x1A48, symBinAddr: 0x10001F9F4, symSize: 0x1A4 }
  - { offsetInCU: 0x29F59, offset: 0x17D189, size: 0x8, addend: 0x0, symName: __ZNSt3__110shared_ptrI22DelimiterCaseSetActionED1B8ue170006Ev, symObjAddr: 0x1BEC, symBinAddr: 0x10001FB98, symSize: 0x2C }
  - { offsetInCU: 0x29F81, offset: 0x17D1B1, size: 0x8, addend: 0x0, symName: __ZNRSt3__18optionalI5ScopeEdeB8ue170006Ev, symObjAddr: 0x1C18, symBinAddr: 0x10001FBC4, symSize: 0x24 }
  - { offsetInCU: 0x29FC9, offset: 0x17D1F9, size: 0x8, addend: 0x0, symName: __ZNSt3__110shared_ptrI6ActionEC1B8ue170006I18ScopeCaseSetActionvEEONS0_IT_EE, symObjAddr: 0x1C8C, symBinAddr: 0x10001FC38, symSize: 0x34 }
  - { offsetInCU: 0x2A00A, offset: 0x17D23A, size: 0x8, addend: 0x0, symName: __ZNSt3__110shared_ptrI18ScopeCaseSetActionED1B8ue170006Ev, symObjAddr: 0x1CC0, symBinAddr: 0x10001FC6C, symSize: 0x2C }
  - { offsetInCU: 0x2A032, offset: 0x17D262, size: 0x8, addend: 0x0, symName: __ZN13CommandParser19generateFileCommandERK8Settings, symObjAddr: 0x1D4C, symBinAddr: 0x10001FCF8, symSize: 0xD80 }
  - { offsetInCU: 0x2A0BE, offset: 0x17D2EE, size: 0x8, addend: 0x0, symName: __ZNSt3__110shared_ptrI6ActionEC1B8ue170006I10QuitActionvEEONS0_IT_EE, symObjAddr: 0x2B40, symBinAddr: 0x100020AB8, symSize: 0x34 }
  - { offsetInCU: 0x2A109, offset: 0x17D339, size: 0x8, addend: 0x0, symName: __ZNSt3__14pairIKc11ParseResultEC1B8ue170006ILb1ELPv0EEERS1_RKS2_, symObjAddr: 0x2B74, symBinAddr: 0x100020AEC, symSize: 0x3C }
  - { offsetInCU: 0x2A181, offset: 0x17D3B1, size: 0x8, addend: 0x0, symName: __ZNSt3__110shared_ptrI6ActionEC1B8ue170006I10SaveActionvEEONS0_IT_EE, symObjAddr: 0x2BF0, symBinAddr: 0x100020B68, symSize: 0x34 }
  - { offsetInCU: 0x2A28A, offset: 0x17D4BA, size: 0x8, addend: 0x0, symName: __ZNSt3__113unordered_mapIc11ParseResultNS_4hashIcEENS_8equal_toIcEENS_9allocatorINS_4pairIKcS1_EEEEEC1ESt16initializer_listIS9_E, symObjAddr: 0x2C24, symBinAddr: 0x100020B9C, symSize: 0x3C }
  - { offsetInCU: 0x2A2C4, offset: 0x17D4F4, size: 0x8, addend: 0x0, symName: __ZNSt3__14pairIKc11ParseResultED1Ev, symObjAddr: 0x2C60, symBinAddr: 0x100020BD8, symSize: 0x2C }
  - { offsetInCU: 0x2A2F4, offset: 0x17D524, size: 0x8, addend: 0x0, symName: __ZNSt3__110shared_ptrI10QuitActionED1B8ue170006Ev, symObjAddr: 0x2CB8, symBinAddr: 0x100020C04, symSize: 0x2C }
  - { offsetInCU: 0x2A31C, offset: 0x17D54C, size: 0x8, addend: 0x0, symName: __ZNSt3__110shared_ptrI10SaveActionED1B8ue170006Ev, symObjAddr: 0x2CE4, symBinAddr: 0x100020C30, symSize: 0x2C }
  - { offsetInCU: 0x2A344, offset: 0x17D574, size: 0x8, addend: 0x0, symName: __ZNKSt3__113unordered_mapIc11ParseResultNS_4hashIcEENS_8equal_toIcEENS_9allocatorINS_4pairIKcS1_EEEEE8containsB8ue170006ERS8_, symObjAddr: 0x2D10, symBinAddr: 0x100020C5C, symSize: 0x64 }
  - { offsetInCU: 0x2A378, offset: 0x17D5A8, size: 0x8, addend: 0x0, symName: __ZNSt3__113unordered_mapIc11ParseResultNS_4hashIcEENS_8equal_toIcEENS_9allocatorINS_4pairIKcS1_EEEEE2atERS8_, symObjAddr: 0x2D74, symBinAddr: 0x100020CC0, symSize: 0x7C }
  - { offsetInCU: 0x2A3BD, offset: 0x17D5ED, size: 0x8, addend: 0x0, symName: __ZN11ParseResultC1ERKS_, symObjAddr: 0x2DF0, symBinAddr: 0x100020D3C, symSize: 0x34 }
  - { offsetInCU: 0x2A414, offset: 0x17D644, size: 0x8, addend: 0x0, symName: __ZNSt3__110shared_ptrI6ActionEC1B8ue170006I13MessageActionvEEONS0_IT_EE, symObjAddr: 0x2EE8, symBinAddr: 0x100020DB0, symSize: 0x34 }
  - { offsetInCU: 0x2A455, offset: 0x17D685, size: 0x8, addend: 0x0, symName: __ZNSt3__110shared_ptrI13MessageActionED1B8ue170006Ev, symObjAddr: 0x2F1C, symBinAddr: 0x100020DE4, symSize: 0x2C }
  - { offsetInCU: 0x2A47D, offset: 0x17D6AD, size: 0x8, addend: 0x0, symName: __ZNSt3__113unordered_mapIc11ParseResultNS_4hashIcEENS_8equal_toIcEENS_9allocatorINS_4pairIKcS1_EEEEED1B8ue170006Ev, symObjAddr: 0x2F48, symBinAddr: 0x100020E10, symSize: 0x2C }
  - { offsetInCU: 0x2A4A5, offset: 0x17D6D5, size: 0x8, addend: 0x0, symName: __ZN13CommandParser31generatParagraphCreationCommandE10ScreenSize, symObjAddr: 0x2F74, symBinAddr: 0x100020E3C, symSize: 0x358 }
  - { offsetInCU: 0x2A4F0, offset: 0x17D720, size: 0x8, addend: 0x0, symName: __ZNSt3__16vectorINS_10shared_ptrI6ActionEENS_9allocatorIS3_EEE12emplace_backIJNS1_I18CharwiseMoveActionEEEEERS3_DpOT_, symObjAddr: 0x33BC, symBinAddr: 0x1000211EC, symSize: 0x74 }
  - { offsetInCU: 0x2A531, offset: 0x17D761, size: 0x8, addend: 0x0, symName: __ZN13CommandParser12generateHintEv, symObjAddr: 0x3478, symBinAddr: 0x100021260, symSize: 0x3E4 }
  - { offsetInCU: 0x2A559, offset: 0x17D789, size: 0x8, addend: 0x0, symName: __ZN13CommandParser15generateActionsE10ScreenSizeRK8Settings, symObjAddr: 0x38DC, symBinAddr: 0x1000216C4, symSize: 0xD94 }
  - { offsetInCU: 0x2A59F, offset: 0x17D7CF, size: 0x8, addend: 0x0, symName: __ZNKSt3__123__optional_storage_baseI14CommandDetailsLb0EE9has_valueB8ue170006Ev, symObjAddr: 0x46AC, symBinAddr: 0x100022494, symSize: 0x1C }
  - { offsetInCU: 0x2A5EC, offset: 0x17D81C, size: 0x8, addend: 0x0, symName: __ZNSt3__110shared_ptrI6ActionEC1B8ue170006I22ParagraphJoiningActionvEEONS0_IT_EE, symObjAddr: 0x47F8, symBinAddr: 0x100022540, symSize: 0x34 }
  - { offsetInCU: 0x2A62D, offset: 0x17D85D, size: 0x8, addend: 0x0, symName: __ZNSt3__110shared_ptrI22ParagraphJoiningActionED1B8ue170006Ev, symObjAddr: 0x482C, symBinAddr: 0x100022574, symSize: 0x2C }
  - { offsetInCU: 0x2A67D, offset: 0x17D8AD, size: 0x8, addend: 0x0, symName: __ZNSt3__110shared_ptrI6ActionEC1B8ue170006I12IndentActionvEEONS0_IT_EE, symObjAddr: 0x4980, symBinAddr: 0x100022668, symSize: 0x34 }
  - { offsetInCU: 0x2A6BE, offset: 0x17D8EE, size: 0x8, addend: 0x0, symName: __ZNSt3__110shared_ptrI12IndentActionED1B8ue170006Ev, symObjAddr: 0x49B4, symBinAddr: 0x10002269C, symSize: 0x2C }
  - { offsetInCU: 0x2A709, offset: 0x17D939, size: 0x8, addend: 0x0, symName: __ZNSt3__110shared_ptrI6ActionEC1B8ue170006I14UnindentActionvEEONS0_IT_EE, symObjAddr: 0x4A20, symBinAddr: 0x100022708, symSize: 0x34 }
  - { offsetInCU: 0x2A74A, offset: 0x17D97A, size: 0x8, addend: 0x0, symName: __ZNSt3__110shared_ptrI14UnindentActionED1B8ue170006Ev, symObjAddr: 0x4A54, symBinAddr: 0x10002273C, symSize: 0x2C }
  - { offsetInCU: 0x2A772, offset: 0x17D9A2, size: 0x8, addend: 0x0, symName: __ZN13CommandParser15parseAsOperatorEc, symObjAddr: 0x4A80, symBinAddr: 0x100022768, symSize: 0x224 }
  - { offsetInCU: 0x2A893, offset: 0x17DAC3, size: 0x8, addend: 0x0, symName: __ZNSt3__113unordered_mapIc14CommandDetailsNS_4hashIcEENS_8equal_toIcEENS_9allocatorINS_4pairIKcS1_EEEEEC1ESt16initializer_listIS9_E, symObjAddr: 0x4CA4, symBinAddr: 0x10002298C, symSize: 0x3C }
  - { offsetInCU: 0x2A8CD, offset: 0x17DAFD, size: 0x8, addend: 0x0, symName: __ZNKSt3__113unordered_mapIc14CommandDetailsNS_4hashIcEENS_8equal_toIcEENS_9allocatorINS_4pairIKcS1_EEEEE8containsB8ue170006ERS8_, symObjAddr: 0x4CE0, symBinAddr: 0x1000229C8, symSize: 0x64 }
  - { offsetInCU: 0x2A901, offset: 0x17DB31, size: 0x8, addend: 0x0, symName: __ZNSt3__113unordered_mapIc14CommandDetailsNS_4hashIcEENS_8equal_toIcEENS_9allocatorINS_4pairIKcS1_EEEEE2atERS8_, symObjAddr: 0x4D44, symBinAddr: 0x100022A2C, symSize: 0x7C }
  - { offsetInCU: 0x2A94B, offset: 0x17DB7B, size: 0x8, addend: 0x0, symName: __ZNSt3__18optionalI14CommandDetailsEaSB8ue170006IRS1_vEERS2_OT_, symObjAddr: 0x4DC0, symBinAddr: 0x100022AA8, symSize: 0x70 }
  - { offsetInCU: 0x2A989, offset: 0x17DBB9, size: 0x8, addend: 0x0, symName: __ZNSt3__18optionalI14CommandDetailsEaSB8ue170006ENS_9nullopt_tE, symObjAddr: 0x4E30, symBinAddr: 0x100022B18, symSize: 0x2C }
  - { offsetInCU: 0x2A9B9, offset: 0x17DBE9, size: 0x8, addend: 0x0, symName: __ZNSt3__113unordered_mapIc14CommandDetailsNS_4hashIcEENS_8equal_toIcEENS_9allocatorINS_4pairIKcS1_EEEEED1B8ue170006Ev, symObjAddr: 0x4E5C, symBinAddr: 0x100022B44, symSize: 0x2C }
  - { offsetInCU: 0x2A9E1, offset: 0x17DC11, size: 0x8, addend: 0x0, symName: __ZN13CommandParser16parseAsParameterEc, symObjAddr: 0x4E88, symBinAddr: 0x100022B70, symSize: 0x1E4 }
  - { offsetInCU: 0x2AA35, offset: 0x17DC65, size: 0x8, addend: 0x0, symName: __ZN13CommandParser11charToScopeEc, symObjAddr: 0x506C, symBinAddr: 0x100022D54, symSize: 0x130 }
  - { offsetInCU: 0x2AA7D, offset: 0x17DCAD, size: 0x8, addend: 0x0, symName: __ZN13CommandParser16isRangeIndicatorEc, symObjAddr: 0x519C, symBinAddr: 0x100022E84, symSize: 0x64 }
  - { offsetInCU: 0x2AAB9, offset: 0x17DCE9, size: 0x8, addend: 0x0, symName: __ZNSt3__18optionalIcEC1B8ue170006IcLi0EEEOT_, symObjAddr: 0x5200, symBinAddr: 0x100022EE8, symSize: 0x34 }
  - { offsetInCU: 0x2AAFF, offset: 0x17DD2F, size: 0x8, addend: 0x0, symName: __ZNSt3__18optionalIcEC1B8ue170006IRcLi0EEEOT_, symObjAddr: 0x5234, symBinAddr: 0x100022F1C, symSize: 0x34 }
  - { offsetInCU: 0x2AB45, offset: 0x17DD75, size: 0x8, addend: 0x0, symName: __ZNSt3__14pairIKccEC1B8ue170006IccLPv0EEEOT_OT0_, symObjAddr: 0x5268, symBinAddr: 0x100022F50, symSize: 0x3C }
  - { offsetInCU: 0x2AC6A, offset: 0x17DE9A, size: 0x8, addend: 0x0, symName: __ZNSt3__113unordered_mapIccNS_4hashIcEENS_8equal_toIcEENS_9allocatorINS_4pairIKccEEEEEC1ESt16initializer_listIS8_E, symObjAddr: 0x52A4, symBinAddr: 0x100022F8C, symSize: 0x3C }
  - { offsetInCU: 0x2ACA4, offset: 0x17DED4, size: 0x8, addend: 0x0, symName: __ZNKSt3__113unordered_mapIccNS_4hashIcEENS_8equal_toIcEENS_9allocatorINS_4pairIKccEEEEE8containsB8ue170006ERS7_, symObjAddr: 0x52E0, symBinAddr: 0x100022FC8, symSize: 0x64 }
  - { offsetInCU: 0x2ACD8, offset: 0x17DF08, size: 0x8, addend: 0x0, symName: __ZNSt3__113unordered_mapIccNS_4hashIcEENS_8equal_toIcEENS_9allocatorINS_4pairIKccEEEEE2atERS7_, symObjAddr: 0x5344, symBinAddr: 0x10002302C, symSize: 0x7C }
  - { offsetInCU: 0x2AD1D, offset: 0x17DF4D, size: 0x8, addend: 0x0, symName: __ZNSt3__113unordered_mapIccNS_4hashIcEENS_8equal_toIcEENS_9allocatorINS_4pairIKccEEEEED1B8ue170006Ev, symObjAddr: 0x53C0, symBinAddr: 0x1000230A8, symSize: 0x2C }
  - { offsetInCU: 0x2AE0D, offset: 0x17E03D, size: 0x8, addend: 0x0, symName: __ZNSt3__113unordered_mapIc5ScopeNS_4hashIcEENS_8equal_toIcEENS_9allocatorINS_4pairIKcS1_EEEEEC1ESt16initializer_listIS9_E, symObjAddr: 0x53EC, symBinAddr: 0x1000230D4, symSize: 0x3C }
  - { offsetInCU: 0x2AE47, offset: 0x17E077, size: 0x8, addend: 0x0, symName: __ZNKSt3__113unordered_mapIc5ScopeNS_4hashIcEENS_8equal_toIcEENS_9allocatorINS_4pairIKcS1_EEEEE8containsB8ue170006ERS8_, symObjAddr: 0x5428, symBinAddr: 0x100023110, symSize: 0x64 }
  - { offsetInCU: 0x2AE7B, offset: 0x17E0AB, size: 0x8, addend: 0x0, symName: __ZNSt3__113unordered_mapIc5ScopeNS_4hashIcEENS_8equal_toIcEENS_9allocatorINS_4pairIKcS1_EEEEE2atERS8_, symObjAddr: 0x548C, symBinAddr: 0x100023174, symSize: 0x7C }
  - { offsetInCU: 0x2AEC5, offset: 0x17E0F5, size: 0x8, addend: 0x0, symName: __ZNSt3__18optionalI5ScopeEC1B8ue170006IRS1_Li0EEEOT_, symObjAddr: 0x5508, symBinAddr: 0x1000231F0, symSize: 0x34 }
  - { offsetInCU: 0x2AF0B, offset: 0x17E13B, size: 0x8, addend: 0x0, symName: __ZNSt3__18optionalI5ScopeEC1B8ue170006ENS_9nullopt_tE, symObjAddr: 0x553C, symBinAddr: 0x100023224, symSize: 0x2C }
  - { offsetInCU: 0x2AF3E, offset: 0x17E16E, size: 0x8, addend: 0x0, symName: __ZNSt3__113unordered_mapIc5ScopeNS_4hashIcEENS_8equal_toIcEENS_9allocatorINS_4pairIKcS1_EEEEED1B8ue170006Ev, symObjAddr: 0x5568, symBinAddr: 0x100023250, symSize: 0x2C }
  - { offsetInCU: 0x2AF66, offset: 0x17E196, size: 0x8, addend: 0x0, symName: __ZN13CommandParser10parseInputEc10ScreenSizeRK8Settings, symObjAddr: 0x5594, symBinAddr: 0x10002327C, symSize: 0x118 }
  - { offsetInCU: 0x2AFCB, offset: 0x17E1FB, size: 0x8, addend: 0x0, symName: __ZNSt3__18optionalI8ModeTypeEC2B8ue170006ENS_9nullopt_tE, symObjAddr: 0x56AC, symBinAddr: 0x100023394, symSize: 0x2C }
  - { offsetInCU: 0x2B003, offset: 0x17E233, size: 0x8, addend: 0x0, symName: __ZNSt3__127__optional_move_assign_baseI8ModeTypeLb1EEC2Ev, symObjAddr: 0x56D8, symBinAddr: 0x1000233C0, symSize: 0x2C }
  - { offsetInCU: 0x2B033, offset: 0x17E263, size: 0x8, addend: 0x0, symName: __ZNSt3__127__optional_copy_assign_baseI8ModeTypeLb1EEC2Ev, symObjAddr: 0x5704, symBinAddr: 0x1000233EC, symSize: 0x2C }
  - { offsetInCU: 0x2B063, offset: 0x17E293, size: 0x8, addend: 0x0, symName: __ZNSt3__120__optional_move_baseI8ModeTypeLb1EEC2Ev, symObjAddr: 0x5730, symBinAddr: 0x100023418, symSize: 0x2C }
  - { offsetInCU: 0x2B093, offset: 0x17E2C3, size: 0x8, addend: 0x0, symName: __ZNSt3__120__optional_copy_baseI8ModeTypeLb1EEC2Ev, symObjAddr: 0x575C, symBinAddr: 0x100023444, symSize: 0x2C }
  - { offsetInCU: 0x2B0BE, offset: 0x17E2EE, size: 0x8, addend: 0x0, symName: __ZNSt3__123__optional_storage_baseI8ModeTypeLb0EEC2Ev, symObjAddr: 0x5788, symBinAddr: 0x100023470, symSize: 0x2C }
  - { offsetInCU: 0x2B0E9, offset: 0x17E319, size: 0x8, addend: 0x0, symName: __ZNSt3__124__optional_destruct_baseI8ModeTypeLb1EEC2B8ue170006Ev, symObjAddr: 0x57B4, symBinAddr: 0x10002349C, symSize: 0x1C }
  - { offsetInCU: 0x2B11B, offset: 0x17E34B, size: 0x8, addend: 0x0, symName: __ZNRSt3__123__optional_storage_baseI14CommandDetailsLb0EE5__getB8ue170006Ev, symObjAddr: 0x5A90, symBinAddr: 0x1000234B8, symSize: 0x14 }
  - { offsetInCU: 0x2B163, offset: 0x17E393, size: 0x8, addend: 0x0, symName: __ZNSt3__18optionalI8ModeTypeEC2B8ue170006IRS1_Li0EEEOT_, symObjAddr: 0x7468, symBinAddr: 0x1000234CC, symSize: 0x34 }
  - { offsetInCU: 0x2B1A9, offset: 0x17E3D9, size: 0x8, addend: 0x0, symName: __ZNSt3__127__optional_move_assign_baseI8ModeTypeLb1EECI2NS_24__optional_destruct_baseIS1_Lb1EEEIJRS1_EEENS_10in_place_tEDpOT_, symObjAddr: 0x749C, symBinAddr: 0x100023500, symSize: 0x34 }
  - { offsetInCU: 0x2B1E6, offset: 0x17E416, size: 0x8, addend: 0x0, symName: __ZNSt3__127__optional_copy_assign_baseI8ModeTypeLb1EECI2NS_24__optional_destruct_baseIS1_Lb1EEEIJRS1_EEENS_10in_place_tEDpOT_, symObjAddr: 0x74D0, symBinAddr: 0x100023534, symSize: 0x34 }
  - { offsetInCU: 0x2B223, offset: 0x17E453, size: 0x8, addend: 0x0, symName: __ZNSt3__120__optional_move_baseI8ModeTypeLb1EECI2NS_24__optional_destruct_baseIS1_Lb1EEEIJRS1_EEENS_10in_place_tEDpOT_, symObjAddr: 0x7504, symBinAddr: 0x100023568, symSize: 0x34 }
  - { offsetInCU: 0x2B260, offset: 0x17E490, size: 0x8, addend: 0x0, symName: __ZNSt3__120__optional_copy_baseI8ModeTypeLb1EECI2NS_24__optional_destruct_baseIS1_Lb1EEEIJRS1_EEENS_10in_place_tEDpOT_, symObjAddr: 0x7538, symBinAddr: 0x10002359C, symSize: 0x34 }
  - { offsetInCU: 0x2B29D, offset: 0x17E4CD, size: 0x8, addend: 0x0, symName: __ZNSt3__123__optional_storage_baseI8ModeTypeLb0EECI2NS_24__optional_destruct_baseIS1_Lb1EEEIJRS1_EEENS_10in_place_tEDpOT_, symObjAddr: 0x756C, symBinAddr: 0x1000235D0, symSize: 0x34 }
  - { offsetInCU: 0x2B2DA, offset: 0x17E50A, size: 0x8, addend: 0x0, symName: __ZNSt3__124__optional_destruct_baseI8ModeTypeLb1EEC2B8ue170006IJRS1_EEENS_10in_place_tEDpOT_, symObjAddr: 0x75A0, symBinAddr: 0x100023604, symSize: 0x2C }
  - { offsetInCU: 0x2B336, offset: 0x17E566, size: 0x8, addend: 0x0, symName: __ZNSt19bad_optional_accessC1Ev, symObjAddr: 0x7634, symBinAddr: 0x100023668, symSize: 0x2C }
  - { offsetInCU: 0x2B361, offset: 0x17E591, size: 0x8, addend: 0x0, symName: __ZNSt19bad_optional_accessC2Ev, symObjAddr: 0x7660, symBinAddr: 0x100023694, symSize: 0x44 }
  - { offsetInCU: 0x2B38C, offset: 0x17E5BC, size: 0x8, addend: 0x0, symName: __ZNSt9exceptionC2B8ue170006Ev, symObjAddr: 0x76A4, symBinAddr: 0x1000236D8, symSize: 0x24 }
  - { offsetInCU: 0x2B3B4, offset: 0x17E5E4, size: 0x8, addend: 0x0, symName: __ZNRSt3__123__optional_storage_baseI5ScopeLb0EE5__getB8ue170006Ev, symObjAddr: 0x780C, symBinAddr: 0x1000236FC, symSize: 0x14 }
  - { offsetInCU: 0x2B3D9, offset: 0x17E609, size: 0x8, addend: 0x0, symName: __ZNSt3__14pairIKc11ParseResultEC2B8ue170006ILb1ELPv0EEERS1_RKS2_, symObjAddr: 0x78D0, symBinAddr: 0x100023710, symSize: 0x48 }
  - { offsetInCU: 0x2B42E, offset: 0x17E65E, size: 0x8, addend: 0x0, symName: __ZNSt3__14pairIKc11ParseResultED2Ev, symObjAddr: 0x7918, symBinAddr: 0x100023758, symSize: 0x30 }
  - { offsetInCU: 0x2B459, offset: 0x17E689, size: 0x8, addend: 0x0, symName: __ZN11ParseResultC2ERKS_, symObjAddr: 0x79E4, symBinAddr: 0x100023788, symSize: 0x48 }
  - { offsetInCU: 0x2B48D, offset: 0x17E6BD, size: 0x8, addend: 0x0, symName: __ZNSt3__16vectorINS_10shared_ptrI6ActionEENS_9allocatorIS3_EEE22__construct_one_at_endB8ue170006IJNS1_I18CharwiseMoveActionEEEEEvDpOT_, symObjAddr: 0x80C0, symBinAddr: 0x1000237D0, symSize: 0x90 }
  - { offsetInCU: 0x2B4DB, offset: 0x17E70B, size: 0x8, addend: 0x0, symName: __ZNSt3__16vectorINS_10shared_ptrI6ActionEENS_9allocatorIS3_EEE24__emplace_back_slow_pathIJNS1_I18CharwiseMoveActionEEEEEvDpOT_, symObjAddr: 0x8150, symBinAddr: 0x100023860, symSize: 0xD8 }
  - { offsetInCU: 0x2B53A, offset: 0x17E76A, size: 0x8, addend: 0x0, symName: __ZNSt3__16vectorINS_10shared_ptrI6ActionEENS_9allocatorIS3_EEE4backB8ue170006Ev, symObjAddr: 0x8228, symBinAddr: 0x100023938, symSize: 0x1C }
  - { offsetInCU: 0x2B55F, offset: 0x17E78F, size: 0x8, addend: 0x0, symName: __ZNSt3__116allocator_traitsINS_9allocatorINS_10shared_ptrI6ActionEEEEE9constructB8ue170006IS4_JNS2_I18CharwiseMoveActionEEEvvEEvRS5_PT_DpOT0_, symObjAddr: 0x8244, symBinAddr: 0x100023954, symSize: 0x30 }
  - { offsetInCU: 0x2B5B3, offset: 0x17E7E3, size: 0x8, addend: 0x0, symName: __ZNKSt3__16vectorINS_10shared_ptrI6ActionEENS_9allocatorIS3_EEE11__recommendB8ue170006Em, symObjAddr: 0x82B0, symBinAddr: 0x1000239C0, symSize: 0xB4 }
  - { offsetInCU: 0x2B607, offset: 0x17E837, size: 0x8, addend: 0x0, symName: __ZNSt3__114__split_bufferINS_10shared_ptrI6ActionEERNS_9allocatorIS3_EEEC1EmmS6_, symObjAddr: 0x8364, symBinAddr: 0x100023A74, symSize: 0x44 }
  - { offsetInCU: 0x2B65C, offset: 0x17E88C, size: 0x8, addend: 0x0, symName: __ZNSt3__114__split_bufferINS_10shared_ptrI6ActionEERNS_9allocatorIS3_EEED1Ev, symObjAddr: 0x84B8, symBinAddr: 0x100023BC8, symSize: 0x2C }
  - { offsetInCU: 0x2B687, offset: 0x17E8B7, size: 0x8, addend: 0x0, symName: __ZNSt3__114__split_bufferINS_10shared_ptrI6ActionEERNS_9allocatorIS3_EEEC2EmmS6_, symObjAddr: 0x8564, symBinAddr: 0x100023BF4, symSize: 0xD4 }
  - { offsetInCU: 0x2B6F9, offset: 0x17E929, size: 0x8, addend: 0x0, symName: __ZNSt3__117__compressed_pairIPNS_10shared_ptrI6ActionEERNS_9allocatorIS3_EEEC1B8ue170006IDnS7_EEOT_OT0_, symObjAddr: 0x8638, symBinAddr: 0x100023CC8, symSize: 0x3C }
  - { offsetInCU: 0x2B74F, offset: 0x17E97F, size: 0x8, addend: 0x0, symName: __ZNSt3__114__split_bufferINS_10shared_ptrI6ActionEERNS_9allocatorIS3_EEE7__allocB8ue170006Ev, symObjAddr: 0x8674, symBinAddr: 0x100023D04, symSize: 0x28 }
  - { offsetInCU: 0x2B774, offset: 0x17E9A4, size: 0x8, addend: 0x0, symName: __ZNSt3__114__split_bufferINS_10shared_ptrI6ActionEERNS_9allocatorIS3_EEE9__end_capB8ue170006Ev, symObjAddr: 0x869C, symBinAddr: 0x100023D2C, symSize: 0x28 }
  - { offsetInCU: 0x2B799, offset: 0x17E9C9, size: 0x8, addend: 0x0, symName: __ZNSt3__117__compressed_pairIPNS_10shared_ptrI6ActionEERNS_9allocatorIS3_EEEC2B8ue170006IDnS7_EEOT_OT0_, symObjAddr: 0x86C4, symBinAddr: 0x100023D54, symSize: 0x48 }
  - { offsetInCU: 0x2B7EF, offset: 0x17EA1F, size: 0x8, addend: 0x0, symName: __ZNSt3__122__compressed_pair_elemIRNS_9allocatorINS_10shared_ptrI6ActionEEEELi1ELb0EEC2B8ue170006IS6_vEEOT_, symObjAddr: 0x870C, symBinAddr: 0x100023D9C, symSize: 0x20 }
  - { offsetInCU: 0x2B82F, offset: 0x17EA5F, size: 0x8, addend: 0x0, symName: __ZNSt3__117__compressed_pairIPNS_10shared_ptrI6ActionEERNS_9allocatorIS3_EEE6secondB8ue170006Ev, symObjAddr: 0x872C, symBinAddr: 0x100023DBC, symSize: 0x28 }
  - { offsetInCU: 0x2B854, offset: 0x17EA84, size: 0x8, addend: 0x0, symName: __ZNSt3__122__compressed_pair_elemIRNS_9allocatorINS_10shared_ptrI6ActionEEEELi1ELb0EE5__getB8ue170006Ev, symObjAddr: 0x8754, symBinAddr: 0x100023DE4, symSize: 0x18 }
  - { offsetInCU: 0x2B879, offset: 0x17EAA9, size: 0x8, addend: 0x0, symName: __ZNSt3__117__compressed_pairIPNS_10shared_ptrI6ActionEERNS_9allocatorIS3_EEE5firstB8ue170006Ev, symObjAddr: 0x876C, symBinAddr: 0x100023DFC, symSize: 0x24 }
  - { offsetInCU: 0x2B89E, offset: 0x17EACE, size: 0x8, addend: 0x0, symName: __ZNSt3__129_AllocatorDestroyRangeReverseINS_9allocatorINS_10shared_ptrI6ActionEEEENS_16reverse_iteratorIPS4_EEEC1B8ue170006ERS5_RS8_SB_, symObjAddr: 0x893C, symBinAddr: 0x100023FCC, symSize: 0x44 }
  - { offsetInCU: 0x2B8F3, offset: 0x17EB23, size: 0x8, addend: 0x0, symName: __ZNSt3__116allocator_traitsINS_9allocatorINS_10shared_ptrI6ActionEEEEE9constructB8ue170006IS4_JS4_EvvEEvRS5_PT_DpOT0_, symObjAddr: 0x8980, symBinAddr: 0x100024010, symSize: 0x30 }
  - { offsetInCU: 0x2B947, offset: 0x17EB77, size: 0x8, addend: 0x0, symName: __ZNKSt3__116reverse_iteratorIPNS_10shared_ptrI6ActionEEEdeB8ue170006Ev, symObjAddr: 0x89B0, symBinAddr: 0x100024040, symSize: 0x28 }
  - { offsetInCU: 0x2B97A, offset: 0x17EBAA, size: 0x8, addend: 0x0, symName: __ZNSt3__128__exception_guard_exceptionsINS_29_AllocatorDestroyRangeReverseINS_9allocatorINS_10shared_ptrI6ActionEEEENS_16reverse_iteratorIPS5_EEEEE10__completeB8ue170006Ev, symObjAddr: 0x89D8, symBinAddr: 0x100024068, symSize: 0x1C }
  - { offsetInCU: 0x2B99F, offset: 0x17EBCF, size: 0x8, addend: 0x0, symName: __ZNSt3__128__exception_guard_exceptionsINS_29_AllocatorDestroyRangeReverseINS_9allocatorINS_10shared_ptrI6ActionEEEENS_16reverse_iteratorIPS5_EEEEED1B8ue170006Ev, symObjAddr: 0x89F4, symBinAddr: 0x100024084, symSize: 0x2C }
  - { offsetInCU: 0x2B9C7, offset: 0x17EBF7, size: 0x8, addend: 0x0, symName: __ZNSt3__128__exception_guard_exceptionsINS_29_AllocatorDestroyRangeReverseINS_9allocatorINS_10shared_ptrI6ActionEEEENS_16reverse_iteratorIPS5_EEEEEC1B8ue170006ESA_, symObjAddr: 0x8A20, symBinAddr: 0x1000240B0, symSize: 0x34 }
  - { offsetInCU: 0x2B9FE, offset: 0x17EC2E, size: 0x8, addend: 0x0, symName: __ZNSt3__128__exception_guard_exceptionsINS_29_AllocatorDestroyRangeReverseINS_9allocatorINS_10shared_ptrI6ActionEEEENS_16reverse_iteratorIPS5_EEEEEC2B8ue170006ESA_, symObjAddr: 0x8A54, symBinAddr: 0x1000240E4, symSize: 0x30 }
  - { offsetInCU: 0x2BA35, offset: 0x17EC65, size: 0x8, addend: 0x0, symName: __ZNSt3__129_AllocatorDestroyRangeReverseINS_9allocatorINS_10shared_ptrI6ActionEEEENS_16reverse_iteratorIPS4_EEEC2B8ue170006ERS5_RS8_SB_, symObjAddr: 0x8A84, symBinAddr: 0x100024114, symSize: 0x38 }
  - { offsetInCU: 0x2BA8A, offset: 0x17ECBA, size: 0x8, addend: 0x0, symName: __ZNSt3__110shared_ptrI6ActionEC1B8ue170006EOS2_, symObjAddr: 0x8AF8, symBinAddr: 0x100024188, symSize: 0x34 }
  - { offsetInCU: 0x2BAC1, offset: 0x17ECF1, size: 0x8, addend: 0x0, symName: __ZNSt3__110shared_ptrI6ActionEC2B8ue170006EOS2_, symObjAddr: 0x8B2C, symBinAddr: 0x1000241BC, symSize: 0x40 }
  - { offsetInCU: 0x2BAF8, offset: 0x17ED28, size: 0x8, addend: 0x0, symName: __ZNSt3__128__exception_guard_exceptionsINS_29_AllocatorDestroyRangeReverseINS_9allocatorINS_10shared_ptrI6ActionEEEENS_16reverse_iteratorIPS5_EEEEED2B8ue170006Ev, symObjAddr: 0x8B6C, symBinAddr: 0x1000241FC, symSize: 0x50 }
  - { offsetInCU: 0x2BB20, offset: 0x17ED50, size: 0x8, addend: 0x0, symName: __ZNKSt3__129_AllocatorDestroyRangeReverseINS_9allocatorINS_10shared_ptrI6ActionEEEENS_16reverse_iteratorIPS4_EEEclB8ue170006Ev, symObjAddr: 0x8BBC, symBinAddr: 0x10002424C, symSize: 0xB4 }
  - { offsetInCU: 0x2BB46, offset: 0x17ED76, size: 0x8, addend: 0x0, symName: __ZNSt3__116reverse_iteratorINS0_IPNS_10shared_ptrI6ActionEEEEEC1B8ue170006ES5_, symObjAddr: 0x8CE0, symBinAddr: 0x100024370, symSize: 0x3C }
  - { offsetInCU: 0x2BB7C, offset: 0x17EDAC, size: 0x8, addend: 0x0, symName: __ZNSt3__116reverse_iteratorINS0_IPNS_10shared_ptrI6ActionEEEEEppB8ue170006Ev, symObjAddr: 0x8DA0, symBinAddr: 0x100024430, symSize: 0x30 }
  - { offsetInCU: 0x2BBA1, offset: 0x17EDD1, size: 0x8, addend: 0x0, symName: __ZNKSt3__116reverse_iteratorINS0_IPNS_10shared_ptrI6ActionEEEEE4baseB8ue170006Ev, symObjAddr: 0x8DD0, symBinAddr: 0x100024460, symSize: 0x24 }
  - { offsetInCU: 0x2BBCB, offset: 0x17EDFB, size: 0x8, addend: 0x0, symName: __ZNSt3__119__to_address_helperINS_16reverse_iteratorINS1_IPNS_10shared_ptrI6ActionEEEEEEvE6__callB8ue170006ERKS7_, symObjAddr: 0x8DF4, symBinAddr: 0x100024484, symSize: 0x38 }
  - { offsetInCU: 0x2BBEE, offset: 0x17EE1E, size: 0x8, addend: 0x0, symName: __ZNKSt3__116reverse_iteratorINS0_IPNS_10shared_ptrI6ActionEEEEEptB8ue170006Ev, symObjAddr: 0x8E2C, symBinAddr: 0x1000244BC, symSize: 0x4C }
  - { offsetInCU: 0x2BC13, offset: 0x17EE43, size: 0x8, addend: 0x0, symName: __ZNSt3__116reverse_iteratorIPNS_10shared_ptrI6ActionEEEpLB8ue170006El, symObjAddr: 0x8F28, symBinAddr: 0x1000245B8, symSize: 0x30 }
  - { offsetInCU: 0x2BC46, offset: 0x17EE76, size: 0x8, addend: 0x0, symName: __ZNSt3__116reverse_iteratorIPNS_10shared_ptrI6ActionEEEmmB8ue170006Ev, symObjAddr: 0x8F58, symBinAddr: 0x1000245E8, symSize: 0x20 }
  - { offsetInCU: 0x2BC6B, offset: 0x17EE9B, size: 0x8, addend: 0x0, symName: __ZNSt3__116reverse_iteratorINS0_IPNS_10shared_ptrI6ActionEEEEEC2B8ue170006ES5_, symObjAddr: 0x8F78, symBinAddr: 0x100024608, symSize: 0x2C }
  - { offsetInCU: 0x2BCA1, offset: 0x17EED1, size: 0x8, addend: 0x0, symName: __ZNSt3__114__split_bufferINS_10shared_ptrI6ActionEERNS_9allocatorIS3_EEED2Ev, symObjAddr: 0x8FA4, symBinAddr: 0x100024634, symSize: 0x8C }
  - { offsetInCU: 0x2BCCC, offset: 0x17EEFC, size: 0x8, addend: 0x0, symName: __ZNSt3__114__split_bufferINS_10shared_ptrI6ActionEERNS_9allocatorIS3_EEE5clearB8ue170006Ev, symObjAddr: 0x9030, symBinAddr: 0x1000246C0, symSize: 0x28 }
  - { offsetInCU: 0x2BCF1, offset: 0x17EF21, size: 0x8, addend: 0x0, symName: __ZNKSt3__114__split_bufferINS_10shared_ptrI6ActionEERNS_9allocatorIS3_EEE8capacityB8ue170006Ev, symObjAddr: 0x9058, symBinAddr: 0x1000246E8, symSize: 0x40 }
  - { offsetInCU: 0x2BD16, offset: 0x17EF46, size: 0x8, addend: 0x0, symName: __ZNSt3__114__split_bufferINS_10shared_ptrI6ActionEERNS_9allocatorIS3_EEE17__destruct_at_endB8ue170006EPS3_, symObjAddr: 0x9098, symBinAddr: 0x100024728, symSize: 0x2C }
  - { offsetInCU: 0x2BD49, offset: 0x17EF79, size: 0x8, addend: 0x0, symName: __ZNSt3__114__split_bufferINS_10shared_ptrI6ActionEERNS_9allocatorIS3_EEE17__destruct_at_endB8ue170006EPS3_NS_17integral_constantIbLb0EEE, symObjAddr: 0x90C4, symBinAddr: 0x100024754, symSize: 0x80 }
  - { offsetInCU: 0x2BD89, offset: 0x17EFB9, size: 0x8, addend: 0x0, symName: __ZNKSt3__114__split_bufferINS_10shared_ptrI6ActionEERNS_9allocatorIS3_EEE9__end_capB8ue170006Ev, symObjAddr: 0x9144, symBinAddr: 0x1000247D4, symSize: 0x28 }
  - { offsetInCU: 0x2BDAE, offset: 0x17EFDE, size: 0x8, addend: 0x0, symName: __ZNKSt3__117__compressed_pairIPNS_10shared_ptrI6ActionEERNS_9allocatorIS3_EEE5firstB8ue170006Ev, symObjAddr: 0x916C, symBinAddr: 0x1000247FC, symSize: 0x24 }
  - { offsetInCU: 0x2BDD3, offset: 0x17F003, size: 0x8, addend: 0x0, symName: __ZNSt3__123__optional_storage_baseI14CommandDetailsLb0EE11__constructB8ue170006IJRS1_EEEvDpOT_, symObjAddr: 0x9190, symBinAddr: 0x100024820, symSize: 0x3C }
  - { offsetInCU: 0x2BE12, offset: 0x17F042, size: 0x8, addend: 0x0, symName: __ZNSt3__124__optional_destruct_baseI14CommandDetailsLb1EE5resetB8ue170006Ev, symObjAddr: 0x9200, symBinAddr: 0x100024890, symSize: 0x30 }
  - { offsetInCU: 0x2BE37, offset: 0x17F067, size: 0x8, addend: 0x0, symName: __ZNSt3__18optionalIcEC2B8ue170006IcLi0EEEOT_, symObjAddr: 0x9230, symBinAddr: 0x1000248C0, symSize: 0x34 }
  - { offsetInCU: 0x2BE82, offset: 0x17F0B2, size: 0x8, addend: 0x0, symName: __ZNSt3__127__optional_move_assign_baseIcLb1EECI2NS_24__optional_destruct_baseIcLb1EEEIJcEEENS_10in_place_tEDpOT_, symObjAddr: 0x9264, symBinAddr: 0x1000248F4, symSize: 0x34 }
  - { offsetInCU: 0x2BEC4, offset: 0x17F0F4, size: 0x8, addend: 0x0, symName: __ZNSt3__127__optional_copy_assign_baseIcLb1EECI2NS_24__optional_destruct_baseIcLb1EEEIJcEEENS_10in_place_tEDpOT_, symObjAddr: 0x9298, symBinAddr: 0x100024928, symSize: 0x34 }
  - { offsetInCU: 0x2BF06, offset: 0x17F136, size: 0x8, addend: 0x0, symName: __ZNSt3__120__optional_move_baseIcLb1EECI2NS_24__optional_destruct_baseIcLb1EEEIJcEEENS_10in_place_tEDpOT_, symObjAddr: 0x92CC, symBinAddr: 0x10002495C, symSize: 0x34 }
  - { offsetInCU: 0x2BF48, offset: 0x17F178, size: 0x8, addend: 0x0, symName: __ZNSt3__120__optional_copy_baseIcLb1EECI2NS_24__optional_destruct_baseIcLb1EEEIJcEEENS_10in_place_tEDpOT_, symObjAddr: 0x9300, symBinAddr: 0x100024990, symSize: 0x34 }
  - { offsetInCU: 0x2BF85, offset: 0x17F1B5, size: 0x8, addend: 0x0, symName: __ZNSt3__123__optional_storage_baseIcLb0EECI2NS_24__optional_destruct_baseIcLb1EEEIJcEEENS_10in_place_tEDpOT_, symObjAddr: 0x9334, symBinAddr: 0x1000249C4, symSize: 0x34 }
  - { offsetInCU: 0x2BFC2, offset: 0x17F1F2, size: 0x8, addend: 0x0, symName: __ZNSt3__124__optional_destruct_baseIcLb1EEC2B8ue170006IJcEEENS_10in_place_tEDpOT_, symObjAddr: 0x9368, symBinAddr: 0x1000249F8, symSize: 0x2C }
  - { offsetInCU: 0x2C00F, offset: 0x17F23F, size: 0x8, addend: 0x0, symName: __ZNSt3__18optionalIcEC2B8ue170006IRcLi0EEEOT_, symObjAddr: 0x9394, symBinAddr: 0x100024A24, symSize: 0x34 }
  - { offsetInCU: 0x2C055, offset: 0x17F285, size: 0x8, addend: 0x0, symName: __ZNSt3__127__optional_move_assign_baseIcLb1EECI2NS_24__optional_destruct_baseIcLb1EEEIJRcEEENS_10in_place_tEDpOT_, symObjAddr: 0x93C8, symBinAddr: 0x100024A58, symSize: 0x34 }
  - { offsetInCU: 0x2C092, offset: 0x17F2C2, size: 0x8, addend: 0x0, symName: __ZNSt3__127__optional_copy_assign_baseIcLb1EECI2NS_24__optional_destruct_baseIcLb1EEEIJRcEEENS_10in_place_tEDpOT_, symObjAddr: 0x93FC, symBinAddr: 0x100024A8C, symSize: 0x34 }
  - { offsetInCU: 0x2C0CF, offset: 0x17F2FF, size: 0x8, addend: 0x0, symName: __ZNSt3__120__optional_move_baseIcLb1EECI2NS_24__optional_destruct_baseIcLb1EEEIJRcEEENS_10in_place_tEDpOT_, symObjAddr: 0x9430, symBinAddr: 0x100024AC0, symSize: 0x34 }
  - { offsetInCU: 0x2C10C, offset: 0x17F33C, size: 0x8, addend: 0x0, symName: __ZNSt3__120__optional_copy_baseIcLb1EECI2NS_24__optional_destruct_baseIcLb1EEEIJRcEEENS_10in_place_tEDpOT_, symObjAddr: 0x9464, symBinAddr: 0x100024AF4, symSize: 0x34 }
  - { offsetInCU: 0x2C149, offset: 0x17F379, size: 0x8, addend: 0x0, symName: __ZNSt3__123__optional_storage_baseIcLb0EECI2NS_24__optional_destruct_baseIcLb1EEEIJRcEEENS_10in_place_tEDpOT_, symObjAddr: 0x9498, symBinAddr: 0x100024B28, symSize: 0x34 }
  - { offsetInCU: 0x2C186, offset: 0x17F3B6, size: 0x8, addend: 0x0, symName: __ZNSt3__124__optional_destruct_baseIcLb1EEC2B8ue170006IJRcEEENS_10in_place_tEDpOT_, symObjAddr: 0x94CC, symBinAddr: 0x100024B5C, symSize: 0x2C }
  - { offsetInCU: 0x2C1D3, offset: 0x17F403, size: 0x8, addend: 0x0, symName: __ZNSt3__14pairIKccEC2B8ue170006IccLPv0EEEOT_OT0_, symObjAddr: 0x94F8, symBinAddr: 0x100024B88, symSize: 0x34 }
  - { offsetInCU: 0x2C230, offset: 0x17F460, size: 0x8, addend: 0x0, symName: __ZNSt3__18optionalI5ScopeEC2B8ue170006IRS1_Li0EEEOT_, symObjAddr: 0x952C, symBinAddr: 0x100024BBC, symSize: 0x34 }
  - { offsetInCU: 0x2C27B, offset: 0x17F4AB, size: 0x8, addend: 0x0, symName: __ZNSt3__127__optional_move_assign_baseI5ScopeLb1EECI2NS_24__optional_destruct_baseIS1_Lb1EEEIJRS1_EEENS_10in_place_tEDpOT_, symObjAddr: 0x9560, symBinAddr: 0x100024BF0, symSize: 0x34 }
  - { offsetInCU: 0x2C2BD, offset: 0x17F4ED, size: 0x8, addend: 0x0, symName: __ZNSt3__127__optional_copy_assign_baseI5ScopeLb1EECI2NS_24__optional_destruct_baseIS1_Lb1EEEIJRS1_EEENS_10in_place_tEDpOT_, symObjAddr: 0x9594, symBinAddr: 0x100024C24, symSize: 0x34 }
  - { offsetInCU: 0x2C2FF, offset: 0x17F52F, size: 0x8, addend: 0x0, symName: __ZNSt3__120__optional_move_baseI5ScopeLb1EECI2NS_24__optional_destruct_baseIS1_Lb1EEEIJRS1_EEENS_10in_place_tEDpOT_, symObjAddr: 0x95C8, symBinAddr: 0x100024C58, symSize: 0x34 }
  - { offsetInCU: 0x2C341, offset: 0x17F571, size: 0x8, addend: 0x0, symName: __ZNSt3__120__optional_copy_baseI5ScopeLb1EECI2NS_24__optional_destruct_baseIS1_Lb1EEEIJRS1_EEENS_10in_place_tEDpOT_, symObjAddr: 0x95FC, symBinAddr: 0x100024C8C, symSize: 0x34 }
  - { offsetInCU: 0x2C37E, offset: 0x17F5AE, size: 0x8, addend: 0x0, symName: __ZNSt3__123__optional_storage_baseI5ScopeLb0EECI2NS_24__optional_destruct_baseIS1_Lb1EEEIJRS1_EEENS_10in_place_tEDpOT_, symObjAddr: 0x9630, symBinAddr: 0x100024CC0, symSize: 0x34 }
  - { offsetInCU: 0x2C3BB, offset: 0x17F5EB, size: 0x8, addend: 0x0, symName: __ZNSt3__124__optional_destruct_baseI5ScopeLb1EEC2B8ue170006IJRS1_EEENS_10in_place_tEDpOT_, symObjAddr: 0x9664, symBinAddr: 0x100024CF4, symSize: 0x2C }
  - { offsetInCU: 0x2C408, offset: 0x17F638, size: 0x8, addend: 0x0, symName: __ZNSt3__18optionalI5ScopeEC2B8ue170006ENS_9nullopt_tE, symObjAddr: 0x9690, symBinAddr: 0x100024D20, symSize: 0x2C }
  - { offsetInCU: 0x2C43B, offset: 0x17F66B, size: 0x8, addend: 0x0, symName: __ZNSt3__127__optional_move_assign_baseI5ScopeLb1EEC2Ev, symObjAddr: 0x96BC, symBinAddr: 0x100024D4C, symSize: 0x2C }
  - { offsetInCU: 0x2C466, offset: 0x17F696, size: 0x8, addend: 0x0, symName: __ZNSt3__127__optional_copy_assign_baseI5ScopeLb1EEC2Ev, symObjAddr: 0x96E8, symBinAddr: 0x100024D78, symSize: 0x2C }
  - { offsetInCU: 0x2C491, offset: 0x17F6C1, size: 0x8, addend: 0x0, symName: __ZNSt3__120__optional_move_baseI5ScopeLb1EEC2Ev, symObjAddr: 0x9714, symBinAddr: 0x100024DA4, symSize: 0x2C }
  - { offsetInCU: 0x2C4BC, offset: 0x17F6EC, size: 0x8, addend: 0x0, symName: __ZNSt3__120__optional_copy_baseI5ScopeLb1EEC2Ev, symObjAddr: 0x9740, symBinAddr: 0x100024DD0, symSize: 0x2C }
  - { offsetInCU: 0x2C4E7, offset: 0x17F717, size: 0x8, addend: 0x0, symName: __ZNSt3__123__optional_storage_baseI5ScopeLb0EEC2Ev, symObjAddr: 0x976C, symBinAddr: 0x100024DFC, symSize: 0x2C }
  - { offsetInCU: 0x2C512, offset: 0x17F742, size: 0x8, addend: 0x0, symName: __ZNSt3__124__optional_destruct_baseI5ScopeLb1EEC2B8ue170006Ev, symObjAddr: 0x9798, symBinAddr: 0x100024E28, symSize: 0x1C }
  - { offsetInCU: 0x2C544, offset: 0x17F774, size: 0x8, addend: 0x0, symName: __ZNSt3__120__shared_ptr_emplaceI18CharwiseMoveActionNS_9allocatorIS1_EEEC1B8ue170006IJR10ScreenSizeR9DirectionEEES3_DpOT_, symObjAddr: 0x9A08, symBinAddr: 0x100024EE4, symSize: 0x3C }
  - { offsetInCU: 0x2C5A9, offset: 0x17F7D9, size: 0x8, addend: 0x0, symName: __ZNSt3__120__shared_ptr_emplaceI18CharwiseMoveActionNS_9allocatorIS1_EEEC2B8ue170006IJR10ScreenSizeR9DirectionEEES3_DpOT_, symObjAddr: 0x9CD8, symBinAddr: 0x100024F20, symSize: 0xD0 }
  - { offsetInCU: 0x2C634, offset: 0x17F864, size: 0x8, addend: 0x0, symName: __ZNSt3__116allocator_traitsINS_9allocatorI18CharwiseMoveActionEEE9constructB8ue170006IS2_JR10ScreenSizeR9DirectionEvvEEvRS3_PT_DpOT0_, symObjAddr: 0x9E58, symBinAddr: 0x100024FF0, symSize: 0x38 }
  - { offsetInCU: 0x2C69C, offset: 0x17F8CC, size: 0x8, addend: 0x0, symName: __ZNSt3__19allocatorI19DelimiterMoveActionEC1B8ue170006Ev, symObjAddr: 0xA4E0, symBinAddr: 0x100025134, symSize: 0x2C }
  - { offsetInCU: 0x2C6F1, offset: 0x17F921, size: 0x8, addend: 0x0, symName: __ZNSt3__118__allocation_guardINS_9allocatorINS_20__shared_ptr_emplaceI19DelimiterMoveActionNS1_IS3_EEEEEEEC1B8ue170006IS4_EET_m, symObjAddr: 0xA50C, symBinAddr: 0x100025160, symSize: 0x34 }
  - { offsetInCU: 0x2C73E, offset: 0x17F96E, size: 0x8, addend: 0x0, symName: __ZNKSt3__118__allocation_guardINS_9allocatorINS_20__shared_ptr_emplaceI19DelimiterMoveActionNS1_IS3_EEEEEEE5__getB8ue170006Ev, symObjAddr: 0xA540, symBinAddr: 0x100025194, symSize: 0x18 }
  - { offsetInCU: 0x2C772, offset: 0x17F9A2, size: 0x8, addend: 0x0, symName: __ZNSt3__120__shared_ptr_emplaceI19DelimiterMoveActionNS_9allocatorIS1_EEEC1B8ue170006IJR10ScreenSizeNS_12basic_stringIcNS_11char_traitsIcEENS2_IcEEEER9DirectionR11EndBehaviorbEEES3_DpOT_, symObjAddr: 0xA558, symBinAddr: 0x1000251AC, symSize: 0x54 }
  - { offsetInCU: 0x2C813, offset: 0x17FA43, size: 0x8, addend: 0x0, symName: __ZNSt3__118__allocation_guardINS_9allocatorINS_20__shared_ptr_emplaceI19DelimiterMoveActionNS1_IS3_EEEEEEE13__release_ptrB8ue170006Ev, symObjAddr: 0xA5AC, symBinAddr: 0x100025200, symSize: 0x24 }
  - { offsetInCU: 0x2C846, offset: 0x17FA76, size: 0x8, addend: 0x0, symName: __ZNSt3__110shared_ptrI19DelimiterMoveActionE27__create_with_control_blockB8ue170006IS1_NS_20__shared_ptr_emplaceIS1_NS_9allocatorIS1_EEEEEES2_PT_PT0_, symObjAddr: 0xA5D0, symBinAddr: 0x100025224, symSize: 0xA4 }
  - { offsetInCU: 0x2C89B, offset: 0x17FACB, size: 0x8, addend: 0x0, symName: __ZNSt3__120__shared_ptr_emplaceI19DelimiterMoveActionNS_9allocatorIS1_EEE10__get_elemB8ue170006Ev, symObjAddr: 0xA674, symBinAddr: 0x1000252C8, symSize: 0x28 }
  - { offsetInCU: 0x2C8C0, offset: 0x17FAF0, size: 0x8, addend: 0x0, symName: __ZNSt3__118__allocation_guardINS_9allocatorINS_20__shared_ptr_emplaceI19DelimiterMoveActionNS1_IS3_EEEEEEED1B8ue170006Ev, symObjAddr: 0xA69C, symBinAddr: 0x1000252F0, symSize: 0x2C }
  - { offsetInCU: 0x2C8E8, offset: 0x17FB18, size: 0x8, addend: 0x0, symName: __ZNSt3__118__allocation_guardINS_9allocatorINS_20__shared_ptr_emplaceI19DelimiterMoveActionNS1_IS3_EEEEEEEC2B8ue170006IS4_EET_m, symObjAddr: 0xA6C8, symBinAddr: 0x10002531C, symSize: 0x50 }
  - { offsetInCU: 0x2C935, offset: 0x17FB65, size: 0x8, addend: 0x0, symName: __ZNSt3__19allocatorINS_20__shared_ptr_emplaceI19DelimiterMoveActionNS0_IS2_EEEEEC1B8ue170006IS2_EERKNS0_IT_EE, symObjAddr: 0xA718, symBinAddr: 0x10002536C, symSize: 0x34 }
  - { offsetInCU: 0x2C971, offset: 0x17FBA1, size: 0x8, addend: 0x0, symName: __ZNSt3__116allocator_traitsINS_9allocatorINS_20__shared_ptr_emplaceI19DelimiterMoveActionNS1_IS3_EEEEEEE8allocateB8ue170006ERS6_m, symObjAddr: 0xA74C, symBinAddr: 0x1000253A0, symSize: 0x2C }
  - { offsetInCU: 0x2C9A4, offset: 0x17FBD4, size: 0x8, addend: 0x0, symName: __ZNSt3__19allocatorINS_20__shared_ptr_emplaceI19DelimiterMoveActionNS0_IS2_EEEEEC2B8ue170006IS2_EERKNS0_IT_EE, symObjAddr: 0xA778, symBinAddr: 0x1000253CC, symSize: 0x30 }
  - { offsetInCU: 0x2C9E0, offset: 0x17FC10, size: 0x8, addend: 0x0, symName: __ZNSt3__116__non_trivial_ifILb1ENS_9allocatorINS_20__shared_ptr_emplaceI19DelimiterMoveActionNS1_IS3_EEEEEEEC2B8ue170006Ev, symObjAddr: 0xA7A8, symBinAddr: 0x1000253FC, symSize: 0x14 }
  - { offsetInCU: 0x2CA08, offset: 0x17FC38, size: 0x8, addend: 0x0, symName: __ZNSt3__19allocatorINS_20__shared_ptr_emplaceI19DelimiterMoveActionNS0_IS2_EEEEE8allocateB8ue170006Em, symObjAddr: 0xA7BC, symBinAddr: 0x100025410, symSize: 0x5C }
  - { offsetInCU: 0x2CA45, offset: 0x17FC75, size: 0x8, addend: 0x0, symName: __ZNSt3__116allocator_traitsINS_9allocatorINS_20__shared_ptr_emplaceI19DelimiterMoveActionNS1_IS3_EEEEEEE8max_sizeB8ue170006IS6_vvEEmRKS6_, symObjAddr: 0xA818, symBinAddr: 0x10002546C, symSize: 0x28 }
  - { offsetInCU: 0x2CA70, offset: 0x17FCA0, size: 0x8, addend: 0x0, symName: __ZNSt3__120__shared_ptr_emplaceI19DelimiterMoveActionNS_9allocatorIS1_EEEC2B8ue170006IJR10ScreenSizeNS_12basic_stringIcNS_11char_traitsIcEENS2_IcEEEER9DirectionR11EndBehaviorbEEES3_DpOT_, symObjAddr: 0xA840, symBinAddr: 0x100025494, symSize: 0xE8 }
  - { offsetInCU: 0x2CB32, offset: 0x17FD62, size: 0x8, addend: 0x0, symName: __ZNSt3__120__shared_ptr_emplaceI19DelimiterMoveActionNS_9allocatorIS1_EEE8_StorageC1B8ue170006EOS3_, symObjAddr: 0xA928, symBinAddr: 0x10002557C, symSize: 0x34 }
  - { offsetInCU: 0x2CB69, offset: 0x17FD99, size: 0x8, addend: 0x0, symName: __ZNSt3__120__shared_ptr_emplaceI19DelimiterMoveActionNS_9allocatorIS1_EEE11__get_allocB8ue170006Ev, symObjAddr: 0xA95C, symBinAddr: 0x1000255B0, symSize: 0x28 }
  - { offsetInCU: 0x2CB93, offset: 0x17FDC3, size: 0x8, addend: 0x0, symName: __ZNSt3__116allocator_traitsINS_9allocatorI19DelimiterMoveActionEEE9constructB8ue170006IS2_JR10ScreenSizeNS_12basic_stringIcNS_11char_traitsIcEENS1_IcEEEER9DirectionR11EndBehaviorbEvvEEvRS3_PT_DpOT0_, symObjAddr: 0xA984, symBinAddr: 0x1000255D8, symSize: 0x50 }
  - { offsetInCU: 0x2CC37, offset: 0x17FE67, size: 0x8, addend: 0x0, symName: __ZNSt3__120__shared_ptr_emplaceI19DelimiterMoveActionNS_9allocatorIS1_EEE8_StorageD1B8ue170006Ev, symObjAddr: 0xA9D4, symBinAddr: 0x100025628, symSize: 0x2C }
  - { offsetInCU: 0x2CC5F, offset: 0x17FE8F, size: 0x8, addend: 0x0, symName: __ZNSt3__120__shared_ptr_emplaceI19DelimiterMoveActionNS_9allocatorIS1_EEED1Ev, symObjAddr: 0xAA00, symBinAddr: 0x100025654, symSize: 0x2C }
  - { offsetInCU: 0x2CC8A, offset: 0x17FEBA, size: 0x8, addend: 0x0, symName: __ZNSt3__120__shared_ptr_emplaceI19DelimiterMoveActionNS_9allocatorIS1_EEED0Ev, symObjAddr: 0xAA2C, symBinAddr: 0x100025680, symSize: 0x30 }
  - { offsetInCU: 0x2CCB5, offset: 0x17FEE5, size: 0x8, addend: 0x0, symName: __ZNSt3__120__shared_ptr_emplaceI19DelimiterMoveActionNS_9allocatorIS1_EEE16__on_zero_sharedEv, symObjAddr: 0xAA5C, symBinAddr: 0x1000256B0, symSize: 0x44 }
  - { offsetInCU: 0x2CCFB, offset: 0x17FF2B, size: 0x8, addend: 0x0, symName: __ZNSt3__120__shared_ptr_emplaceI19DelimiterMoveActionNS_9allocatorIS1_EEE21__on_zero_shared_weakEv, symObjAddr: 0xAAA0, symBinAddr: 0x1000256F4, symSize: 0x5C }
  - { offsetInCU: 0x2CD3B, offset: 0x17FF6B, size: 0x8, addend: 0x0, symName: __ZNSt3__120__shared_ptr_emplaceI19DelimiterMoveActionNS_9allocatorIS1_EEE8_StorageC2B8ue170006EOS3_, symObjAddr: 0xAAFC, symBinAddr: 0x100025750, symSize: 0x30 }
  - { offsetInCU: 0x2CD72, offset: 0x17FFA2, size: 0x8, addend: 0x0, symName: __ZNSt3__120__shared_ptr_emplaceI19DelimiterMoveActionNS_9allocatorIS1_EEE8_Storage11__get_allocB8ue170006Ev, symObjAddr: 0xAB2C, symBinAddr: 0x100025780, symSize: 0x3C }
  - { offsetInCU: 0x2CDC4, offset: 0x17FFF4, size: 0x8, addend: 0x0, symName: __ZNSt3__117__compressed_pairINS_9allocatorI19DelimiterMoveActionEES2_E16__get_first_baseB8ue170006EPS4_, symObjAddr: 0xAB68, symBinAddr: 0x1000257BC, symSize: 0x14 }
  - { offsetInCU: 0x2CDE7, offset: 0x180017, size: 0x8, addend: 0x0, symName: __ZNSt3__120__shared_ptr_emplaceI19DelimiterMoveActionNS_9allocatorIS1_EEE8_StorageD2B8ue170006Ev, symObjAddr: 0xAC34, symBinAddr: 0x100025888, symSize: 0x2C }
  - { offsetInCU: 0x2CE0F, offset: 0x18003F, size: 0x8, addend: 0x0, symName: __ZNSt3__120__shared_ptr_emplaceI19DelimiterMoveActionNS_9allocatorIS1_EEED2Ev, symObjAddr: 0xAC60, symBinAddr: 0x1000258B4, symSize: 0x48 }
  - { offsetInCU: 0x2CE3A, offset: 0x18006A, size: 0x8, addend: 0x0, symName: __ZNSt3__116allocator_traitsINS_9allocatorI19DelimiterMoveActionEEE7destroyB8ue170006IS2_vvEEvRS3_PT_, symObjAddr: 0xACA8, symBinAddr: 0x1000258FC, symSize: 0x28 }
  - { offsetInCU: 0x2CE74, offset: 0x1800A4, size: 0x8, addend: 0x0, symName: __ZNSt3__116allocator_traitsINS_9allocatorINS_20__shared_ptr_emplaceI19DelimiterMoveActionNS1_IS3_EEEEEEE10deallocateB8ue170006ERS6_PS5_m, symObjAddr: 0xAD20, symBinAddr: 0x100025974, symSize: 0x34 }
  - { offsetInCU: 0x2CEBB, offset: 0x1800EB, size: 0x8, addend: 0x0, symName: __ZNSt3__114pointer_traitsIPNS_20__shared_ptr_emplaceI19DelimiterMoveActionNS_9allocatorIS2_EEEEE10pointer_toB8ue170006ERS5_, symObjAddr: 0xAD54, symBinAddr: 0x1000259A8, symSize: 0x14 }
  - { offsetInCU: 0x2CEDE, offset: 0x18010E, size: 0x8, addend: 0x0, symName: __ZNSt3__19allocatorINS_20__shared_ptr_emplaceI19DelimiterMoveActionNS0_IS2_EEEEE10deallocateB8ue170006EPS4_m, symObjAddr: 0xAD68, symBinAddr: 0x1000259BC, symSize: 0x44 }
  - { offsetInCU: 0x2CF1F, offset: 0x18014F, size: 0x8, addend: 0x0, symName: __ZNSt3__110shared_ptrI19DelimiterMoveActionEC1B8ue170006Ev, symObjAddr: 0xADAC, symBinAddr: 0x100025A00, symSize: 0x2C }
  - { offsetInCU: 0x2CF47, offset: 0x180177, size: 0x8, addend: 0x0, symName: __ZNSt3__110shared_ptrI19DelimiterMoveActionE18__enable_weak_thisB8ue170006Ez, symObjAddr: 0xADD8, symBinAddr: 0x100025A2C, symSize: 0x10 }
  - { offsetInCU: 0x2CF6D, offset: 0x18019D, size: 0x8, addend: 0x0, symName: __ZNSt3__110shared_ptrI19DelimiterMoveActionEC2B8ue170006Ev, symObjAddr: 0xADE8, symBinAddr: 0x100025A3C, symSize: 0x1C }
  - { offsetInCU: 0x2CF95, offset: 0x1801C5, size: 0x8, addend: 0x0, symName: __ZNSt3__120__shared_ptr_emplaceI19DelimiterMoveActionNS_9allocatorIS1_EEE8_Storage10__get_elemB8ue170006Ev, symObjAddr: 0xAE04, symBinAddr: 0x100025A58, symSize: 0x3C }
  - { offsetInCU: 0x2CFE7, offset: 0x180217, size: 0x8, addend: 0x0, symName: __ZNSt3__117__compressed_pairINS_9allocatorI19DelimiterMoveActionEES2_E17__get_second_baseB8ue170006EPS4_, symObjAddr: 0xAE40, symBinAddr: 0x100025A94, symSize: 0x14 }
  - { offsetInCU: 0x2D00A, offset: 0x18023A, size: 0x8, addend: 0x0, symName: __ZNSt3__118__allocation_guardINS_9allocatorINS_20__shared_ptr_emplaceI19DelimiterMoveActionNS1_IS3_EEEEEEED2B8ue170006Ev, symObjAddr: 0xAE54, symBinAddr: 0x100025AA8, symSize: 0x2C }
  - { offsetInCU: 0x2D032, offset: 0x180262, size: 0x8, addend: 0x0, symName: __ZNSt3__118__allocation_guardINS_9allocatorINS_20__shared_ptr_emplaceI19DelimiterMoveActionNS1_IS3_EEEEEEE9__destroyB8ue170006Ev, symObjAddr: 0xAE80, symBinAddr: 0x100025AD4, symSize: 0x4C }
  - { offsetInCU: 0x2D057, offset: 0x180287, size: 0x8, addend: 0x0, symName: __ZNSt3__19allocatorI19DelimiterMoveActionEC2B8ue170006Ev, symObjAddr: 0xAECC, symBinAddr: 0x100025B20, symSize: 0x2C }
  - { offsetInCU: 0x2D07F, offset: 0x1802AF, size: 0x8, addend: 0x0, symName: __ZNSt3__116__non_trivial_ifILb1ENS_9allocatorI19DelimiterMoveActionEEEC2B8ue170006Ev, symObjAddr: 0xAEF8, symBinAddr: 0x100025B4C, symSize: 0x14 }
  - { offsetInCU: 0x2D0A7, offset: 0x1802D7, size: 0x8, addend: 0x0, symName: __ZNSt3__110shared_ptrI19DelimiterMoveActionED2B8ue170006Ev, symObjAddr: 0xAF0C, symBinAddr: 0x100025B60, symSize: 0x54 }
  - { offsetInCU: 0x2D0CF, offset: 0x1802FF, size: 0x8, addend: 0x0, symName: __ZNSt3__110shared_ptrI6ActionEC2B8ue170006I19DelimiterMoveActionvEEONS0_IT_EE, symObjAddr: 0xAF60, symBinAddr: 0x100025BB4, symSize: 0x40 }
  - { offsetInCU: 0x2D110, offset: 0x180340, size: 0x8, addend: 0x0, symName: __ZNSt3__19allocatorI15ScopeMoveActionEC1B8ue170006Ev, symObjAddr: 0xB050, symBinAddr: 0x100025CA4, symSize: 0x2C }
  - { offsetInCU: 0x2D165, offset: 0x180395, size: 0x8, addend: 0x0, symName: __ZNSt3__118__allocation_guardINS_9allocatorINS_20__shared_ptr_emplaceI15ScopeMoveActionNS1_IS3_EEEEEEEC1B8ue170006IS4_EET_m, symObjAddr: 0xB07C, symBinAddr: 0x100025CD0, symSize: 0x34 }
  - { offsetInCU: 0x2D1B2, offset: 0x1803E2, size: 0x8, addend: 0x0, symName: __ZNKSt3__118__allocation_guardINS_9allocatorINS_20__shared_ptr_emplaceI15ScopeMoveActionNS1_IS3_EEEEEEE5__getB8ue170006Ev, symObjAddr: 0xB0B0, symBinAddr: 0x100025D04, symSize: 0x18 }
  - { offsetInCU: 0x2D1D7, offset: 0x180407, size: 0x8, addend: 0x0, symName: __ZNSt3__120__shared_ptr_emplaceI15ScopeMoveActionNS_9allocatorIS1_EEEC1B8ue170006IJR10ScreenSizeR11EndBehaviorR5ScopeR9DirectionEEES3_DpOT_, symObjAddr: 0xB0C8, symBinAddr: 0x100025D1C, symSize: 0x4C }
  - { offsetInCU: 0x2D264, offset: 0x180494, size: 0x8, addend: 0x0, symName: __ZNSt3__118__allocation_guardINS_9allocatorINS_20__shared_ptr_emplaceI15ScopeMoveActionNS1_IS3_EEEEEEE13__release_ptrB8ue170006Ev, symObjAddr: 0xB114, symBinAddr: 0x100025D68, symSize: 0x24 }
  - { offsetInCU: 0x2D297, offset: 0x1804C7, size: 0x8, addend: 0x0, symName: __ZNSt3__110shared_ptrI15ScopeMoveActionE27__create_with_control_blockB8ue170006IS1_NS_20__shared_ptr_emplaceIS1_NS_9allocatorIS1_EEEEEES2_PT_PT0_, symObjAddr: 0xB138, symBinAddr: 0x100025D8C, symSize: 0xA4 }
  - { offsetInCU: 0x2D2EC, offset: 0x18051C, size: 0x8, addend: 0x0, symName: __ZNSt3__120__shared_ptr_emplaceI15ScopeMoveActionNS_9allocatorIS1_EEE10__get_elemB8ue170006Ev, symObjAddr: 0xB1DC, symBinAddr: 0x100025E30, symSize: 0x28 }
  - { offsetInCU: 0x2D311, offset: 0x180541, size: 0x8, addend: 0x0, symName: __ZNSt3__118__allocation_guardINS_9allocatorINS_20__shared_ptr_emplaceI15ScopeMoveActionNS1_IS3_EEEEEEED1B8ue170006Ev, symObjAddr: 0xB204, symBinAddr: 0x100025E58, symSize: 0x2C }
  - { offsetInCU: 0x2D339, offset: 0x180569, size: 0x8, addend: 0x0, symName: __ZNSt3__118__allocation_guardINS_9allocatorINS_20__shared_ptr_emplaceI15ScopeMoveActionNS1_IS3_EEEEEEEC2B8ue170006IS4_EET_m, symObjAddr: 0xB230, symBinAddr: 0x100025E84, symSize: 0x50 }
  - { offsetInCU: 0x2D386, offset: 0x1805B6, size: 0x8, addend: 0x0, symName: __ZNSt3__19allocatorINS_20__shared_ptr_emplaceI15ScopeMoveActionNS0_IS2_EEEEEC1B8ue170006IS2_EERKNS0_IT_EE, symObjAddr: 0xB280, symBinAddr: 0x100025ED4, symSize: 0x34 }
  - { offsetInCU: 0x2D3C2, offset: 0x1805F2, size: 0x8, addend: 0x0, symName: __ZNSt3__116allocator_traitsINS_9allocatorINS_20__shared_ptr_emplaceI15ScopeMoveActionNS1_IS3_EEEEEEE8allocateB8ue170006ERS6_m, symObjAddr: 0xB2B4, symBinAddr: 0x100025F08, symSize: 0x2C }
  - { offsetInCU: 0x2D3F5, offset: 0x180625, size: 0x8, addend: 0x0, symName: __ZNSt3__19allocatorINS_20__shared_ptr_emplaceI15ScopeMoveActionNS0_IS2_EEEEEC2B8ue170006IS2_EERKNS0_IT_EE, symObjAddr: 0xB2E0, symBinAddr: 0x100025F34, symSize: 0x30 }
  - { offsetInCU: 0x2D431, offset: 0x180661, size: 0x8, addend: 0x0, symName: __ZNSt3__116__non_trivial_ifILb1ENS_9allocatorINS_20__shared_ptr_emplaceI15ScopeMoveActionNS1_IS3_EEEEEEEC2B8ue170006Ev, symObjAddr: 0xB310, symBinAddr: 0x100025F64, symSize: 0x14 }
  - { offsetInCU: 0x2D459, offset: 0x180689, size: 0x8, addend: 0x0, symName: __ZNSt3__19allocatorINS_20__shared_ptr_emplaceI15ScopeMoveActionNS0_IS2_EEEEE8allocateB8ue170006Em, symObjAddr: 0xB324, symBinAddr: 0x100025F78, symSize: 0x5C }
  - { offsetInCU: 0x2D496, offset: 0x1806C6, size: 0x8, addend: 0x0, symName: __ZNSt3__116allocator_traitsINS_9allocatorINS_20__shared_ptr_emplaceI15ScopeMoveActionNS1_IS3_EEEEEEE8max_sizeB8ue170006IS6_vvEEmRKS6_, symObjAddr: 0xB380, symBinAddr: 0x100025FD4, symSize: 0x28 }
  - { offsetInCU: 0x2D4C1, offset: 0x1806F1, size: 0x8, addend: 0x0, symName: __ZNSt3__120__shared_ptr_emplaceI15ScopeMoveActionNS_9allocatorIS1_EEEC2B8ue170006IJR10ScreenSizeR11EndBehaviorR5ScopeR9DirectionEEES3_DpOT_, symObjAddr: 0xB3A8, symBinAddr: 0x100025FFC, symSize: 0xE0 }
  - { offsetInCU: 0x2D56F, offset: 0x18079F, size: 0x8, addend: 0x0, symName: __ZNSt3__120__shared_ptr_emplaceI15ScopeMoveActionNS_9allocatorIS1_EEE8_StorageC1B8ue170006EOS3_, symObjAddr: 0xB488, symBinAddr: 0x1000260DC, symSize: 0x34 }
  - { offsetInCU: 0x2D5A6, offset: 0x1807D6, size: 0x8, addend: 0x0, symName: __ZNSt3__120__shared_ptr_emplaceI15ScopeMoveActionNS_9allocatorIS1_EEE11__get_allocB8ue170006Ev, symObjAddr: 0xB4BC, symBinAddr: 0x100026110, symSize: 0x28 }
  - { offsetInCU: 0x2D5D0, offset: 0x180800, size: 0x8, addend: 0x0, symName: __ZNSt3__116allocator_traitsINS_9allocatorI15ScopeMoveActionEEE9constructB8ue170006IS2_JR10ScreenSizeR11EndBehaviorR5ScopeR9DirectionEvvEEvRS3_PT_DpOT0_, symObjAddr: 0xB4E4, symBinAddr: 0x100026138, symSize: 0x48 }
  - { offsetInCU: 0x2D660, offset: 0x180890, size: 0x8, addend: 0x0, symName: __ZNSt3__120__shared_ptr_emplaceI15ScopeMoveActionNS_9allocatorIS1_EEE8_StorageD1B8ue170006Ev, symObjAddr: 0xB52C, symBinAddr: 0x100026180, symSize: 0x2C }
  - { offsetInCU: 0x2D688, offset: 0x1808B8, size: 0x8, addend: 0x0, symName: __ZNSt3__120__shared_ptr_emplaceI15ScopeMoveActionNS_9allocatorIS1_EEED1Ev, symObjAddr: 0xB558, symBinAddr: 0x1000261AC, symSize: 0x2C }
  - { offsetInCU: 0x2D6B3, offset: 0x1808E3, size: 0x8, addend: 0x0, symName: __ZNSt3__120__shared_ptr_emplaceI15ScopeMoveActionNS_9allocatorIS1_EEED0Ev, symObjAddr: 0xB584, symBinAddr: 0x1000261D8, symSize: 0x30 }
  - { offsetInCU: 0x2D6DE, offset: 0x18090E, size: 0x8, addend: 0x0, symName: __ZNSt3__120__shared_ptr_emplaceI15ScopeMoveActionNS_9allocatorIS1_EEE16__on_zero_sharedEv, symObjAddr: 0xB5B4, symBinAddr: 0x100026208, symSize: 0x44 }
  - { offsetInCU: 0x2D724, offset: 0x180954, size: 0x8, addend: 0x0, symName: __ZNSt3__120__shared_ptr_emplaceI15ScopeMoveActionNS_9allocatorIS1_EEE21__on_zero_shared_weakEv, symObjAddr: 0xB5F8, symBinAddr: 0x10002624C, symSize: 0x5C }
  - { offsetInCU: 0x2D764, offset: 0x180994, size: 0x8, addend: 0x0, symName: __ZNSt3__120__shared_ptr_emplaceI15ScopeMoveActionNS_9allocatorIS1_EEE8_StorageC2B8ue170006EOS3_, symObjAddr: 0xB654, symBinAddr: 0x1000262A8, symSize: 0x30 }
  - { offsetInCU: 0x2D79B, offset: 0x1809CB, size: 0x8, addend: 0x0, symName: __ZNSt3__120__shared_ptr_emplaceI15ScopeMoveActionNS_9allocatorIS1_EEE8_Storage11__get_allocB8ue170006Ev, symObjAddr: 0xB684, symBinAddr: 0x1000262D8, symSize: 0x3C }
  - { offsetInCU: 0x2D7ED, offset: 0x180A1D, size: 0x8, addend: 0x0, symName: __ZNSt3__117__compressed_pairINS_9allocatorI15ScopeMoveActionEES2_E16__get_first_baseB8ue170006EPS4_, symObjAddr: 0xB6C0, symBinAddr: 0x100026314, symSize: 0x14 }
  - { offsetInCU: 0x2D810, offset: 0x180A40, size: 0x8, addend: 0x0, symName: __ZNSt3__120__shared_ptr_emplaceI15ScopeMoveActionNS_9allocatorIS1_EEE8_StorageD2B8ue170006Ev, symObjAddr: 0xB740, symBinAddr: 0x100026394, symSize: 0x2C }
  - { offsetInCU: 0x2D838, offset: 0x180A68, size: 0x8, addend: 0x0, symName: __ZNSt3__120__shared_ptr_emplaceI15ScopeMoveActionNS_9allocatorIS1_EEED2Ev, symObjAddr: 0xB76C, symBinAddr: 0x1000263C0, symSize: 0x48 }
  - { offsetInCU: 0x2D863, offset: 0x180A93, size: 0x8, addend: 0x0, symName: __ZNSt3__116allocator_traitsINS_9allocatorI15ScopeMoveActionEEE7destroyB8ue170006IS2_vvEEvRS3_PT_, symObjAddr: 0xB7B4, symBinAddr: 0x100026408, symSize: 0x28 }
  - { offsetInCU: 0x2D89D, offset: 0x180ACD, size: 0x8, addend: 0x0, symName: __ZNSt3__116allocator_traitsINS_9allocatorINS_20__shared_ptr_emplaceI15ScopeMoveActionNS1_IS3_EEEEEEE10deallocateB8ue170006ERS6_PS5_m, symObjAddr: 0xB82C, symBinAddr: 0x100026480, symSize: 0x34 }
  - { offsetInCU: 0x2D8E4, offset: 0x180B14, size: 0x8, addend: 0x0, symName: __ZNSt3__114pointer_traitsIPNS_20__shared_ptr_emplaceI15ScopeMoveActionNS_9allocatorIS2_EEEEE10pointer_toB8ue170006ERS5_, symObjAddr: 0xB860, symBinAddr: 0x1000264B4, symSize: 0x14 }
  - { offsetInCU: 0x2D907, offset: 0x180B37, size: 0x8, addend: 0x0, symName: __ZNSt3__19allocatorINS_20__shared_ptr_emplaceI15ScopeMoveActionNS0_IS2_EEEEE10deallocateB8ue170006EPS4_m, symObjAddr: 0xB874, symBinAddr: 0x1000264C8, symSize: 0x44 }
  - { offsetInCU: 0x2D948, offset: 0x180B78, size: 0x8, addend: 0x0, symName: __ZNSt3__110shared_ptrI15ScopeMoveActionEC1B8ue170006Ev, symObjAddr: 0xB8B8, symBinAddr: 0x10002650C, symSize: 0x2C }
  - { offsetInCU: 0x2D970, offset: 0x180BA0, size: 0x8, addend: 0x0, symName: __ZNSt3__110shared_ptrI15ScopeMoveActionE18__enable_weak_thisB8ue170006Ez, symObjAddr: 0xB8E4, symBinAddr: 0x100026538, symSize: 0x10 }
  - { offsetInCU: 0x2D996, offset: 0x180BC6, size: 0x8, addend: 0x0, symName: __ZNSt3__110shared_ptrI15ScopeMoveActionEC2B8ue170006Ev, symObjAddr: 0xB8F4, symBinAddr: 0x100026548, symSize: 0x1C }
  - { offsetInCU: 0x2D9BE, offset: 0x180BEE, size: 0x8, addend: 0x0, symName: __ZNSt3__120__shared_ptr_emplaceI15ScopeMoveActionNS_9allocatorIS1_EEE8_Storage10__get_elemB8ue170006Ev, symObjAddr: 0xB910, symBinAddr: 0x100026564, symSize: 0x3C }
  - { offsetInCU: 0x2DA10, offset: 0x180C40, size: 0x8, addend: 0x0, symName: __ZNSt3__117__compressed_pairINS_9allocatorI15ScopeMoveActionEES2_E17__get_second_baseB8ue170006EPS4_, symObjAddr: 0xB94C, symBinAddr: 0x1000265A0, symSize: 0x14 }
  - { offsetInCU: 0x2DA33, offset: 0x180C63, size: 0x8, addend: 0x0, symName: __ZNSt3__118__allocation_guardINS_9allocatorINS_20__shared_ptr_emplaceI15ScopeMoveActionNS1_IS3_EEEEEEED2B8ue170006Ev, symObjAddr: 0xB960, symBinAddr: 0x1000265B4, symSize: 0x2C }
  - { offsetInCU: 0x2DA5B, offset: 0x180C8B, size: 0x8, addend: 0x0, symName: __ZNSt3__118__allocation_guardINS_9allocatorINS_20__shared_ptr_emplaceI15ScopeMoveActionNS1_IS3_EEEEEEE9__destroyB8ue170006Ev, symObjAddr: 0xB98C, symBinAddr: 0x1000265E0, symSize: 0x4C }
  - { offsetInCU: 0x2DA80, offset: 0x180CB0, size: 0x8, addend: 0x0, symName: __ZNSt3__19allocatorI15ScopeMoveActionEC2B8ue170006Ev, symObjAddr: 0xB9D8, symBinAddr: 0x10002662C, symSize: 0x2C }
  - { offsetInCU: 0x2DAA8, offset: 0x180CD8, size: 0x8, addend: 0x0, symName: __ZNSt3__116__non_trivial_ifILb1ENS_9allocatorI15ScopeMoveActionEEEC2B8ue170006Ev, symObjAddr: 0xBA04, symBinAddr: 0x100026658, symSize: 0x14 }
  - { offsetInCU: 0x2DAD0, offset: 0x180D00, size: 0x8, addend: 0x0, symName: __ZNSt3__110shared_ptrI15ScopeMoveActionED2B8ue170006Ev, symObjAddr: 0xBA18, symBinAddr: 0x10002666C, symSize: 0x54 }
  - { offsetInCU: 0x2DAF8, offset: 0x180D28, size: 0x8, addend: 0x0, symName: __ZNSt3__110shared_ptrI6ActionEC2B8ue170006I15ScopeMoveActionvEEONS0_IT_EE, symObjAddr: 0xBA6C, symBinAddr: 0x1000266C0, symSize: 0x40 }
  - { offsetInCU: 0x2DB39, offset: 0x180D69, size: 0x8, addend: 0x0, symName: __ZNSt3__120__shared_ptr_emplaceI19DelimiterMoveActionNS_9allocatorIS1_EEEC1B8ue170006IJR10ScreenSizeRNS_12basic_stringIcNS_11char_traitsIcEENS2_IcEEEER9DirectionR11EndBehaviorbEEES3_DpOT_, symObjAddr: 0xBB64, symBinAddr: 0x1000267B8, symSize: 0x54 }
  - { offsetInCU: 0x2DBDA, offset: 0x180E0A, size: 0x8, addend: 0x0, symName: __ZNSt3__120__shared_ptr_emplaceI19DelimiterMoveActionNS_9allocatorIS1_EEEC2B8ue170006IJR10ScreenSizeRNS_12basic_stringIcNS_11char_traitsIcEENS2_IcEEEER9DirectionR11EndBehaviorbEEES3_DpOT_, symObjAddr: 0xBBB8, symBinAddr: 0x10002680C, symSize: 0xE8 }
  - { offsetInCU: 0x2DC9C, offset: 0x180ECC, size: 0x8, addend: 0x0, symName: __ZNSt3__116allocator_traitsINS_9allocatorI19DelimiterMoveActionEEE9constructB8ue170006IS2_JR10ScreenSizeRNS_12basic_stringIcNS_11char_traitsIcEENS1_IcEEEER9DirectionR11EndBehaviorbEvvEEvRS3_PT_DpOT0_, symObjAddr: 0xBCA0, symBinAddr: 0x1000268F4, symSize: 0x50 }
  - { offsetInCU: 0x2DD40, offset: 0x180F70, size: 0x8, addend: 0x0, symName: __ZNSt3__19allocatorI22DelimiterCaseSetActionEC1B8ue170006Ev, symObjAddr: 0xBE60, symBinAddr: 0x100026AB4, symSize: 0x2C }
  - { offsetInCU: 0x2DD95, offset: 0x180FC5, size: 0x8, addend: 0x0, symName: __ZNSt3__118__allocation_guardINS_9allocatorINS_20__shared_ptr_emplaceI22DelimiterCaseSetActionNS1_IS3_EEEEEEEC1B8ue170006IS4_EET_m, symObjAddr: 0xBE8C, symBinAddr: 0x100026AE0, symSize: 0x34 }
  - { offsetInCU: 0x2DDE2, offset: 0x181012, size: 0x8, addend: 0x0, symName: __ZNKSt3__118__allocation_guardINS_9allocatorINS_20__shared_ptr_emplaceI22DelimiterCaseSetActionNS1_IS3_EEEEEEE5__getB8ue170006Ev, symObjAddr: 0xBEC0, symBinAddr: 0x100026B14, symSize: 0x18 }
  - { offsetInCU: 0x2DE11, offset: 0x181041, size: 0x8, addend: 0x0, symName: __ZNSt3__120__shared_ptr_emplaceI22DelimiterCaseSetActionNS_9allocatorIS1_EEEC1B8ue170006IJR10ScreenSizeNS_12basic_stringIcNS_11char_traitsIcEENS2_IcEEEE9DirectionbR4CaseEEES3_DpOT_, symObjAddr: 0xBED8, symBinAddr: 0x100026B2C, symSize: 0x54 }
  - { offsetInCU: 0x2DEB2, offset: 0x1810E2, size: 0x8, addend: 0x0, symName: __ZNSt3__118__allocation_guardINS_9allocatorINS_20__shared_ptr_emplaceI22DelimiterCaseSetActionNS1_IS3_EEEEEEE13__release_ptrB8ue170006Ev, symObjAddr: 0xBF2C, symBinAddr: 0x100026B80, symSize: 0x24 }
  - { offsetInCU: 0x2DEE5, offset: 0x181115, size: 0x8, addend: 0x0, symName: __ZNSt3__110shared_ptrI22DelimiterCaseSetActionE27__create_with_control_blockB8ue170006IS1_NS_20__shared_ptr_emplaceIS1_NS_9allocatorIS1_EEEEEES2_PT_PT0_, symObjAddr: 0xBF50, symBinAddr: 0x100026BA4, symSize: 0xA4 }
  - { offsetInCU: 0x2DF3A, offset: 0x18116A, size: 0x8, addend: 0x0, symName: __ZNSt3__120__shared_ptr_emplaceI22DelimiterCaseSetActionNS_9allocatorIS1_EEE10__get_elemB8ue170006Ev, symObjAddr: 0xBFF4, symBinAddr: 0x100026C48, symSize: 0x28 }
  - { offsetInCU: 0x2DF5F, offset: 0x18118F, size: 0x8, addend: 0x0, symName: __ZNSt3__118__allocation_guardINS_9allocatorINS_20__shared_ptr_emplaceI22DelimiterCaseSetActionNS1_IS3_EEEEEEED1B8ue170006Ev, symObjAddr: 0xC01C, symBinAddr: 0x100026C70, symSize: 0x2C }
  - { offsetInCU: 0x2DF87, offset: 0x1811B7, size: 0x8, addend: 0x0, symName: __ZNSt3__118__allocation_guardINS_9allocatorINS_20__shared_ptr_emplaceI22DelimiterCaseSetActionNS1_IS3_EEEEEEEC2B8ue170006IS4_EET_m, symObjAddr: 0xC048, symBinAddr: 0x100026C9C, symSize: 0x50 }
  - { offsetInCU: 0x2DFD4, offset: 0x181204, size: 0x8, addend: 0x0, symName: __ZNSt3__19allocatorINS_20__shared_ptr_emplaceI22DelimiterCaseSetActionNS0_IS2_EEEEEC1B8ue170006IS2_EERKNS0_IT_EE, symObjAddr: 0xC098, symBinAddr: 0x100026CEC, symSize: 0x34 }
  - { offsetInCU: 0x2E010, offset: 0x181240, size: 0x8, addend: 0x0, symName: __ZNSt3__116allocator_traitsINS_9allocatorINS_20__shared_ptr_emplaceI22DelimiterCaseSetActionNS1_IS3_EEEEEEE8allocateB8ue170006ERS6_m, symObjAddr: 0xC0CC, symBinAddr: 0x100026D20, symSize: 0x2C }
  - { offsetInCU: 0x2E043, offset: 0x181273, size: 0x8, addend: 0x0, symName: __ZNSt3__19allocatorINS_20__shared_ptr_emplaceI22DelimiterCaseSetActionNS0_IS2_EEEEEC2B8ue170006IS2_EERKNS0_IT_EE, symObjAddr: 0xC0F8, symBinAddr: 0x100026D4C, symSize: 0x30 }
  - { offsetInCU: 0x2E07F, offset: 0x1812AF, size: 0x8, addend: 0x0, symName: __ZNSt3__116__non_trivial_ifILb1ENS_9allocatorINS_20__shared_ptr_emplaceI22DelimiterCaseSetActionNS1_IS3_EEEEEEEC2B8ue170006Ev, symObjAddr: 0xC128, symBinAddr: 0x100026D7C, symSize: 0x14 }
  - { offsetInCU: 0x2E0A7, offset: 0x1812D7, size: 0x8, addend: 0x0, symName: __ZNSt3__19allocatorINS_20__shared_ptr_emplaceI22DelimiterCaseSetActionNS0_IS2_EEEEE8allocateB8ue170006Em, symObjAddr: 0xC13C, symBinAddr: 0x100026D90, symSize: 0x5C }
  - { offsetInCU: 0x2E0E4, offset: 0x181314, size: 0x8, addend: 0x0, symName: __ZNSt3__116allocator_traitsINS_9allocatorINS_20__shared_ptr_emplaceI22DelimiterCaseSetActionNS1_IS3_EEEEEEE8max_sizeB8ue170006IS6_vvEEmRKS6_, symObjAddr: 0xC198, symBinAddr: 0x100026DEC, symSize: 0x28 }
  - { offsetInCU: 0x2E10F, offset: 0x18133F, size: 0x8, addend: 0x0, symName: __ZNSt3__120__shared_ptr_emplaceI22DelimiterCaseSetActionNS_9allocatorIS1_EEEC2B8ue170006IJR10ScreenSizeNS_12basic_stringIcNS_11char_traitsIcEENS2_IcEEEE9DirectionbR4CaseEEES3_DpOT_, symObjAddr: 0xC1C0, symBinAddr: 0x100026E14, symSize: 0xE8 }
  - { offsetInCU: 0x2E1D1, offset: 0x181401, size: 0x8, addend: 0x0, symName: __ZNSt3__120__shared_ptr_emplaceI22DelimiterCaseSetActionNS_9allocatorIS1_EEE8_StorageC1B8ue170006EOS3_, symObjAddr: 0xC2A8, symBinAddr: 0x100026EFC, symSize: 0x34 }
  - { offsetInCU: 0x2E208, offset: 0x181438, size: 0x8, addend: 0x0, symName: __ZNSt3__120__shared_ptr_emplaceI22DelimiterCaseSetActionNS_9allocatorIS1_EEE11__get_allocB8ue170006Ev, symObjAddr: 0xC2DC, symBinAddr: 0x100026F30, symSize: 0x28 }
  - { offsetInCU: 0x2E232, offset: 0x181462, size: 0x8, addend: 0x0, symName: __ZNSt3__116allocator_traitsINS_9allocatorI22DelimiterCaseSetActionEEE9constructB8ue170006IS2_JR10ScreenSizeNS_12basic_stringIcNS_11char_traitsIcEENS1_IcEEEE9DirectionbR4CaseEvvEEvRS3_PT_DpOT0_, symObjAddr: 0xC304, symBinAddr: 0x100026F58, symSize: 0x50 }
  - { offsetInCU: 0x2E2D6, offset: 0x181506, size: 0x8, addend: 0x0, symName: __ZNSt3__120__shared_ptr_emplaceI22DelimiterCaseSetActionNS_9allocatorIS1_EEE8_StorageD1B8ue170006Ev, symObjAddr: 0xC354, symBinAddr: 0x100026FA8, symSize: 0x2C }
  - { offsetInCU: 0x2E2FE, offset: 0x18152E, size: 0x8, addend: 0x0, symName: __ZNSt3__120__shared_ptr_emplaceI22DelimiterCaseSetActionNS_9allocatorIS1_EEED1Ev, symObjAddr: 0xC380, symBinAddr: 0x100026FD4, symSize: 0x2C }
  - { offsetInCU: 0x2E329, offset: 0x181559, size: 0x8, addend: 0x0, symName: __ZNSt3__120__shared_ptr_emplaceI22DelimiterCaseSetActionNS_9allocatorIS1_EEED0Ev, symObjAddr: 0xC3AC, symBinAddr: 0x100027000, symSize: 0x30 }
  - { offsetInCU: 0x2E354, offset: 0x181584, size: 0x8, addend: 0x0, symName: __ZNSt3__120__shared_ptr_emplaceI22DelimiterCaseSetActionNS_9allocatorIS1_EEE16__on_zero_sharedEv, symObjAddr: 0xC3DC, symBinAddr: 0x100027030, symSize: 0x44 }
  - { offsetInCU: 0x2E39A, offset: 0x1815CA, size: 0x8, addend: 0x0, symName: __ZNSt3__120__shared_ptr_emplaceI22DelimiterCaseSetActionNS_9allocatorIS1_EEE21__on_zero_shared_weakEv, symObjAddr: 0xC420, symBinAddr: 0x100027074, symSize: 0x5C }
  - { offsetInCU: 0x2E3DA, offset: 0x18160A, size: 0x8, addend: 0x0, symName: __ZNSt3__120__shared_ptr_emplaceI22DelimiterCaseSetActionNS_9allocatorIS1_EEE8_StorageC2B8ue170006EOS3_, symObjAddr: 0xC47C, symBinAddr: 0x1000270D0, symSize: 0x30 }
  - { offsetInCU: 0x2E411, offset: 0x181641, size: 0x8, addend: 0x0, symName: __ZNSt3__120__shared_ptr_emplaceI22DelimiterCaseSetActionNS_9allocatorIS1_EEE8_Storage11__get_allocB8ue170006Ev, symObjAddr: 0xC4AC, symBinAddr: 0x100027100, symSize: 0x3C }
  - { offsetInCU: 0x2E463, offset: 0x181693, size: 0x8, addend: 0x0, symName: __ZNSt3__117__compressed_pairINS_9allocatorI22DelimiterCaseSetActionEES2_E16__get_first_baseB8ue170006EPS4_, symObjAddr: 0xC4E8, symBinAddr: 0x10002713C, symSize: 0x14 }
  - { offsetInCU: 0x2E486, offset: 0x1816B6, size: 0x8, addend: 0x0, symName: __ZNSt3__120__shared_ptr_emplaceI22DelimiterCaseSetActionNS_9allocatorIS1_EEE8_StorageD2B8ue170006Ev, symObjAddr: 0xC5B4, symBinAddr: 0x100027208, symSize: 0x2C }
  - { offsetInCU: 0x2E4AE, offset: 0x1816DE, size: 0x8, addend: 0x0, symName: __ZNSt3__120__shared_ptr_emplaceI22DelimiterCaseSetActionNS_9allocatorIS1_EEED2Ev, symObjAddr: 0xC5E0, symBinAddr: 0x100027234, symSize: 0x48 }
  - { offsetInCU: 0x2E4D9, offset: 0x181709, size: 0x8, addend: 0x0, symName: __ZNSt3__116allocator_traitsINS_9allocatorI22DelimiterCaseSetActionEEE7destroyB8ue170006IS2_vvEEvRS3_PT_, symObjAddr: 0xC628, symBinAddr: 0x10002727C, symSize: 0x28 }
  - { offsetInCU: 0x2E513, offset: 0x181743, size: 0x8, addend: 0x0, symName: __ZNSt3__116allocator_traitsINS_9allocatorINS_20__shared_ptr_emplaceI22DelimiterCaseSetActionNS1_IS3_EEEEEEE10deallocateB8ue170006ERS6_PS5_m, symObjAddr: 0xC6A0, symBinAddr: 0x1000272F4, symSize: 0x34 }
  - { offsetInCU: 0x2E55A, offset: 0x18178A, size: 0x8, addend: 0x0, symName: __ZNSt3__114pointer_traitsIPNS_20__shared_ptr_emplaceI22DelimiterCaseSetActionNS_9allocatorIS2_EEEEE10pointer_toB8ue170006ERS5_, symObjAddr: 0xC6D4, symBinAddr: 0x100027328, symSize: 0x14 }
  - { offsetInCU: 0x2E57D, offset: 0x1817AD, size: 0x8, addend: 0x0, symName: __ZNSt3__19allocatorINS_20__shared_ptr_emplaceI22DelimiterCaseSetActionNS0_IS2_EEEEE10deallocateB8ue170006EPS4_m, symObjAddr: 0xC6E8, symBinAddr: 0x10002733C, symSize: 0x44 }
  - { offsetInCU: 0x2E5BE, offset: 0x1817EE, size: 0x8, addend: 0x0, symName: __ZNSt3__110shared_ptrI22DelimiterCaseSetActionEC1B8ue170006Ev, symObjAddr: 0xC72C, symBinAddr: 0x100027380, symSize: 0x2C }
  - { offsetInCU: 0x2E5E6, offset: 0x181816, size: 0x8, addend: 0x0, symName: __ZNSt3__110shared_ptrI22DelimiterCaseSetActionE18__enable_weak_thisB8ue170006Ez, symObjAddr: 0xC758, symBinAddr: 0x1000273AC, symSize: 0x10 }
  - { offsetInCU: 0x2E60C, offset: 0x18183C, size: 0x8, addend: 0x0, symName: __ZNSt3__110shared_ptrI22DelimiterCaseSetActionEC2B8ue170006Ev, symObjAddr: 0xC768, symBinAddr: 0x1000273BC, symSize: 0x1C }
  - { offsetInCU: 0x2E634, offset: 0x181864, size: 0x8, addend: 0x0, symName: __ZNSt3__120__shared_ptr_emplaceI22DelimiterCaseSetActionNS_9allocatorIS1_EEE8_Storage10__get_elemB8ue170006Ev, symObjAddr: 0xC784, symBinAddr: 0x1000273D8, symSize: 0x3C }
  - { offsetInCU: 0x2E686, offset: 0x1818B6, size: 0x8, addend: 0x0, symName: __ZNSt3__117__compressed_pairINS_9allocatorI22DelimiterCaseSetActionEES2_E17__get_second_baseB8ue170006EPS4_, symObjAddr: 0xC7C0, symBinAddr: 0x100027414, symSize: 0x14 }
  - { offsetInCU: 0x2E6A9, offset: 0x1818D9, size: 0x8, addend: 0x0, symName: __ZNSt3__118__allocation_guardINS_9allocatorINS_20__shared_ptr_emplaceI22DelimiterCaseSetActionNS1_IS3_EEEEEEED2B8ue170006Ev, symObjAddr: 0xC7D4, symBinAddr: 0x100027428, symSize: 0x2C }
  - { offsetInCU: 0x2E6D1, offset: 0x181901, size: 0x8, addend: 0x0, symName: __ZNSt3__118__allocation_guardINS_9allocatorINS_20__shared_ptr_emplaceI22DelimiterCaseSetActionNS1_IS3_EEEEEEE9__destroyB8ue170006Ev, symObjAddr: 0xC800, symBinAddr: 0x100027454, symSize: 0x4C }
  - { offsetInCU: 0x2E6F6, offset: 0x181926, size: 0x8, addend: 0x0, symName: __ZNSt3__19allocatorI22DelimiterCaseSetActionEC2B8ue170006Ev, symObjAddr: 0xC84C, symBinAddr: 0x1000274A0, symSize: 0x2C }
  - { offsetInCU: 0x2E71E, offset: 0x18194E, size: 0x8, addend: 0x0, symName: __ZNSt3__116__non_trivial_ifILb1ENS_9allocatorI22DelimiterCaseSetActionEEEC2B8ue170006Ev, symObjAddr: 0xC878, symBinAddr: 0x1000274CC, symSize: 0x14 }
  - { offsetInCU: 0x2E746, offset: 0x181976, size: 0x8, addend: 0x0, symName: __ZNSt3__110shared_ptrI22DelimiterCaseSetActionED2B8ue170006Ev, symObjAddr: 0xC88C, symBinAddr: 0x1000274E0, symSize: 0x54 }
  - { offsetInCU: 0x2E76E, offset: 0x18199E, size: 0x8, addend: 0x0, symName: __ZNSt3__110shared_ptrI6ActionEC2B8ue170006I22DelimiterCaseSetActionvEEONS0_IT_EE, symObjAddr: 0xC8E0, symBinAddr: 0x100027534, symSize: 0x40 }
  - { offsetInCU: 0x2E7AF, offset: 0x1819DF, size: 0x8, addend: 0x0, symName: __ZNSt3__19allocatorI18ScopeCaseSetActionEC1B8ue170006Ev, symObjAddr: 0xC9C8, symBinAddr: 0x10002761C, symSize: 0x2C }
  - { offsetInCU: 0x2E804, offset: 0x181A34, size: 0x8, addend: 0x0, symName: __ZNSt3__118__allocation_guardINS_9allocatorINS_20__shared_ptr_emplaceI18ScopeCaseSetActionNS1_IS3_EEEEEEEC1B8ue170006IS4_EET_m, symObjAddr: 0xC9F4, symBinAddr: 0x100027648, symSize: 0x34 }
  - { offsetInCU: 0x2E851, offset: 0x181A81, size: 0x8, addend: 0x0, symName: __ZNKSt3__118__allocation_guardINS_9allocatorINS_20__shared_ptr_emplaceI18ScopeCaseSetActionNS1_IS3_EEEEEEE5__getB8ue170006Ev, symObjAddr: 0xCA28, symBinAddr: 0x10002767C, symSize: 0x18 }
  - { offsetInCU: 0x2E876, offset: 0x181AA6, size: 0x8, addend: 0x0, symName: __ZNSt3__120__shared_ptr_emplaceI18ScopeCaseSetActionNS_9allocatorIS1_EEEC1B8ue170006IJR10ScreenSizeR5ScopeR4CaseEEES3_DpOT_, symObjAddr: 0xCA40, symBinAddr: 0x100027694, symSize: 0x44 }
  - { offsetInCU: 0x2E8EF, offset: 0x181B1F, size: 0x8, addend: 0x0, symName: __ZNSt3__118__allocation_guardINS_9allocatorINS_20__shared_ptr_emplaceI18ScopeCaseSetActionNS1_IS3_EEEEEEE13__release_ptrB8ue170006Ev, symObjAddr: 0xCA84, symBinAddr: 0x1000276D8, symSize: 0x24 }
  - { offsetInCU: 0x2E922, offset: 0x181B52, size: 0x8, addend: 0x0, symName: __ZNSt3__110shared_ptrI18ScopeCaseSetActionE27__create_with_control_blockB8ue170006IS1_NS_20__shared_ptr_emplaceIS1_NS_9allocatorIS1_EEEEEES2_PT_PT0_, symObjAddr: 0xCAA8, symBinAddr: 0x1000276FC, symSize: 0xA4 }
  - { offsetInCU: 0x2E977, offset: 0x181BA7, size: 0x8, addend: 0x0, symName: __ZNSt3__120__shared_ptr_emplaceI18ScopeCaseSetActionNS_9allocatorIS1_EEE10__get_elemB8ue170006Ev, symObjAddr: 0xCB4C, symBinAddr: 0x1000277A0, symSize: 0x28 }
  - { offsetInCU: 0x2E99C, offset: 0x181BCC, size: 0x8, addend: 0x0, symName: __ZNSt3__118__allocation_guardINS_9allocatorINS_20__shared_ptr_emplaceI18ScopeCaseSetActionNS1_IS3_EEEEEEED1B8ue170006Ev, symObjAddr: 0xCB74, symBinAddr: 0x1000277C8, symSize: 0x2C }
  - { offsetInCU: 0x2E9C4, offset: 0x181BF4, size: 0x8, addend: 0x0, symName: __ZNSt3__118__allocation_guardINS_9allocatorINS_20__shared_ptr_emplaceI18ScopeCaseSetActionNS1_IS3_EEEEEEEC2B8ue170006IS4_EET_m, symObjAddr: 0xCBA0, symBinAddr: 0x1000277F4, symSize: 0x50 }
  - { offsetInCU: 0x2EA11, offset: 0x181C41, size: 0x8, addend: 0x0, symName: __ZNSt3__19allocatorINS_20__shared_ptr_emplaceI18ScopeCaseSetActionNS0_IS2_EEEEEC1B8ue170006IS2_EERKNS0_IT_EE, symObjAddr: 0xCBF0, symBinAddr: 0x100027844, symSize: 0x34 }
  - { offsetInCU: 0x2EA4D, offset: 0x181C7D, size: 0x8, addend: 0x0, symName: __ZNSt3__116allocator_traitsINS_9allocatorINS_20__shared_ptr_emplaceI18ScopeCaseSetActionNS1_IS3_EEEEEEE8allocateB8ue170006ERS6_m, symObjAddr: 0xCC24, symBinAddr: 0x100027878, symSize: 0x2C }
  - { offsetInCU: 0x2EA80, offset: 0x181CB0, size: 0x8, addend: 0x0, symName: __ZNSt3__19allocatorINS_20__shared_ptr_emplaceI18ScopeCaseSetActionNS0_IS2_EEEEEC2B8ue170006IS2_EERKNS0_IT_EE, symObjAddr: 0xCC50, symBinAddr: 0x1000278A4, symSize: 0x30 }
  - { offsetInCU: 0x2EABC, offset: 0x181CEC, size: 0x8, addend: 0x0, symName: __ZNSt3__116__non_trivial_ifILb1ENS_9allocatorINS_20__shared_ptr_emplaceI18ScopeCaseSetActionNS1_IS3_EEEEEEEC2B8ue170006Ev, symObjAddr: 0xCC80, symBinAddr: 0x1000278D4, symSize: 0x14 }
  - { offsetInCU: 0x2EAE4, offset: 0x181D14, size: 0x8, addend: 0x0, symName: __ZNSt3__19allocatorINS_20__shared_ptr_emplaceI18ScopeCaseSetActionNS0_IS2_EEEEE8allocateB8ue170006Em, symObjAddr: 0xCC94, symBinAddr: 0x1000278E8, symSize: 0x5C }
  - { offsetInCU: 0x2EB21, offset: 0x181D51, size: 0x8, addend: 0x0, symName: __ZNSt3__116allocator_traitsINS_9allocatorINS_20__shared_ptr_emplaceI18ScopeCaseSetActionNS1_IS3_EEEEEEE8max_sizeB8ue170006IS6_vvEEmRKS6_, symObjAddr: 0xCCF0, symBinAddr: 0x100027944, symSize: 0x28 }
  - { offsetInCU: 0x2EB4C, offset: 0x181D7C, size: 0x8, addend: 0x0, symName: __ZNSt3__120__shared_ptr_emplaceI18ScopeCaseSetActionNS_9allocatorIS1_EEEC2B8ue170006IJR10ScreenSizeR5ScopeR4CaseEEES3_DpOT_, symObjAddr: 0xCD18, symBinAddr: 0x10002796C, symSize: 0xD8 }
  - { offsetInCU: 0x2EBE6, offset: 0x181E16, size: 0x8, addend: 0x0, symName: __ZNSt3__120__shared_ptr_emplaceI18ScopeCaseSetActionNS_9allocatorIS1_EEE8_StorageC1B8ue170006EOS3_, symObjAddr: 0xCDF0, symBinAddr: 0x100027A44, symSize: 0x34 }
  - { offsetInCU: 0x2EC1D, offset: 0x181E4D, size: 0x8, addend: 0x0, symName: __ZNSt3__120__shared_ptr_emplaceI18ScopeCaseSetActionNS_9allocatorIS1_EEE11__get_allocB8ue170006Ev, symObjAddr: 0xCE24, symBinAddr: 0x100027A78, symSize: 0x28 }
  - { offsetInCU: 0x2EC47, offset: 0x181E77, size: 0x8, addend: 0x0, symName: __ZNSt3__116allocator_traitsINS_9allocatorI18ScopeCaseSetActionEEE9constructB8ue170006IS2_JR10ScreenSizeR5ScopeR4CaseEvvEEvRS3_PT_DpOT0_, symObjAddr: 0xCE4C, symBinAddr: 0x100027AA0, symSize: 0x40 }
  - { offsetInCU: 0x2ECC3, offset: 0x181EF3, size: 0x8, addend: 0x0, symName: __ZNSt3__120__shared_ptr_emplaceI18ScopeCaseSetActionNS_9allocatorIS1_EEE8_StorageD1B8ue170006Ev, symObjAddr: 0xCE8C, symBinAddr: 0x100027AE0, symSize: 0x2C }
  - { offsetInCU: 0x2ECEB, offset: 0x181F1B, size: 0x8, addend: 0x0, symName: __ZNSt3__120__shared_ptr_emplaceI18ScopeCaseSetActionNS_9allocatorIS1_EEED1Ev, symObjAddr: 0xCEB8, symBinAddr: 0x100027B0C, symSize: 0x2C }
  - { offsetInCU: 0x2ED16, offset: 0x181F46, size: 0x8, addend: 0x0, symName: __ZNSt3__120__shared_ptr_emplaceI18ScopeCaseSetActionNS_9allocatorIS1_EEED0Ev, symObjAddr: 0xCEE4, symBinAddr: 0x100027B38, symSize: 0x30 }
  - { offsetInCU: 0x2ED41, offset: 0x181F71, size: 0x8, addend: 0x0, symName: __ZNSt3__120__shared_ptr_emplaceI18ScopeCaseSetActionNS_9allocatorIS1_EEE16__on_zero_sharedEv, symObjAddr: 0xCF14, symBinAddr: 0x100027B68, symSize: 0x44 }
  - { offsetInCU: 0x2ED87, offset: 0x181FB7, size: 0x8, addend: 0x0, symName: __ZNSt3__120__shared_ptr_emplaceI18ScopeCaseSetActionNS_9allocatorIS1_EEE21__on_zero_shared_weakEv, symObjAddr: 0xCF58, symBinAddr: 0x100027BAC, symSize: 0x5C }
  - { offsetInCU: 0x2EDC7, offset: 0x181FF7, size: 0x8, addend: 0x0, symName: __ZNSt3__120__shared_ptr_emplaceI18ScopeCaseSetActionNS_9allocatorIS1_EEE8_StorageC2B8ue170006EOS3_, symObjAddr: 0xCFB4, symBinAddr: 0x100027C08, symSize: 0x30 }
  - { offsetInCU: 0x2EDFE, offset: 0x18202E, size: 0x8, addend: 0x0, symName: __ZNSt3__120__shared_ptr_emplaceI18ScopeCaseSetActionNS_9allocatorIS1_EEE8_Storage11__get_allocB8ue170006Ev, symObjAddr: 0xCFE4, symBinAddr: 0x100027C38, symSize: 0x3C }
  - { offsetInCU: 0x2EE50, offset: 0x182080, size: 0x8, addend: 0x0, symName: __ZNSt3__117__compressed_pairINS_9allocatorI18ScopeCaseSetActionEES2_E16__get_first_baseB8ue170006EPS4_, symObjAddr: 0xD020, symBinAddr: 0x100027C74, symSize: 0x14 }
  - { offsetInCU: 0x2EE73, offset: 0x1820A3, size: 0x8, addend: 0x0, symName: __ZNSt3__120__shared_ptr_emplaceI18ScopeCaseSetActionNS_9allocatorIS1_EEE8_StorageD2B8ue170006Ev, symObjAddr: 0xD094, symBinAddr: 0x100027CE8, symSize: 0x2C }
  - { offsetInCU: 0x2EE9B, offset: 0x1820CB, size: 0x8, addend: 0x0, symName: __ZNSt3__120__shared_ptr_emplaceI18ScopeCaseSetActionNS_9allocatorIS1_EEED2Ev, symObjAddr: 0xD0C0, symBinAddr: 0x100027D14, symSize: 0x48 }
  - { offsetInCU: 0x2EEC6, offset: 0x1820F6, size: 0x8, addend: 0x0, symName: __ZNSt3__116allocator_traitsINS_9allocatorI18ScopeCaseSetActionEEE7destroyB8ue170006IS2_vvEEvRS3_PT_, symObjAddr: 0xD108, symBinAddr: 0x100027D5C, symSize: 0x28 }
  - { offsetInCU: 0x2EF00, offset: 0x182130, size: 0x8, addend: 0x0, symName: __ZNSt3__116allocator_traitsINS_9allocatorINS_20__shared_ptr_emplaceI18ScopeCaseSetActionNS1_IS3_EEEEEEE10deallocateB8ue170006ERS6_PS5_m, symObjAddr: 0xD180, symBinAddr: 0x100027DD4, symSize: 0x34 }
  - { offsetInCU: 0x2EF47, offset: 0x182177, size: 0x8, addend: 0x0, symName: __ZNSt3__114pointer_traitsIPNS_20__shared_ptr_emplaceI18ScopeCaseSetActionNS_9allocatorIS2_EEEEE10pointer_toB8ue170006ERS5_, symObjAddr: 0xD1B4, symBinAddr: 0x100027E08, symSize: 0x14 }
  - { offsetInCU: 0x2EF6A, offset: 0x18219A, size: 0x8, addend: 0x0, symName: __ZNSt3__19allocatorINS_20__shared_ptr_emplaceI18ScopeCaseSetActionNS0_IS2_EEEEE10deallocateB8ue170006EPS4_m, symObjAddr: 0xD1C8, symBinAddr: 0x100027E1C, symSize: 0x44 }
  - { offsetInCU: 0x2EFAB, offset: 0x1821DB, size: 0x8, addend: 0x0, symName: __ZNSt3__110shared_ptrI18ScopeCaseSetActionEC1B8ue170006Ev, symObjAddr: 0xD20C, symBinAddr: 0x100027E60, symSize: 0x2C }
  - { offsetInCU: 0x2EFD3, offset: 0x182203, size: 0x8, addend: 0x0, symName: __ZNSt3__110shared_ptrI18ScopeCaseSetActionE18__enable_weak_thisB8ue170006Ez, symObjAddr: 0xD238, symBinAddr: 0x100027E8C, symSize: 0x10 }
  - { offsetInCU: 0x2EFF9, offset: 0x182229, size: 0x8, addend: 0x0, symName: __ZNSt3__110shared_ptrI18ScopeCaseSetActionEC2B8ue170006Ev, symObjAddr: 0xD248, symBinAddr: 0x100027E9C, symSize: 0x1C }
  - { offsetInCU: 0x2F021, offset: 0x182251, size: 0x8, addend: 0x0, symName: __ZNSt3__120__shared_ptr_emplaceI18ScopeCaseSetActionNS_9allocatorIS1_EEE8_Storage10__get_elemB8ue170006Ev, symObjAddr: 0xD264, symBinAddr: 0x100027EB8, symSize: 0x3C }
  - { offsetInCU: 0x2F073, offset: 0x1822A3, size: 0x8, addend: 0x0, symName: __ZNSt3__117__compressed_pairINS_9allocatorI18ScopeCaseSetActionEES2_E17__get_second_baseB8ue170006EPS4_, symObjAddr: 0xD2A0, symBinAddr: 0x100027EF4, symSize: 0x14 }
  - { offsetInCU: 0x2F096, offset: 0x1822C6, size: 0x8, addend: 0x0, symName: __ZNSt3__118__allocation_guardINS_9allocatorINS_20__shared_ptr_emplaceI18ScopeCaseSetActionNS1_IS3_EEEEEEED2B8ue170006Ev, symObjAddr: 0xD2B4, symBinAddr: 0x100027F08, symSize: 0x2C }
  - { offsetInCU: 0x2F0BE, offset: 0x1822EE, size: 0x8, addend: 0x0, symName: __ZNSt3__118__allocation_guardINS_9allocatorINS_20__shared_ptr_emplaceI18ScopeCaseSetActionNS1_IS3_EEEEEEE9__destroyB8ue170006Ev, symObjAddr: 0xD2E0, symBinAddr: 0x100027F34, symSize: 0x4C }
  - { offsetInCU: 0x2F0E3, offset: 0x182313, size: 0x8, addend: 0x0, symName: __ZNSt3__19allocatorI18ScopeCaseSetActionEC2B8ue170006Ev, symObjAddr: 0xD32C, symBinAddr: 0x100027F80, symSize: 0x2C }
  - { offsetInCU: 0x2F10B, offset: 0x18233B, size: 0x8, addend: 0x0, symName: __ZNSt3__116__non_trivial_ifILb1ENS_9allocatorI18ScopeCaseSetActionEEEC2B8ue170006Ev, symObjAddr: 0xD358, symBinAddr: 0x100027FAC, symSize: 0x14 }
  - { offsetInCU: 0x2F133, offset: 0x182363, size: 0x8, addend: 0x0, symName: __ZNSt3__110shared_ptrI18ScopeCaseSetActionED2B8ue170006Ev, symObjAddr: 0xD36C, symBinAddr: 0x100027FC0, symSize: 0x54 }
  - { offsetInCU: 0x2F15B, offset: 0x18238B, size: 0x8, addend: 0x0, symName: __ZNSt3__110shared_ptrI6ActionEC2B8ue170006I18ScopeCaseSetActionvEEONS0_IT_EE, symObjAddr: 0xD3C0, symBinAddr: 0x100028014, symSize: 0x40 }
  - { offsetInCU: 0x2F19C, offset: 0x1823CC, size: 0x8, addend: 0x0, symName: __ZNSt3__120__shared_ptr_emplaceI22DelimiterCaseSetActionNS_9allocatorIS1_EEEC1B8ue170006IJR10ScreenSizeRNS_12basic_stringIcNS_11char_traitsIcEENS2_IcEEEE9DirectionbR4CaseEEES3_DpOT_, symObjAddr: 0xD4B8, symBinAddr: 0x10002810C, symSize: 0x54 }
  - { offsetInCU: 0x2F23D, offset: 0x18246D, size: 0x8, addend: 0x0, symName: __ZNSt3__120__shared_ptr_emplaceI22DelimiterCaseSetActionNS_9allocatorIS1_EEEC2B8ue170006IJR10ScreenSizeRNS_12basic_stringIcNS_11char_traitsIcEENS2_IcEEEE9DirectionbR4CaseEEES3_DpOT_, symObjAddr: 0xD50C, symBinAddr: 0x100028160, symSize: 0xE8 }
  - { offsetInCU: 0x2F2FF, offset: 0x18252F, size: 0x8, addend: 0x0, symName: __ZNSt3__116allocator_traitsINS_9allocatorI22DelimiterCaseSetActionEEE9constructB8ue170006IS2_JR10ScreenSizeRNS_12basic_stringIcNS_11char_traitsIcEENS1_IcEEEE9DirectionbR4CaseEvvEEvRS3_PT_DpOT0_, symObjAddr: 0xD5F4, symBinAddr: 0x100028248, symSize: 0x50 }
  - { offsetInCU: 0x2F3A3, offset: 0x1825D3, size: 0x8, addend: 0x0, symName: __ZNSt3__19allocatorI10QuitActionEC1B8ue170006Ev, symObjAddr: 0xD794, symBinAddr: 0x1000283E8, symSize: 0x2C }
  - { offsetInCU: 0x2F3F8, offset: 0x182628, size: 0x8, addend: 0x0, symName: __ZNSt3__118__allocation_guardINS_9allocatorINS_20__shared_ptr_emplaceI10QuitActionNS1_IS3_EEEEEEEC1B8ue170006IS4_EET_m, symObjAddr: 0xD7C0, symBinAddr: 0x100028414, symSize: 0x34 }
  - { offsetInCU: 0x2F445, offset: 0x182675, size: 0x8, addend: 0x0, symName: __ZNKSt3__118__allocation_guardINS_9allocatorINS_20__shared_ptr_emplaceI10QuitActionNS1_IS3_EEEEEEE5__getB8ue170006Ev, symObjAddr: 0xD7F4, symBinAddr: 0x100028448, symSize: 0x18 }
  - { offsetInCU: 0x2F46F, offset: 0x18269F, size: 0x8, addend: 0x0, symName: __ZNSt3__120__shared_ptr_emplaceI10QuitActionNS_9allocatorIS1_EEEC1B8ue170006IJ8QuitModeEEES3_DpOT_, symObjAddr: 0xD80C, symBinAddr: 0x100028460, symSize: 0x34 }
  - { offsetInCU: 0x2F4C0, offset: 0x1826F0, size: 0x8, addend: 0x0, symName: __ZNSt3__118__allocation_guardINS_9allocatorINS_20__shared_ptr_emplaceI10QuitActionNS1_IS3_EEEEEEE13__release_ptrB8ue170006Ev, symObjAddr: 0xD840, symBinAddr: 0x100028494, symSize: 0x24 }
  - { offsetInCU: 0x2F4F3, offset: 0x182723, size: 0x8, addend: 0x0, symName: __ZNSt3__110shared_ptrI10QuitActionE27__create_with_control_blockB8ue170006IS1_NS_20__shared_ptr_emplaceIS1_NS_9allocatorIS1_EEEEEES2_PT_PT0_, symObjAddr: 0xD864, symBinAddr: 0x1000284B8, symSize: 0xA4 }
  - { offsetInCU: 0x2F548, offset: 0x182778, size: 0x8, addend: 0x0, symName: __ZNSt3__120__shared_ptr_emplaceI10QuitActionNS_9allocatorIS1_EEE10__get_elemB8ue170006Ev, symObjAddr: 0xD908, symBinAddr: 0x10002855C, symSize: 0x28 }
  - { offsetInCU: 0x2F56D, offset: 0x18279D, size: 0x8, addend: 0x0, symName: __ZNSt3__118__allocation_guardINS_9allocatorINS_20__shared_ptr_emplaceI10QuitActionNS1_IS3_EEEEEEED1B8ue170006Ev, symObjAddr: 0xD930, symBinAddr: 0x100028584, symSize: 0x2C }
  - { offsetInCU: 0x2F595, offset: 0x1827C5, size: 0x8, addend: 0x0, symName: __ZNSt3__118__allocation_guardINS_9allocatorINS_20__shared_ptr_emplaceI10QuitActionNS1_IS3_EEEEEEEC2B8ue170006IS4_EET_m, symObjAddr: 0xD95C, symBinAddr: 0x1000285B0, symSize: 0x50 }
  - { offsetInCU: 0x2F5E2, offset: 0x182812, size: 0x8, addend: 0x0, symName: __ZNSt3__19allocatorINS_20__shared_ptr_emplaceI10QuitActionNS0_IS2_EEEEEC1B8ue170006IS2_EERKNS0_IT_EE, symObjAddr: 0xD9AC, symBinAddr: 0x100028600, symSize: 0x34 }
  - { offsetInCU: 0x2F61E, offset: 0x18284E, size: 0x8, addend: 0x0, symName: __ZNSt3__116allocator_traitsINS_9allocatorINS_20__shared_ptr_emplaceI10QuitActionNS1_IS3_EEEEEEE8allocateB8ue170006ERS6_m, symObjAddr: 0xD9E0, symBinAddr: 0x100028634, symSize: 0x2C }
  - { offsetInCU: 0x2F651, offset: 0x182881, size: 0x8, addend: 0x0, symName: __ZNSt3__19allocatorINS_20__shared_ptr_emplaceI10QuitActionNS0_IS2_EEEEEC2B8ue170006IS2_EERKNS0_IT_EE, symObjAddr: 0xDA0C, symBinAddr: 0x100028660, symSize: 0x30 }
  - { offsetInCU: 0x2F68D, offset: 0x1828BD, size: 0x8, addend: 0x0, symName: __ZNSt3__116__non_trivial_ifILb1ENS_9allocatorINS_20__shared_ptr_emplaceI10QuitActionNS1_IS3_EEEEEEEC2B8ue170006Ev, symObjAddr: 0xDA3C, symBinAddr: 0x100028690, symSize: 0x14 }
  - { offsetInCU: 0x2F6B5, offset: 0x1828E5, size: 0x8, addend: 0x0, symName: __ZNSt3__19allocatorINS_20__shared_ptr_emplaceI10QuitActionNS0_IS2_EEEEE8allocateB8ue170006Em, symObjAddr: 0xDA50, symBinAddr: 0x1000286A4, symSize: 0x5C }
  - { offsetInCU: 0x2F6F2, offset: 0x182922, size: 0x8, addend: 0x0, symName: __ZNSt3__116allocator_traitsINS_9allocatorINS_20__shared_ptr_emplaceI10QuitActionNS1_IS3_EEEEEEE8max_sizeB8ue170006IS6_vvEEmRKS6_, symObjAddr: 0xDAAC, symBinAddr: 0x100028700, symSize: 0x28 }
  - { offsetInCU: 0x2F71D, offset: 0x18294D, size: 0x8, addend: 0x0, symName: __ZNSt3__120__shared_ptr_emplaceI10QuitActionNS_9allocatorIS1_EEEC2B8ue170006IJ8QuitModeEEES3_DpOT_, symObjAddr: 0xDAD4, symBinAddr: 0x100028728, symSize: 0xC8 }
  - { offsetInCU: 0x2F78F, offset: 0x1829BF, size: 0x8, addend: 0x0, symName: __ZNSt3__120__shared_ptr_emplaceI10QuitActionNS_9allocatorIS1_EEE8_StorageC1B8ue170006EOS3_, symObjAddr: 0xDB9C, symBinAddr: 0x1000287F0, symSize: 0x34 }
  - { offsetInCU: 0x2F7C6, offset: 0x1829F6, size: 0x8, addend: 0x0, symName: __ZNSt3__120__shared_ptr_emplaceI10QuitActionNS_9allocatorIS1_EEE11__get_allocB8ue170006Ev, symObjAddr: 0xDBD0, symBinAddr: 0x100028824, symSize: 0x28 }
  - { offsetInCU: 0x2F7F0, offset: 0x182A20, size: 0x8, addend: 0x0, symName: __ZNSt3__116allocator_traitsINS_9allocatorI10QuitActionEEE9constructB8ue170006IS2_J8QuitModeEvvEEvRS3_PT_DpOT0_, symObjAddr: 0xDBF8, symBinAddr: 0x10002884C, symSize: 0x30 }
  - { offsetInCU: 0x2F844, offset: 0x182A74, size: 0x8, addend: 0x0, symName: __ZNSt3__120__shared_ptr_emplaceI10QuitActionNS_9allocatorIS1_EEE8_StorageD1B8ue170006Ev, symObjAddr: 0xDC28, symBinAddr: 0x10002887C, symSize: 0x2C }
  - { offsetInCU: 0x2F86C, offset: 0x182A9C, size: 0x8, addend: 0x0, symName: __ZNSt3__120__shared_ptr_emplaceI10QuitActionNS_9allocatorIS1_EEED1Ev, symObjAddr: 0xDC54, symBinAddr: 0x1000288A8, symSize: 0x2C }
  - { offsetInCU: 0x2F897, offset: 0x182AC7, size: 0x8, addend: 0x0, symName: __ZNSt3__120__shared_ptr_emplaceI10QuitActionNS_9allocatorIS1_EEED0Ev, symObjAddr: 0xDC80, symBinAddr: 0x1000288D4, symSize: 0x30 }
  - { offsetInCU: 0x2F8C2, offset: 0x182AF2, size: 0x8, addend: 0x0, symName: __ZNSt3__120__shared_ptr_emplaceI10QuitActionNS_9allocatorIS1_EEE16__on_zero_sharedEv, symObjAddr: 0xDCB0, symBinAddr: 0x100028904, symSize: 0x44 }
  - { offsetInCU: 0x2F908, offset: 0x182B38, size: 0x8, addend: 0x0, symName: __ZNSt3__120__shared_ptr_emplaceI10QuitActionNS_9allocatorIS1_EEE21__on_zero_shared_weakEv, symObjAddr: 0xDCF4, symBinAddr: 0x100028948, symSize: 0x5C }
  - { offsetInCU: 0x2F948, offset: 0x182B78, size: 0x8, addend: 0x0, symName: __ZNSt3__120__shared_ptr_emplaceI10QuitActionNS_9allocatorIS1_EEE8_StorageC2B8ue170006EOS3_, symObjAddr: 0xDD50, symBinAddr: 0x1000289A4, symSize: 0x30 }
  - { offsetInCU: 0x2F97F, offset: 0x182BAF, size: 0x8, addend: 0x0, symName: __ZNSt3__120__shared_ptr_emplaceI10QuitActionNS_9allocatorIS1_EEE8_Storage11__get_allocB8ue170006Ev, symObjAddr: 0xDD80, symBinAddr: 0x1000289D4, symSize: 0x3C }
  - { offsetInCU: 0x2F9D1, offset: 0x182C01, size: 0x8, addend: 0x0, symName: __ZNSt3__117__compressed_pairINS_9allocatorI10QuitActionEES2_E16__get_first_baseB8ue170006EPS4_, symObjAddr: 0xDDBC, symBinAddr: 0x100028A10, symSize: 0x14 }
  - { offsetInCU: 0x2F9F4, offset: 0x182C24, size: 0x8, addend: 0x0, symName: __ZNSt3__120__shared_ptr_emplaceI10QuitActionNS_9allocatorIS1_EEE8_StorageD2B8ue170006Ev, symObjAddr: 0xDE10, symBinAddr: 0x100028A64, symSize: 0x2C }
  - { offsetInCU: 0x2FA1C, offset: 0x182C4C, size: 0x8, addend: 0x0, symName: __ZNSt3__120__shared_ptr_emplaceI10QuitActionNS_9allocatorIS1_EEED2Ev, symObjAddr: 0xDE3C, symBinAddr: 0x100028A90, symSize: 0x48 }
  - { offsetInCU: 0x2FA47, offset: 0x182C77, size: 0x8, addend: 0x0, symName: __ZNSt3__116allocator_traitsINS_9allocatorI10QuitActionEEE7destroyB8ue170006IS2_vvEEvRS3_PT_, symObjAddr: 0xDE84, symBinAddr: 0x100028AD8, symSize: 0x28 }
  - { offsetInCU: 0x2FA81, offset: 0x182CB1, size: 0x8, addend: 0x0, symName: __ZNSt3__116allocator_traitsINS_9allocatorINS_20__shared_ptr_emplaceI10QuitActionNS1_IS3_EEEEEEE10deallocateB8ue170006ERS6_PS5_m, symObjAddr: 0xDEFC, symBinAddr: 0x100028B50, symSize: 0x34 }
  - { offsetInCU: 0x2FAC8, offset: 0x182CF8, size: 0x8, addend: 0x0, symName: __ZNSt3__114pointer_traitsIPNS_20__shared_ptr_emplaceI10QuitActionNS_9allocatorIS2_EEEEE10pointer_toB8ue170006ERS5_, symObjAddr: 0xDF30, symBinAddr: 0x100028B84, symSize: 0x14 }
  - { offsetInCU: 0x2FAEB, offset: 0x182D1B, size: 0x8, addend: 0x0, symName: __ZNSt3__19allocatorINS_20__shared_ptr_emplaceI10QuitActionNS0_IS2_EEEEE10deallocateB8ue170006EPS4_m, symObjAddr: 0xDF44, symBinAddr: 0x100028B98, symSize: 0x44 }
  - { offsetInCU: 0x2FB2C, offset: 0x182D5C, size: 0x8, addend: 0x0, symName: __ZNSt3__110shared_ptrI10QuitActionEC1B8ue170006Ev, symObjAddr: 0xDF88, symBinAddr: 0x100028BDC, symSize: 0x2C }
  - { offsetInCU: 0x2FB54, offset: 0x182D84, size: 0x8, addend: 0x0, symName: __ZNSt3__110shared_ptrI10QuitActionE18__enable_weak_thisB8ue170006Ez, symObjAddr: 0xDFB4, symBinAddr: 0x100028C08, symSize: 0x10 }
  - { offsetInCU: 0x2FB7A, offset: 0x182DAA, size: 0x8, addend: 0x0, symName: __ZNSt3__110shared_ptrI10QuitActionEC2B8ue170006Ev, symObjAddr: 0xDFC4, symBinAddr: 0x100028C18, symSize: 0x1C }
  - { offsetInCU: 0x2FBA2, offset: 0x182DD2, size: 0x8, addend: 0x0, symName: __ZNSt3__120__shared_ptr_emplaceI10QuitActionNS_9allocatorIS1_EEE8_Storage10__get_elemB8ue170006Ev, symObjAddr: 0xDFE0, symBinAddr: 0x100028C34, symSize: 0x3C }
  - { offsetInCU: 0x2FBF4, offset: 0x182E24, size: 0x8, addend: 0x0, symName: __ZNSt3__117__compressed_pairINS_9allocatorI10QuitActionEES2_E17__get_second_baseB8ue170006EPS4_, symObjAddr: 0xE01C, symBinAddr: 0x100028C70, symSize: 0x14 }
  - { offsetInCU: 0x2FC17, offset: 0x182E47, size: 0x8, addend: 0x0, symName: __ZNSt3__118__allocation_guardINS_9allocatorINS_20__shared_ptr_emplaceI10QuitActionNS1_IS3_EEEEEEED2B8ue170006Ev, symObjAddr: 0xE030, symBinAddr: 0x100028C84, symSize: 0x2C }
  - { offsetInCU: 0x2FC3F, offset: 0x182E6F, size: 0x8, addend: 0x0, symName: __ZNSt3__118__allocation_guardINS_9allocatorINS_20__shared_ptr_emplaceI10QuitActionNS1_IS3_EEEEEEE9__destroyB8ue170006Ev, symObjAddr: 0xE05C, symBinAddr: 0x100028CB0, symSize: 0x4C }
  - { offsetInCU: 0x2FC64, offset: 0x182E94, size: 0x8, addend: 0x0, symName: __ZNSt3__19allocatorI10QuitActionEC2B8ue170006Ev, symObjAddr: 0xE0A8, symBinAddr: 0x100028CFC, symSize: 0x2C }
  - { offsetInCU: 0x2FC8C, offset: 0x182EBC, size: 0x8, addend: 0x0, symName: __ZNSt3__116__non_trivial_ifILb1ENS_9allocatorI10QuitActionEEEC2B8ue170006Ev, symObjAddr: 0xE0D4, symBinAddr: 0x100028D28, symSize: 0x14 }
  - { offsetInCU: 0x2FCB4, offset: 0x182EE4, size: 0x8, addend: 0x0, symName: __ZNSt3__110shared_ptrI10QuitActionED2B8ue170006Ev, symObjAddr: 0xE0E8, symBinAddr: 0x100028D3C, symSize: 0x54 }
  - { offsetInCU: 0x2FCDC, offset: 0x182F0C, size: 0x8, addend: 0x0, symName: __ZNSt3__19allocatorI10SaveActionEC1B8ue170006Ev, symObjAddr: 0xE1D4, symBinAddr: 0x100028E28, symSize: 0x2C }
  - { offsetInCU: 0x2FD31, offset: 0x182F61, size: 0x8, addend: 0x0, symName: __ZNSt3__118__allocation_guardINS_9allocatorINS_20__shared_ptr_emplaceI10SaveActionNS1_IS3_EEEEEEEC1B8ue170006IS4_EET_m, symObjAddr: 0xE200, symBinAddr: 0x100028E54, symSize: 0x34 }
  - { offsetInCU: 0x2FD7E, offset: 0x182FAE, size: 0x8, addend: 0x0, symName: __ZNKSt3__118__allocation_guardINS_9allocatorINS_20__shared_ptr_emplaceI10SaveActionNS1_IS3_EEEEEEE5__getB8ue170006Ev, symObjAddr: 0xE234, symBinAddr: 0x100028E88, symSize: 0x18 }
  - { offsetInCU: 0x2FDA8, offset: 0x182FD8, size: 0x8, addend: 0x0, symName: __ZNSt3__120__shared_ptr_emplaceI10SaveActionNS_9allocatorIS1_EEEC1B8ue170006IJR16SaveConfirmationEEES3_DpOT_, symObjAddr: 0xE24C, symBinAddr: 0x100028EA0, symSize: 0x34 }
  - { offsetInCU: 0x2FDF9, offset: 0x183029, size: 0x8, addend: 0x0, symName: __ZNSt3__118__allocation_guardINS_9allocatorINS_20__shared_ptr_emplaceI10SaveActionNS1_IS3_EEEEEEE13__release_ptrB8ue170006Ev, symObjAddr: 0xE280, symBinAddr: 0x100028ED4, symSize: 0x24 }
  - { offsetInCU: 0x2FE2C, offset: 0x18305C, size: 0x8, addend: 0x0, symName: __ZNSt3__110shared_ptrI10SaveActionE27__create_with_control_blockB8ue170006IS1_NS_20__shared_ptr_emplaceIS1_NS_9allocatorIS1_EEEEEES2_PT_PT0_, symObjAddr: 0xE2A4, symBinAddr: 0x100028EF8, symSize: 0xA4 }
  - { offsetInCU: 0x2FE81, offset: 0x1830B1, size: 0x8, addend: 0x0, symName: __ZNSt3__120__shared_ptr_emplaceI10SaveActionNS_9allocatorIS1_EEE10__get_elemB8ue170006Ev, symObjAddr: 0xE348, symBinAddr: 0x100028F9C, symSize: 0x28 }
  - { offsetInCU: 0x2FEA6, offset: 0x1830D6, size: 0x8, addend: 0x0, symName: __ZNSt3__118__allocation_guardINS_9allocatorINS_20__shared_ptr_emplaceI10SaveActionNS1_IS3_EEEEEEED1B8ue170006Ev, symObjAddr: 0xE370, symBinAddr: 0x100028FC4, symSize: 0x2C }
  - { offsetInCU: 0x2FECE, offset: 0x1830FE, size: 0x8, addend: 0x0, symName: __ZNSt3__118__allocation_guardINS_9allocatorINS_20__shared_ptr_emplaceI10SaveActionNS1_IS3_EEEEEEEC2B8ue170006IS4_EET_m, symObjAddr: 0xE39C, symBinAddr: 0x100028FF0, symSize: 0x50 }
  - { offsetInCU: 0x2FF1B, offset: 0x18314B, size: 0x8, addend: 0x0, symName: __ZNSt3__19allocatorINS_20__shared_ptr_emplaceI10SaveActionNS0_IS2_EEEEEC1B8ue170006IS2_EERKNS0_IT_EE, symObjAddr: 0xE3EC, symBinAddr: 0x100029040, symSize: 0x34 }
  - { offsetInCU: 0x2FF57, offset: 0x183187, size: 0x8, addend: 0x0, symName: __ZNSt3__116allocator_traitsINS_9allocatorINS_20__shared_ptr_emplaceI10SaveActionNS1_IS3_EEEEEEE8allocateB8ue170006ERS6_m, symObjAddr: 0xE420, symBinAddr: 0x100029074, symSize: 0x2C }
  - { offsetInCU: 0x2FF8A, offset: 0x1831BA, size: 0x8, addend: 0x0, symName: __ZNSt3__19allocatorINS_20__shared_ptr_emplaceI10SaveActionNS0_IS2_EEEEEC2B8ue170006IS2_EERKNS0_IT_EE, symObjAddr: 0xE44C, symBinAddr: 0x1000290A0, symSize: 0x30 }
  - { offsetInCU: 0x2FFC6, offset: 0x1831F6, size: 0x8, addend: 0x0, symName: __ZNSt3__116__non_trivial_ifILb1ENS_9allocatorINS_20__shared_ptr_emplaceI10SaveActionNS1_IS3_EEEEEEEC2B8ue170006Ev, symObjAddr: 0xE47C, symBinAddr: 0x1000290D0, symSize: 0x14 }
  - { offsetInCU: 0x2FFEE, offset: 0x18321E, size: 0x8, addend: 0x0, symName: __ZNSt3__19allocatorINS_20__shared_ptr_emplaceI10SaveActionNS0_IS2_EEEEE8allocateB8ue170006Em, symObjAddr: 0xE490, symBinAddr: 0x1000290E4, symSize: 0x5C }
  - { offsetInCU: 0x3002B, offset: 0x18325B, size: 0x8, addend: 0x0, symName: __ZNSt3__116allocator_traitsINS_9allocatorINS_20__shared_ptr_emplaceI10SaveActionNS1_IS3_EEEEEEE8max_sizeB8ue170006IS6_vvEEmRKS6_, symObjAddr: 0xE4EC, symBinAddr: 0x100029140, symSize: 0x28 }
  - { offsetInCU: 0x30056, offset: 0x183286, size: 0x8, addend: 0x0, symName: __ZNSt3__120__shared_ptr_emplaceI10SaveActionNS_9allocatorIS1_EEEC2B8ue170006IJR16SaveConfirmationEEES3_DpOT_, symObjAddr: 0xE514, symBinAddr: 0x100029168, symSize: 0xC8 }
  - { offsetInCU: 0x300C8, offset: 0x1832F8, size: 0x8, addend: 0x0, symName: __ZNSt3__120__shared_ptr_emplaceI10SaveActionNS_9allocatorIS1_EEE8_StorageC1B8ue170006EOS3_, symObjAddr: 0xE5DC, symBinAddr: 0x100029230, symSize: 0x34 }
  - { offsetInCU: 0x300FF, offset: 0x18332F, size: 0x8, addend: 0x0, symName: __ZNSt3__120__shared_ptr_emplaceI10SaveActionNS_9allocatorIS1_EEE11__get_allocB8ue170006Ev, symObjAddr: 0xE610, symBinAddr: 0x100029264, symSize: 0x28 }
  - { offsetInCU: 0x30129, offset: 0x183359, size: 0x8, addend: 0x0, symName: __ZNSt3__116allocator_traitsINS_9allocatorI10SaveActionEEE9constructB8ue170006IS2_JR16SaveConfirmationEvvEEvRS3_PT_DpOT0_, symObjAddr: 0xE638, symBinAddr: 0x10002928C, symSize: 0x30 }
  - { offsetInCU: 0x3017D, offset: 0x1833AD, size: 0x8, addend: 0x0, symName: __ZNSt3__120__shared_ptr_emplaceI10SaveActionNS_9allocatorIS1_EEE8_StorageD1B8ue170006Ev, symObjAddr: 0xE668, symBinAddr: 0x1000292BC, symSize: 0x2C }
  - { offsetInCU: 0x301A5, offset: 0x1833D5, size: 0x8, addend: 0x0, symName: __ZNSt3__120__shared_ptr_emplaceI10SaveActionNS_9allocatorIS1_EEED1Ev, symObjAddr: 0xE694, symBinAddr: 0x1000292E8, symSize: 0x2C }
  - { offsetInCU: 0x301D0, offset: 0x183400, size: 0x8, addend: 0x0, symName: __ZNSt3__120__shared_ptr_emplaceI10SaveActionNS_9allocatorIS1_EEED0Ev, symObjAddr: 0xE6C0, symBinAddr: 0x100029314, symSize: 0x30 }
  - { offsetInCU: 0x301FB, offset: 0x18342B, size: 0x8, addend: 0x0, symName: __ZNSt3__120__shared_ptr_emplaceI10SaveActionNS_9allocatorIS1_EEE16__on_zero_sharedEv, symObjAddr: 0xE6F0, symBinAddr: 0x100029344, symSize: 0x44 }
  - { offsetInCU: 0x30241, offset: 0x183471, size: 0x8, addend: 0x0, symName: __ZNSt3__120__shared_ptr_emplaceI10SaveActionNS_9allocatorIS1_EEE21__on_zero_shared_weakEv, symObjAddr: 0xE734, symBinAddr: 0x100029388, symSize: 0x5C }
  - { offsetInCU: 0x30281, offset: 0x1834B1, size: 0x8, addend: 0x0, symName: __ZNSt3__120__shared_ptr_emplaceI10SaveActionNS_9allocatorIS1_EEE8_StorageC2B8ue170006EOS3_, symObjAddr: 0xE790, symBinAddr: 0x1000293E4, symSize: 0x30 }
  - { offsetInCU: 0x302B8, offset: 0x1834E8, size: 0x8, addend: 0x0, symName: __ZNSt3__120__shared_ptr_emplaceI10SaveActionNS_9allocatorIS1_EEE8_Storage11__get_allocB8ue170006Ev, symObjAddr: 0xE7C0, symBinAddr: 0x100029414, symSize: 0x3C }
  - { offsetInCU: 0x3030A, offset: 0x18353A, size: 0x8, addend: 0x0, symName: __ZNSt3__117__compressed_pairINS_9allocatorI10SaveActionEES2_E16__get_first_baseB8ue170006EPS4_, symObjAddr: 0xE7FC, symBinAddr: 0x100029450, symSize: 0x14 }
  - { offsetInCU: 0x3032D, offset: 0x18355D, size: 0x8, addend: 0x0, symName: __ZNSt3__120__shared_ptr_emplaceI10SaveActionNS_9allocatorIS1_EEE8_StorageD2B8ue170006Ev, symObjAddr: 0xE850, symBinAddr: 0x1000294A4, symSize: 0x2C }
  - { offsetInCU: 0x30355, offset: 0x183585, size: 0x8, addend: 0x0, symName: __ZNSt3__120__shared_ptr_emplaceI10SaveActionNS_9allocatorIS1_EEED2Ev, symObjAddr: 0xE87C, symBinAddr: 0x1000294D0, symSize: 0x48 }
  - { offsetInCU: 0x30380, offset: 0x1835B0, size: 0x8, addend: 0x0, symName: __ZNSt3__116allocator_traitsINS_9allocatorI10SaveActionEEE7destroyB8ue170006IS2_vvEEvRS3_PT_, symObjAddr: 0xE8C4, symBinAddr: 0x100029518, symSize: 0x28 }
  - { offsetInCU: 0x303BA, offset: 0x1835EA, size: 0x8, addend: 0x0, symName: __ZNSt3__116allocator_traitsINS_9allocatorINS_20__shared_ptr_emplaceI10SaveActionNS1_IS3_EEEEEEE10deallocateB8ue170006ERS6_PS5_m, symObjAddr: 0xE93C, symBinAddr: 0x100029590, symSize: 0x34 }
  - { offsetInCU: 0x30401, offset: 0x183631, size: 0x8, addend: 0x0, symName: __ZNSt3__114pointer_traitsIPNS_20__shared_ptr_emplaceI10SaveActionNS_9allocatorIS2_EEEEE10pointer_toB8ue170006ERS5_, symObjAddr: 0xE970, symBinAddr: 0x1000295C4, symSize: 0x14 }
  - { offsetInCU: 0x30424, offset: 0x183654, size: 0x8, addend: 0x0, symName: __ZNSt3__19allocatorINS_20__shared_ptr_emplaceI10SaveActionNS0_IS2_EEEEE10deallocateB8ue170006EPS4_m, symObjAddr: 0xE984, symBinAddr: 0x1000295D8, symSize: 0x44 }
  - { offsetInCU: 0x30465, offset: 0x183695, size: 0x8, addend: 0x0, symName: __ZNSt3__110shared_ptrI10SaveActionEC1B8ue170006Ev, symObjAddr: 0xE9C8, symBinAddr: 0x10002961C, symSize: 0x2C }
  - { offsetInCU: 0x3048D, offset: 0x1836BD, size: 0x8, addend: 0x0, symName: __ZNSt3__110shared_ptrI10SaveActionE18__enable_weak_thisB8ue170006Ez, symObjAddr: 0xE9F4, symBinAddr: 0x100029648, symSize: 0x10 }
  - { offsetInCU: 0x304B3, offset: 0x1836E3, size: 0x8, addend: 0x0, symName: __ZNSt3__110shared_ptrI10SaveActionEC2B8ue170006Ev, symObjAddr: 0xEA04, symBinAddr: 0x100029658, symSize: 0x1C }
  - { offsetInCU: 0x304DB, offset: 0x18370B, size: 0x8, addend: 0x0, symName: __ZNSt3__120__shared_ptr_emplaceI10SaveActionNS_9allocatorIS1_EEE8_Storage10__get_elemB8ue170006Ev, symObjAddr: 0xEA20, symBinAddr: 0x100029674, symSize: 0x3C }
  - { offsetInCU: 0x3052D, offset: 0x18375D, size: 0x8, addend: 0x0, symName: __ZNSt3__117__compressed_pairINS_9allocatorI10SaveActionEES2_E17__get_second_baseB8ue170006EPS4_, symObjAddr: 0xEA5C, symBinAddr: 0x1000296B0, symSize: 0x14 }
  - { offsetInCU: 0x30550, offset: 0x183780, size: 0x8, addend: 0x0, symName: __ZNSt3__118__allocation_guardINS_9allocatorINS_20__shared_ptr_emplaceI10SaveActionNS1_IS3_EEEEEEED2B8ue170006Ev, symObjAddr: 0xEA70, symBinAddr: 0x1000296C4, symSize: 0x2C }
  - { offsetInCU: 0x30578, offset: 0x1837A8, size: 0x8, addend: 0x0, symName: __ZNSt3__118__allocation_guardINS_9allocatorINS_20__shared_ptr_emplaceI10SaveActionNS1_IS3_EEEEEEE9__destroyB8ue170006Ev, symObjAddr: 0xEA9C, symBinAddr: 0x1000296F0, symSize: 0x4C }
  - { offsetInCU: 0x3059D, offset: 0x1837CD, size: 0x8, addend: 0x0, symName: __ZNSt3__19allocatorI10SaveActionEC2B8ue170006Ev, symObjAddr: 0xEAE8, symBinAddr: 0x10002973C, symSize: 0x2C }
  - { offsetInCU: 0x305C5, offset: 0x1837F5, size: 0x8, addend: 0x0, symName: __ZNSt3__116__non_trivial_ifILb1ENS_9allocatorI10SaveActionEEEC2B8ue170006Ev, symObjAddr: 0xEB14, symBinAddr: 0x100029768, symSize: 0x14 }
  - { offsetInCU: 0x305ED, offset: 0x18381D, size: 0x8, addend: 0x0, symName: __ZNSt3__110shared_ptrI10SaveActionED2B8ue170006Ev, symObjAddr: 0xEB28, symBinAddr: 0x10002977C, symSize: 0x54 }
  - { offsetInCU: 0x30615, offset: 0x183845, size: 0x8, addend: 0x0, symName: __ZNSt3__110shared_ptrI6ActionEC2B8ue170006I10QuitActionvEEONS0_IT_EE, symObjAddr: 0xEB7C, symBinAddr: 0x1000297D0, symSize: 0x40 }
  - { offsetInCU: 0x30656, offset: 0x183886, size: 0x8, addend: 0x0, symName: __ZNSt3__110shared_ptrI6ActionEC2B8ue170006I10SaveActionvEEONS0_IT_EE, symObjAddr: 0xEBBC, symBinAddr: 0x100029810, symSize: 0x40 }
  - { offsetInCU: 0x30697, offset: 0x1838C7, size: 0x8, addend: 0x0, symName: __ZNSt3__113unordered_mapIc11ParseResultNS_4hashIcEENS_8equal_toIcEENS_9allocatorINS_4pairIKcS1_EEEEEC2ESt16initializer_listIS9_E, symObjAddr: 0xEBFC, symBinAddr: 0x100029850, symSize: 0x8C }
  - { offsetInCU: 0x306D1, offset: 0x183901, size: 0x8, addend: 0x0, symName: __ZNSt3__112__hash_tableINS_17__hash_value_typeIc11ParseResultEENS_22__unordered_map_hasherIcS3_NS_4hashIcEENS_8equal_toIcEELb1EEENS_21__unordered_map_equalIcS3_S8_S6_Lb1EEENS_9allocatorIS3_EEEC1Ev, symObjAddr: 0xEC88, symBinAddr: 0x1000298DC, symSize: 0x2C }
  - { offsetInCU: 0x306FC, offset: 0x18392C, size: 0x8, addend: 0x0, symName: __ZNSt3__113unordered_mapIc11ParseResultNS_4hashIcEENS_8equal_toIcEENS_9allocatorINS_4pairIKcS1_EEEEE6insertIPKS9_EEvT_SF_, symObjAddr: 0xECB4, symBinAddr: 0x100029908, symSize: 0x70 }
  - { offsetInCU: 0x3074A, offset: 0x18397A, size: 0x8, addend: 0x0, symName: __ZNKSt16initializer_listINSt3__14pairIKc11ParseResultEEE5beginB8ue170006Ev, symObjAddr: 0xED24, symBinAddr: 0x100029978, symSize: 0x18 }
  - { offsetInCU: 0x3076F, offset: 0x18399F, size: 0x8, addend: 0x0, symName: __ZNKSt16initializer_listINSt3__14pairIKc11ParseResultEEE3endB8ue170006Ev, symObjAddr: 0xED3C, symBinAddr: 0x100029990, symSize: 0x28 }
  - { offsetInCU: 0x30794, offset: 0x1839C4, size: 0x8, addend: 0x0, symName: __ZNSt3__112__hash_tableINS_17__hash_value_typeIc11ParseResultEENS_22__unordered_map_hasherIcS3_NS_4hashIcEENS_8equal_toIcEELb1EEENS_21__unordered_map_equalIcS3_S8_S6_Lb1EEENS_9allocatorIS3_EEED1Ev, symObjAddr: 0xED64, symBinAddr: 0x1000299B8, symSize: 0x2C }
  - { offsetInCU: 0x307BF, offset: 0x1839EF, size: 0x8, addend: 0x0, symName: __ZNSt3__112__hash_tableINS_17__hash_value_typeIc11ParseResultEENS_22__unordered_map_hasherIcS3_NS_4hashIcEENS_8equal_toIcEELb1EEENS_21__unordered_map_equalIcS3_S8_S6_Lb1EEENS_9allocatorIS3_EEEC2Ev, symObjAddr: 0xED90, symBinAddr: 0x1000299E4, symSize: 0x7C }
  - { offsetInCU: 0x307EA, offset: 0x183A1A, size: 0x8, addend: 0x0, symName: __ZNSt3__110unique_ptrIA_PNS_16__hash_node_baseIPNS_11__hash_nodeINS_17__hash_value_typeIc11ParseResultEEPvEEEENS_25__bucket_list_deallocatorINS_9allocatorISA_EEEEEC1B8ue170006ILb1EvEEv, symObjAddr: 0xEE0C, symBinAddr: 0x100029A60, symSize: 0x2C }
  - { offsetInCU: 0x3081D, offset: 0x183A4D, size: 0x8, addend: 0x0, symName: __ZNSt3__117__compressed_pairINS_16__hash_node_baseIPNS_11__hash_nodeINS_17__hash_value_typeIc11ParseResultEEPvEEEENS_9allocatorIS7_EEEC1B8ue170006ILb1EvEEv, symObjAddr: 0xEE38, symBinAddr: 0x100029A8C, symSize: 0x2C }
  - { offsetInCU: 0x30855, offset: 0x183A85, size: 0x8, addend: 0x0, symName: __ZNSt3__117__compressed_pairImNS_22__unordered_map_hasherIcNS_17__hash_value_typeIc11ParseResultEENS_4hashIcEENS_8equal_toIcEELb1EEEEC1B8ue170006IiNS_18__default_init_tagEEEOT_OT0_, symObjAddr: 0xEE64, symBinAddr: 0x100029AB8, symSize: 0x3C }
  - { offsetInCU: 0x308B0, offset: 0x183AE0, size: 0x8, addend: 0x0, symName: __ZNSt3__117__compressed_pairIfNS_21__unordered_map_equalIcNS_17__hash_value_typeIc11ParseResultEENS_8equal_toIcEENS_4hashIcEELb1EEEEC1B8ue170006IfNS_18__default_init_tagEEEOT_OT0_, symObjAddr: 0xEEA0, symBinAddr: 0x100029AF4, symSize: 0x3C }
  - { offsetInCU: 0x30906, offset: 0x183B36, size: 0x8, addend: 0x0, symName: __ZNSt3__110unique_ptrIA_PNS_16__hash_node_baseIPNS_11__hash_nodeINS_17__hash_value_typeIc11ParseResultEEPvEEEENS_25__bucket_list_deallocatorINS_9allocatorISA_EEEEEC2B8ue170006ILb1EvEEv, symObjAddr: 0xEEDC, symBinAddr: 0x100029B30, symSize: 0x3C }
  - { offsetInCU: 0x3093E, offset: 0x183B6E, size: 0x8, addend: 0x0, symName: __ZNSt3__117__compressed_pairIPPNS_16__hash_node_baseIPNS_11__hash_nodeINS_17__hash_value_typeIc11ParseResultEEPvEEEENS_25__bucket_list_deallocatorINS_9allocatorISA_EEEEEC1B8ue170006INS_16__value_init_tagESI_EEOT_OT0_, symObjAddr: 0xEF18, symBinAddr: 0x100029B6C, symSize: 0x3C }
  - { offsetInCU: 0x30994, offset: 0x183BC4, size: 0x8, addend: 0x0, symName: __ZNSt3__117__compressed_pairIPPNS_16__hash_node_baseIPNS_11__hash_nodeINS_17__hash_value_typeIc11ParseResultEEPvEEEENS_25__bucket_list_deallocatorINS_9allocatorISA_EEEEEC2B8ue170006INS_16__value_init_tagESI_EEOT_OT0_, symObjAddr: 0xEF54, symBinAddr: 0x100029BA8, symSize: 0x40 }
  - { offsetInCU: 0x309EA, offset: 0x183C1A, size: 0x8, addend: 0x0, symName: __ZNSt3__122__compressed_pair_elemIPPNS_16__hash_node_baseIPNS_11__hash_nodeINS_17__hash_value_typeIc11ParseResultEEPvEEEELi0ELb0EEC2B8ue170006ENS_16__value_init_tagE, symObjAddr: 0xEF94, symBinAddr: 0x100029BE8, symSize: 0x18 }
  - { offsetInCU: 0x30A1D, offset: 0x183C4D, size: 0x8, addend: 0x0, symName: __ZNSt3__122__compressed_pair_elemINS_25__bucket_list_deallocatorINS_9allocatorIPNS_16__hash_node_baseIPNS_11__hash_nodeINS_17__hash_value_typeIc11ParseResultEEPvEEEEEEEELi1ELb0EEC2B8ue170006ENS_16__value_init_tagE, symObjAddr: 0xEFAC, symBinAddr: 0x100029C00, symSize: 0x2C }
  - { offsetInCU: 0x30A50, offset: 0x183C80, size: 0x8, addend: 0x0, symName: __ZNSt3__125__bucket_list_deallocatorINS_9allocatorIPNS_16__hash_node_baseIPNS_11__hash_nodeINS_17__hash_value_typeIc11ParseResultEEPvEEEEEEEC1B8ue170006Ev, symObjAddr: 0xEFD8, symBinAddr: 0x100029C2C, symSize: 0x2C }
  - { offsetInCU: 0x30A78, offset: 0x183CA8, size: 0x8, addend: 0x0, symName: __ZNSt3__125__bucket_list_deallocatorINS_9allocatorIPNS_16__hash_node_baseIPNS_11__hash_nodeINS_17__hash_value_typeIc11ParseResultEEPvEEEEEEEC2B8ue170006Ev, symObjAddr: 0xF004, symBinAddr: 0x100029C58, symSize: 0x40 }
  - { offsetInCU: 0x30AA0, offset: 0x183CD0, size: 0x8, addend: 0x0, symName: __ZNSt3__117__compressed_pairImNS_9allocatorIPNS_16__hash_node_baseIPNS_11__hash_nodeINS_17__hash_value_typeIc11ParseResultEEPvEEEEEEEC1B8ue170006IiNS_18__default_init_tagEEEOT_OT0_, symObjAddr: 0xF044, symBinAddr: 0x100029C98, symSize: 0x3C }
  - { offsetInCU: 0x30AF6, offset: 0x183D26, size: 0x8, addend: 0x0, symName: __ZNSt3__117__compressed_pairImNS_9allocatorIPNS_16__hash_node_baseIPNS_11__hash_nodeINS_17__hash_value_typeIc11ParseResultEEPvEEEEEEEC2B8ue170006IiNS_18__default_init_tagEEEOT_OT0_, symObjAddr: 0xF080, symBinAddr: 0x100029CD4, symSize: 0x40 }
  - { offsetInCU: 0x30B4C, offset: 0x183D7C, size: 0x8, addend: 0x0, symName: __ZNSt3__122__compressed_pair_elemINS_9allocatorIPNS_16__hash_node_baseIPNS_11__hash_nodeINS_17__hash_value_typeIc11ParseResultEEPvEEEEEELi1ELb1EEC2B8ue170006ENS_18__default_init_tagE, symObjAddr: 0xF0E4, symBinAddr: 0x100029D14, symSize: 0x2C }
  - { offsetInCU: 0x30B7F, offset: 0x183DAF, size: 0x8, addend: 0x0, symName: __ZNSt3__19allocatorIPNS_16__hash_node_baseIPNS_11__hash_nodeINS_17__hash_value_typeIc11ParseResultEEPvEEEEEC2B8ue170006Ev, symObjAddr: 0xF110, symBinAddr: 0x100029D40, symSize: 0x2C }
  - { offsetInCU: 0x30BA7, offset: 0x183DD7, size: 0x8, addend: 0x0, symName: __ZNSt3__116__non_trivial_ifILb1ENS_9allocatorIPNS_16__hash_node_baseIPNS_11__hash_nodeINS_17__hash_value_typeIc11ParseResultEEPvEEEEEEEC2B8ue170006Ev, symObjAddr: 0xF13C, symBinAddr: 0x100029D6C, symSize: 0x14 }
  - { offsetInCU: 0x30BCF, offset: 0x183DFF, size: 0x8, addend: 0x0, symName: __ZNSt3__117__compressed_pairINS_16__hash_node_baseIPNS_11__hash_nodeINS_17__hash_value_typeIc11ParseResultEEPvEEEENS_9allocatorIS7_EEEC2B8ue170006ILb1EvEEv, symObjAddr: 0xF150, symBinAddr: 0x100029D80, symSize: 0x34 }
  - { offsetInCU: 0x30C02, offset: 0x183E32, size: 0x8, addend: 0x0, symName: __ZNSt3__122__compressed_pair_elemINS_16__hash_node_baseIPNS_11__hash_nodeINS_17__hash_value_typeIc11ParseResultEEPvEEEELi0ELb0EEC2B8ue170006ENS_16__value_init_tagE, symObjAddr: 0xF184, symBinAddr: 0x100029DB4, symSize: 0x2C }
  - { offsetInCU: 0x30C35, offset: 0x183E65, size: 0x8, addend: 0x0, symName: __ZNSt3__122__compressed_pair_elemINS_9allocatorINS_11__hash_nodeINS_17__hash_value_typeIc11ParseResultEEPvEEEELi1ELb1EEC2B8ue170006ENS_16__value_init_tagE, symObjAddr: 0xF1B0, symBinAddr: 0x100029DE0, symSize: 0x2C }
  - { offsetInCU: 0x30C68, offset: 0x183E98, size: 0x8, addend: 0x0, symName: __ZNSt3__116__hash_node_baseIPNS_11__hash_nodeINS_17__hash_value_typeIc11ParseResultEEPvEEEC1B8ue170006Ev, symObjAddr: 0xF1DC, symBinAddr: 0x100029E0C, symSize: 0x2C }
  - { offsetInCU: 0x30C90, offset: 0x183EC0, size: 0x8, addend: 0x0, symName: __ZNSt3__116__hash_node_baseIPNS_11__hash_nodeINS_17__hash_value_typeIc11ParseResultEEPvEEEC2B8ue170006Ev, symObjAddr: 0xF208, symBinAddr: 0x100029E38, symSize: 0x18 }
  - { offsetInCU: 0x30CB8, offset: 0x183EE8, size: 0x8, addend: 0x0, symName: __ZNSt3__19allocatorINS_11__hash_nodeINS_17__hash_value_typeIc11ParseResultEEPvEEEC2B8ue170006Ev, symObjAddr: 0xF220, symBinAddr: 0x100029E50, symSize: 0x2C }
  - { offsetInCU: 0x30CE0, offset: 0x183F10, size: 0x8, addend: 0x0, symName: __ZNSt3__116__non_trivial_ifILb1ENS_9allocatorINS_11__hash_nodeINS_17__hash_value_typeIc11ParseResultEEPvEEEEEC2B8ue170006Ev, symObjAddr: 0xF24C, symBinAddr: 0x100029E7C, symSize: 0x14 }
  - { offsetInCU: 0x30D08, offset: 0x183F38, size: 0x8, addend: 0x0, symName: __ZNSt3__117__compressed_pairImNS_22__unordered_map_hasherIcNS_17__hash_value_typeIc11ParseResultEENS_4hashIcEENS_8equal_toIcEELb1EEEEC2B8ue170006IiNS_18__default_init_tagEEEOT_OT0_, symObjAddr: 0xF260, symBinAddr: 0x100029E90, symSize: 0x40 }
  - { offsetInCU: 0x30D5E, offset: 0x183F8E, size: 0x8, addend: 0x0, symName: __ZNSt3__122__compressed_pair_elemINS_22__unordered_map_hasherIcNS_17__hash_value_typeIc11ParseResultEENS_4hashIcEENS_8equal_toIcEELb1EEELi1ELb1EEC2B8ue170006ENS_18__default_init_tagE, symObjAddr: 0xF2A0, symBinAddr: 0x100029ED0, symSize: 0x2C }
  - { offsetInCU: 0x30D91, offset: 0x183FC1, size: 0x8, addend: 0x0, symName: __ZNSt3__122__unordered_map_hasherIcNS_17__hash_value_typeIc11ParseResultEENS_4hashIcEENS_8equal_toIcEELb1EEC2B8ue170006Ev, symObjAddr: 0xF2CC, symBinAddr: 0x100029EFC, symSize: 0x14 }
  - { offsetInCU: 0x30DB9, offset: 0x183FE9, size: 0x8, addend: 0x0, symName: __ZNSt3__117__compressed_pairIfNS_21__unordered_map_equalIcNS_17__hash_value_typeIc11ParseResultEENS_8equal_toIcEENS_4hashIcEELb1EEEEC2B8ue170006IfNS_18__default_init_tagEEEOT_OT0_, symObjAddr: 0xF2E0, symBinAddr: 0x100029F10, symSize: 0x40 }
  - { offsetInCU: 0x30E0F, offset: 0x18403F, size: 0x8, addend: 0x0, symName: __ZNSt3__122__compressed_pair_elemINS_21__unordered_map_equalIcNS_17__hash_value_typeIc11ParseResultEENS_8equal_toIcEENS_4hashIcEELb1EEELi1ELb1EEC2B8ue170006ENS_18__default_init_tagE, symObjAddr: 0xF344, symBinAddr: 0x100029F50, symSize: 0x2C }
  - { offsetInCU: 0x30E42, offset: 0x184072, size: 0x8, addend: 0x0, symName: __ZNSt3__121__unordered_map_equalIcNS_17__hash_value_typeIc11ParseResultEENS_8equal_toIcEENS_4hashIcEELb1EEC2B8ue170006Ev, symObjAddr: 0xF370, symBinAddr: 0x100029F7C, symSize: 0x14 }
  - { offsetInCU: 0x30E6A, offset: 0x18409A, size: 0x8, addend: 0x0, symName: __ZNSt3__112__hash_tableINS_17__hash_value_typeIc11ParseResultEENS_22__unordered_map_hasherIcS3_NS_4hashIcEENS_8equal_toIcEELb1EEENS_21__unordered_map_equalIcS3_S8_S6_Lb1EEENS_9allocatorIS3_EEE15__insert_uniqueB8ue170006ERKNS_4pairIKcS2_EE, symObjAddr: 0xF384, symBinAddr: 0x100029F90, symSize: 0x50 }
  - { offsetInCU: 0x30E9E, offset: 0x1840CE, size: 0x8, addend: 0x0, symName: __ZNSt3__112__hash_tableINS_17__hash_value_typeIc11ParseResultEENS_22__unordered_map_hasherIcS3_NS_4hashIcEENS_8equal_toIcEELb1EEENS_21__unordered_map_equalIcS3_S8_S6_Lb1EEENS_9allocatorIS3_EEE25__emplace_unique_key_argsIcJRKNS_4pairIKcS2_EEEEENSG_INS_15__hash_iteratorIPNS_11__hash_nodeIS3_PvEEEEbEERKT_DpOT0_, symObjAddr: 0xF3D4, symBinAddr: 0x100029FE0, symSize: 0x4D8 }
  - { offsetInCU: 0x30F7D, offset: 0x1841AD, size: 0x8, addend: 0x0, symName: __ZNSt3__122__hash_key_value_typesINS_17__hash_value_typeIc11ParseResultEEE9__get_keyB8ue170006ERKNS_4pairIKcS2_EE, symObjAddr: 0xF8AC, symBinAddr: 0x10002A4B8, symSize: 0x14 }
  - { offsetInCU: 0x30FA0, offset: 0x1841D0, size: 0x8, addend: 0x0, symName: __ZNSt3__112__hash_tableINS_17__hash_value_typeIc11ParseResultEENS_22__unordered_map_hasherIcS3_NS_4hashIcEENS_8equal_toIcEELb1EEENS_21__unordered_map_equalIcS3_S8_S6_Lb1EEENS_9allocatorIS3_EEE13hash_functionB8ue170006Ev, symObjAddr: 0xF8C0, symBinAddr: 0x10002A4CC, symSize: 0x28 }
  - { offsetInCU: 0x30FC5, offset: 0x1841F5, size: 0x8, addend: 0x0, symName: __ZNKSt3__122__unordered_map_hasherIcNS_17__hash_value_typeIc11ParseResultEENS_4hashIcEENS_8equal_toIcEELb1EEclB8ue170006ERKc, symObjAddr: 0xF8E8, symBinAddr: 0x10002A4F4, symSize: 0x30 }
  - { offsetInCU: 0x30FF9, offset: 0x184229, size: 0x8, addend: 0x0, symName: __ZNKSt3__112__hash_tableINS_17__hash_value_typeIc11ParseResultEENS_22__unordered_map_hasherIcS3_NS_4hashIcEENS_8equal_toIcEELb1EEENS_21__unordered_map_equalIcS3_S8_S6_Lb1EEENS_9allocatorIS3_EEE12bucket_countB8ue170006Ev, symObjAddr: 0xF918, symBinAddr: 0x10002A524, symSize: 0x28 }
  - { offsetInCU: 0x3101E, offset: 0x18424E, size: 0x8, addend: 0x0, symName: __ZNKSt3__110unique_ptrIA_PNS_16__hash_node_baseIPNS_11__hash_nodeINS_17__hash_value_typeIc11ParseResultEEPvEEEENS_25__bucket_list_deallocatorINS_9allocatorISA_EEEEEixB8ue170006Em, symObjAddr: 0xF9D8, symBinAddr: 0x10002A54C, symSize: 0x34 }
  - { offsetInCU: 0x31052, offset: 0x184282, size: 0x8, addend: 0x0, symName: __ZNKSt3__116__hash_node_baseIPNS_11__hash_nodeINS_17__hash_value_typeIc11ParseResultEEPvEEE6__hashB8ue170006Ev, symObjAddr: 0xFA0C, symBinAddr: 0x10002A580, symSize: 0x18 }
  - { offsetInCU: 0x31077, offset: 0x1842A7, size: 0x8, addend: 0x0, symName: __ZNSt3__112__hash_tableINS_17__hash_value_typeIc11ParseResultEENS_22__unordered_map_hasherIcS3_NS_4hashIcEENS_8equal_toIcEELb1EEENS_21__unordered_map_equalIcS3_S8_S6_Lb1EEENS_9allocatorIS3_EEE6key_eqB8ue170006Ev, symObjAddr: 0xFA24, symBinAddr: 0x10002A598, symSize: 0x28 }
  - { offsetInCU: 0x3109C, offset: 0x1842CC, size: 0x8, addend: 0x0, symName: __ZNKSt3__121__unordered_map_equalIcNS_17__hash_value_typeIc11ParseResultEENS_8equal_toIcEENS_4hashIcEELb1EEclB8ue170006ERKS3_RKc, symObjAddr: 0xFA4C, symBinAddr: 0x10002A5C0, symSize: 0x48 }
  - { offsetInCU: 0x310DF, offset: 0x18430F, size: 0x8, addend: 0x0, symName: __ZNSt3__116__hash_node_baseIPNS_11__hash_nodeINS_17__hash_value_typeIc11ParseResultEEPvEEE8__upcastB8ue170006Ev, symObjAddr: 0xFA94, symBinAddr: 0x10002A608, symSize: 0x24 }
  - { offsetInCU: 0x31104, offset: 0x184334, size: 0x8, addend: 0x0, symName: __ZNSt3__112__hash_tableINS_17__hash_value_typeIc11ParseResultEENS_22__unordered_map_hasherIcS3_NS_4hashIcEENS_8equal_toIcEELb1EEENS_21__unordered_map_equalIcS3_S8_S6_Lb1EEENS_9allocatorIS3_EEE21__construct_node_hashIRKNS_4pairIKcS2_EEJEEENS_10unique_ptrINS_11__hash_nodeIS3_PvEENS_22__hash_node_destructorINSC_ISO_EEEEEEmOT_DpOT0_, symObjAddr: 0xFAB8, symBinAddr: 0x10002A62C, symSize: 0x140 }
  - { offsetInCU: 0x31176, offset: 0x1843A6, size: 0x8, addend: 0x0, symName: __ZNSt3__112__hash_tableINS_17__hash_value_typeIc11ParseResultEENS_22__unordered_map_hasherIcS3_NS_4hashIcEENS_8equal_toIcEELb1EEENS_21__unordered_map_equalIcS3_S8_S6_Lb1EEENS_9allocatorIS3_EEE4sizeB8ue170006Ev, symObjAddr: 0xFBF8, symBinAddr: 0x10002A76C, symSize: 0x28 }
  - { offsetInCU: 0x3119B, offset: 0x1843CB, size: 0x8, addend: 0x0, symName: __ZNSt3__112__hash_tableINS_17__hash_value_typeIc11ParseResultEENS_22__unordered_map_hasherIcS3_NS_4hashIcEENS_8equal_toIcEELb1EEENS_21__unordered_map_equalIcS3_S8_S6_Lb1EEENS_9allocatorIS3_EEE15max_load_factorB8ue170006Ev, symObjAddr: 0xFC20, symBinAddr: 0x10002A794, symSize: 0x28 }
  - { offsetInCU: 0x311C0, offset: 0x1843F0, size: 0x8, addend: 0x0, symName: __ZNSt3__112__hash_tableINS_17__hash_value_typeIc11ParseResultEENS_22__unordered_map_hasherIcS3_NS_4hashIcEENS_8equal_toIcEELb1EEENS_21__unordered_map_equalIcS3_S8_S6_Lb1EEENS_9allocatorIS3_EEE15__rehash_uniqueB8ue170006Em, symObjAddr: 0xFC48, symBinAddr: 0x10002A7BC, symSize: 0x2C }
  - { offsetInCU: 0x311F4, offset: 0x184424, size: 0x8, addend: 0x0, symName: __ZNSt3__117__compressed_pairINS_16__hash_node_baseIPNS_11__hash_nodeINS_17__hash_value_typeIc11ParseResultEEPvEEEENS_9allocatorIS7_EEE5firstB8ue170006Ev, symObjAddr: 0xFCDC, symBinAddr: 0x10002A7E8, symSize: 0x24 }
  - { offsetInCU: 0x31219, offset: 0x184449, size: 0x8, addend: 0x0, symName: __ZNSt3__116__hash_node_baseIPNS_11__hash_nodeINS_17__hash_value_typeIc11ParseResultEEPvEEE5__ptrB8ue170006Ev, symObjAddr: 0xFD00, symBinAddr: 0x10002A80C, symSize: 0x24 }
  - { offsetInCU: 0x3123E, offset: 0x18446E, size: 0x8, addend: 0x0, symName: __ZNKSt3__110unique_ptrINS_11__hash_nodeINS_17__hash_value_typeIc11ParseResultEEPvEENS_22__hash_node_destructorINS_9allocatorIS6_EEEEEptB8ue170006Ev, symObjAddr: 0xFD24, symBinAddr: 0x10002A830, symSize: 0x28 }
  - { offsetInCU: 0x31263, offset: 0x184493, size: 0x8, addend: 0x0, symName: __ZNKSt3__110unique_ptrINS_11__hash_nodeINS_17__hash_value_typeIc11ParseResultEEPvEENS_22__hash_node_destructorINS_9allocatorIS6_EEEEE3getB8ue170006Ev, symObjAddr: 0xFD4C, symBinAddr: 0x10002A858, symSize: 0x28 }
  - { offsetInCU: 0x31288, offset: 0x1844B8, size: 0x8, addend: 0x0, symName: __ZNSt3__110unique_ptrINS_11__hash_nodeINS_17__hash_value_typeIc11ParseResultEEPvEENS_22__hash_node_destructorINS_9allocatorIS6_EEEEE7releaseB8ue170006Ev, symObjAddr: 0xFD74, symBinAddr: 0x10002A880, symSize: 0x44 }
  - { offsetInCU: 0x312BC, offset: 0x1844EC, size: 0x8, addend: 0x0, symName: __ZNSt3__110unique_ptrINS_11__hash_nodeINS_17__hash_value_typeIc11ParseResultEEPvEENS_22__hash_node_destructorINS_9allocatorIS6_EEEEED1B8ue170006Ev, symObjAddr: 0xFDB8, symBinAddr: 0x10002A8C4, symSize: 0x2C }
  - { offsetInCU: 0x312E4, offset: 0x184514, size: 0x8, addend: 0x0, symName: __ZNSt3__115__hash_iteratorIPNS_11__hash_nodeINS_17__hash_value_typeIc11ParseResultEEPvEEEC1B8ue170006EPNS_16__hash_node_baseIS7_EE, symObjAddr: 0xFDE4, symBinAddr: 0x10002A8F0, symSize: 0x34 }
  - { offsetInCU: 0x31325, offset: 0x184555, size: 0x8, addend: 0x0, symName: __ZNSt3__14pairINS_15__hash_iteratorIPNS_11__hash_nodeINS_17__hash_value_typeIc11ParseResultEEPvEEEEbEC1B8ue170006IS9_RbLS6_0EEEOT_OT0_, symObjAddr: 0xFE18, symBinAddr: 0x10002A924, symSize: 0x3C }
  - { offsetInCU: 0x31382, offset: 0x1845B2, size: 0x8, addend: 0x0, symName: __ZNSt3__117__compressed_pairImNS_22__unordered_map_hasherIcNS_17__hash_value_typeIc11ParseResultEENS_4hashIcEENS_8equal_toIcEELb1EEEE6secondB8ue170006Ev, symObjAddr: 0xFE54, symBinAddr: 0x10002A960, symSize: 0x24 }
  - { offsetInCU: 0x313A7, offset: 0x1845D7, size: 0x8, addend: 0x0, symName: __ZNSt3__122__compressed_pair_elemINS_22__unordered_map_hasherIcNS_17__hash_value_typeIc11ParseResultEENS_4hashIcEENS_8equal_toIcEELb1EEELi1ELb1EE5__getB8ue170006Ev, symObjAddr: 0xFE78, symBinAddr: 0x10002A984, symSize: 0x14 }
  - { offsetInCU: 0x313CC, offset: 0x1845FC, size: 0x8, addend: 0x0, symName: __ZNKSt3__14hashIcEclB8ue170006Ec, symObjAddr: 0xFE8C, symBinAddr: 0x10002A998, symSize: 0x18 }
  - { offsetInCU: 0x31400, offset: 0x184630, size: 0x8, addend: 0x0, symName: __ZNKSt3__110unique_ptrIA_PNS_16__hash_node_baseIPNS_11__hash_nodeINS_17__hash_value_typeIc11ParseResultEEPvEEEENS_25__bucket_list_deallocatorINS_9allocatorISA_EEEEE11get_deleterB8ue170006Ev, symObjAddr: 0xFEA4, symBinAddr: 0x10002A9B0, symSize: 0x24 }
  - { offsetInCU: 0x31425, offset: 0x184655, size: 0x8, addend: 0x0, symName: __ZNKSt3__125__bucket_list_deallocatorINS_9allocatorIPNS_16__hash_node_baseIPNS_11__hash_nodeINS_17__hash_value_typeIc11ParseResultEEPvEEEEEEE4sizeB8ue170006Ev, symObjAddr: 0xFEC8, symBinAddr: 0x10002A9D4, symSize: 0x28 }
  - { offsetInCU: 0x3144A, offset: 0x18467A, size: 0x8, addend: 0x0, symName: __ZNKSt3__117__compressed_pairIPPNS_16__hash_node_baseIPNS_11__hash_nodeINS_17__hash_value_typeIc11ParseResultEEPvEEEENS_25__bucket_list_deallocatorINS_9allocatorISA_EEEEE6secondB8ue170006Ev, symObjAddr: 0xFEF0, symBinAddr: 0x10002A9FC, symSize: 0x28 }
  - { offsetInCU: 0x3146F, offset: 0x18469F, size: 0x8, addend: 0x0, symName: __ZNKSt3__122__compressed_pair_elemINS_25__bucket_list_deallocatorINS_9allocatorIPNS_16__hash_node_baseIPNS_11__hash_nodeINS_17__hash_value_typeIc11ParseResultEEPvEEEEEEEELi1ELb0EE5__getB8ue170006Ev, symObjAddr: 0xFF18, symBinAddr: 0x10002AA24, symSize: 0x14 }
  - { offsetInCU: 0x31494, offset: 0x1846C4, size: 0x8, addend: 0x0, symName: __ZNKSt3__117__compressed_pairImNS_9allocatorIPNS_16__hash_node_baseIPNS_11__hash_nodeINS_17__hash_value_typeIc11ParseResultEEPvEEEEEEE5firstB8ue170006Ev, symObjAddr: 0xFF2C, symBinAddr: 0x10002AA38, symSize: 0x24 }
  - { offsetInCU: 0x314B9, offset: 0x1846E9, size: 0x8, addend: 0x0, symName: __ZNKSt3__117__compressed_pairIPPNS_16__hash_node_baseIPNS_11__hash_nodeINS_17__hash_value_typeIc11ParseResultEEPvEEEENS_25__bucket_list_deallocatorINS_9allocatorISA_EEEEE5firstB8ue170006Ev, symObjAddr: 0xFF64, symBinAddr: 0x10002AA5C, symSize: 0x24 }
  - { offsetInCU: 0x314DE, offset: 0x18470E, size: 0x8, addend: 0x0, symName: __ZNKSt3__122__compressed_pair_elemIPPNS_16__hash_node_baseIPNS_11__hash_nodeINS_17__hash_value_typeIc11ParseResultEEPvEEEELi0ELb0EE5__getB8ue170006Ev, symObjAddr: 0xFF88, symBinAddr: 0x10002AA80, symSize: 0x14 }
  - { offsetInCU: 0x31503, offset: 0x184733, size: 0x8, addend: 0x0, symName: __ZNSt3__117__compressed_pairIfNS_21__unordered_map_equalIcNS_17__hash_value_typeIc11ParseResultEENS_8equal_toIcEENS_4hashIcEELb1EEEE6secondB8ue170006Ev, symObjAddr: 0xFF9C, symBinAddr: 0x10002AA94, symSize: 0x24 }
  - { offsetInCU: 0x31528, offset: 0x184758, size: 0x8, addend: 0x0, symName: __ZNSt3__122__compressed_pair_elemINS_21__unordered_map_equalIcNS_17__hash_value_typeIc11ParseResultEENS_8equal_toIcEENS_4hashIcEELb1EEELi1ELb1EE5__getB8ue170006Ev, symObjAddr: 0xFFC0, symBinAddr: 0x10002AAB8, symSize: 0x14 }
  - { offsetInCU: 0x3154D, offset: 0x18477D, size: 0x8, addend: 0x0, symName: __ZNKSt3__18equal_toIcEclB8ue170006ERKcS3_, symObjAddr: 0xFFD4, symBinAddr: 0x10002AACC, symSize: 0x34 }
  - { offsetInCU: 0x31590, offset: 0x1847C0, size: 0x8, addend: 0x0, symName: __ZNKSt3__117__hash_value_typeIc11ParseResultE11__get_valueB8ue170006Ev, symObjAddr: 0x10008, symBinAddr: 0x10002AB00, symSize: 0x24 }
  - { offsetInCU: 0x315B5, offset: 0x1847E5, size: 0x8, addend: 0x0, symName: __ZNSt3__114pointer_traitsIPNS_16__hash_node_baseIPNS_11__hash_nodeINS_17__hash_value_typeIc11ParseResultEEPvEEEEE10pointer_toB8ue170006ERS9_, symObjAddr: 0x10064, symBinAddr: 0x10002AB5C, symSize: 0x14 }
  - { offsetInCU: 0x315D8, offset: 0x184808, size: 0x8, addend: 0x0, symName: __ZNSt3__112__hash_tableINS_17__hash_value_typeIc11ParseResultEENS_22__unordered_map_hasherIcS3_NS_4hashIcEENS_8equal_toIcEELb1EEENS_21__unordered_map_equalIcS3_S8_S6_Lb1EEENS_9allocatorIS3_EEE12__node_allocB8ue170006Ev, symObjAddr: 0x10078, symBinAddr: 0x10002AB70, symSize: 0x28 }
  - { offsetInCU: 0x315FD, offset: 0x18482D, size: 0x8, addend: 0x0, symName: __ZNSt3__116allocator_traitsINS_9allocatorINS_11__hash_nodeINS_17__hash_value_typeIc11ParseResultEEPvEEEEE8allocateB8ue170006ERS8_m, symObjAddr: 0x100A0, symBinAddr: 0x10002AB98, symSize: 0x2C }
  - { offsetInCU: 0x31630, offset: 0x184860, size: 0x8, addend: 0x0, symName: __ZNSt3__122__hash_node_destructorINS_9allocatorINS_11__hash_nodeINS_17__hash_value_typeIc11ParseResultEEPvEEEEEC1B8ue170006ERS8_b, symObjAddr: 0x100CC, symBinAddr: 0x10002ABC4, symSize: 0x48 }
  - { offsetInCU: 0x3167B, offset: 0x1848AB, size: 0x8, addend: 0x0, symName: __ZNSt3__110unique_ptrINS_11__hash_nodeINS_17__hash_value_typeIc11ParseResultEEPvEENS_22__hash_node_destructorINS_9allocatorIS6_EEEEEC1B8ue170006ILb1EvEEPS6_NS_16__dependent_typeINS_27__unique_ptr_deleter_sfinaeISA_EEXT_EE20__good_rval_ref_typeE, symObjAddr: 0x10114, symBinAddr: 0x10002AC0C, symSize: 0x3C }
  - { offsetInCU: 0x316CA, offset: 0x1848FA, size: 0x8, addend: 0x0, symName: __ZNSt3__116allocator_traitsINS_9allocatorINS_11__hash_nodeINS_17__hash_value_typeIc11ParseResultEEPvEEEEE9constructB8ue170006INS_4pairIKcS4_EEJRKSD_EvvEEvRS8_PT_DpOT0_, symObjAddr: 0x10150, symBinAddr: 0x10002AC48, symSize: 0x30 }
  - { offsetInCU: 0x3171E, offset: 0x18494E, size: 0x8, addend: 0x0, symName: __ZNSt3__122__hash_key_value_typesINS_17__hash_value_typeIc11ParseResultEEE9__get_ptrB8ue170006ERS3_, symObjAddr: 0x10180, symBinAddr: 0x10002AC78, symSize: 0x24 }
  - { offsetInCU: 0x31741, offset: 0x184971, size: 0x8, addend: 0x0, symName: __ZNSt3__110unique_ptrINS_11__hash_nodeINS_17__hash_value_typeIc11ParseResultEEPvEENS_22__hash_node_destructorINS_9allocatorIS6_EEEEE11get_deleterB8ue170006Ev, symObjAddr: 0x101A4, symBinAddr: 0x10002AC9C, symSize: 0x24 }
  - { offsetInCU: 0x31766, offset: 0x184996, size: 0x8, addend: 0x0, symName: __ZNSt3__117__compressed_pairINS_16__hash_node_baseIPNS_11__hash_nodeINS_17__hash_value_typeIc11ParseResultEEPvEEEENS_9allocatorIS7_EEE6secondB8ue170006Ev, symObjAddr: 0x101C8, symBinAddr: 0x10002ACC0, symSize: 0x24 }
  - { offsetInCU: 0x3178B, offset: 0x1849BB, size: 0x8, addend: 0x0, symName: __ZNSt3__122__compressed_pair_elemINS_9allocatorINS_11__hash_nodeINS_17__hash_value_typeIc11ParseResultEEPvEEEELi1ELb1EE5__getB8ue170006Ev, symObjAddr: 0x101EC, symBinAddr: 0x10002ACE4, symSize: 0x14 }
  - { offsetInCU: 0x317B0, offset: 0x1849E0, size: 0x8, addend: 0x0, symName: __ZNSt3__19allocatorINS_11__hash_nodeINS_17__hash_value_typeIc11ParseResultEEPvEEE8allocateB8ue170006Em, symObjAddr: 0x10200, symBinAddr: 0x10002ACF8, symSize: 0x5C }
  - { offsetInCU: 0x317ED, offset: 0x184A1D, size: 0x8, addend: 0x0, symName: __ZNSt3__116allocator_traitsINS_9allocatorINS_11__hash_nodeINS_17__hash_value_typeIc11ParseResultEEPvEEEEE8max_sizeB8ue170006IS8_vvEEmRKS8_, symObjAddr: 0x1025C, symBinAddr: 0x10002AD54, symSize: 0x28 }
