---
triple:          'arm64-apple-darwin'
binary-path:     svim
relocations:
  - { offsetInCU: 0x1133E, offset: 0x1133E, size: 0x8, addend: 0x0, symName: __ZNSt3__118__constexpr_strlenB8ue170006EPKc, symObjAddr: 0x6A8, symBinAddr: 0x100004204, symSize: 0x24 }
  - { offsetInCU: 0x1CC65, offset: 0x1CC65, size: 0x8, addend: 0x0, symName: _main, symObjAddr: 0x0, symBinAddr: 0x100003B5C, symSize: 0x1F0 }
  - { offsetInCU: 0x1CD90, offset: 0x1CD90, size: 0x8, addend: 0x0, symName: __ZNSt3__18optionalINS_12basic_stringIcNS_11char_traitsIcEENS_9allocatorIcEEEEEC1B8ue170006ENS_9nullopt_tE, symObjAddr: 0x1F0, symBinAddr: 0x100003D4C, symSize: 0x2C }
  - { offsetInCU: 0x1CDC4, offset: 0x1CDC4, size: 0x8, addend: 0x0, symName: __ZNSt3__18optionalINS_12basic_stringIcNS_11char_traitsIcEENS_9allocatorIcEEEEED1Ev, symObjAddr: 0x21C, symBinAddr: 0x100003D78, symSize: 0x2C }
  - { offsetInCU: 0x1CDF5, offset: 0x1CDF5, size: 0x8, addend: 0x0, symName: __ZNSt3__112basic_stringIcNS_11char_traitsIcEENS_9allocatorIcEEEC1B8ue170006ILi0EEEPKc, symObjAddr: 0x248, symBinAddr: 0x100003DA4, symSize: 0x34 }
  - { offsetInCU: 0x1CE38, offset: 0x1CE38, size: 0x8, addend: 0x0, symName: __ZNSt3__18optionalINS_12basic_stringIcNS_11char_traitsIcEENS_9allocatorIcEEEEEC1B8ue170006IRPcLi0EEEOT_, symObjAddr: 0x27C, symBinAddr: 0x100003DD8, symSize: 0x34 }
  - { offsetInCU: 0x1CE7F, offset: 0x1CE7F, size: 0x8, addend: 0x0, symName: __ZNSt3__18optionalINS_12basic_stringIcNS_11char_traitsIcEENS_9allocatorIcEEEEEC2B8ue170006ENS_9nullopt_tE, symObjAddr: 0x2B0, symBinAddr: 0x100003E0C, symSize: 0x2C }
  - { offsetInCU: 0x1CEB3, offset: 0x1CEB3, size: 0x8, addend: 0x0, symName: __ZNSt3__127__optional_move_assign_baseINS_12basic_stringIcNS_11char_traitsIcEENS_9allocatorIcEEEELb0EEC2B8ue170006Ev, symObjAddr: 0x2DC, symBinAddr: 0x100003E38, symSize: 0x2C }
  - { offsetInCU: 0x1CEDB, offset: 0x1CEDB, size: 0x8, addend: 0x0, symName: __ZNSt3__127__optional_copy_assign_baseINS_12basic_stringIcNS_11char_traitsIcEENS_9allocatorIcEEEELb0EEC2B8ue170006Ev, symObjAddr: 0x308, symBinAddr: 0x100003E64, symSize: 0x2C }
  - { offsetInCU: 0x1CF03, offset: 0x1CF03, size: 0x8, addend: 0x0, symName: __ZNSt3__120__optional_move_baseINS_12basic_stringIcNS_11char_traitsIcEENS_9allocatorIcEEEELb0EEC2B8ue170006Ev, symObjAddr: 0x334, symBinAddr: 0x100003E90, symSize: 0x2C }
  - { offsetInCU: 0x1CF2B, offset: 0x1CF2B, size: 0x8, addend: 0x0, symName: __ZNSt3__120__optional_copy_baseINS_12basic_stringIcNS_11char_traitsIcEENS_9allocatorIcEEEELb0EEC2B8ue170006Ev, symObjAddr: 0x360, symBinAddr: 0x100003EBC, symSize: 0x2C }
  - { offsetInCU: 0x1CF53, offset: 0x1CF53, size: 0x8, addend: 0x0, symName: __ZNSt3__123__optional_storage_baseINS_12basic_stringIcNS_11char_traitsIcEENS_9allocatorIcEEEELb0EEC2Ev, symObjAddr: 0x38C, symBinAddr: 0x100003EE8, symSize: 0x2C }
  - { offsetInCU: 0x1CF7F, offset: 0x1CF7F, size: 0x8, addend: 0x0, symName: __ZNSt3__124__optional_destruct_baseINS_12basic_stringIcNS_11char_traitsIcEENS_9allocatorIcEEEELb0EEC2B8ue170006Ev, symObjAddr: 0x3B8, symBinAddr: 0x100003F14, symSize: 0x1C }
  - { offsetInCU: 0x1CFA8, offset: 0x1CFA8, size: 0x8, addend: 0x0, symName: __ZNSt3__18optionalINS_12basic_stringIcNS_11char_traitsIcEENS_9allocatorIcEEEEED2Ev, symObjAddr: 0x3D4, symBinAddr: 0x100003F30, symSize: 0x2C }
  - { offsetInCU: 0x1CFD4, offset: 0x1CFD4, size: 0x8, addend: 0x0, symName: __ZNSt3__127__optional_move_assign_baseINS_12basic_stringIcNS_11char_traitsIcEENS_9allocatorIcEEEELb0EED2Ev, symObjAddr: 0x400, symBinAddr: 0x100003F5C, symSize: 0x2C }
  - { offsetInCU: 0x1D000, offset: 0x1D000, size: 0x8, addend: 0x0, symName: __ZNSt3__127__optional_copy_assign_baseINS_12basic_stringIcNS_11char_traitsIcEENS_9allocatorIcEEEELb0EED2Ev, symObjAddr: 0x42C, symBinAddr: 0x100003F88, symSize: 0x2C }
  - { offsetInCU: 0x1D02C, offset: 0x1D02C, size: 0x8, addend: 0x0, symName: __ZNSt3__120__optional_move_baseINS_12basic_stringIcNS_11char_traitsIcEENS_9allocatorIcEEEELb0EED2Ev, symObjAddr: 0x458, symBinAddr: 0x100003FB4, symSize: 0x2C }
  - { offsetInCU: 0x1D058, offset: 0x1D058, size: 0x8, addend: 0x0, symName: __ZNSt3__120__optional_copy_baseINS_12basic_stringIcNS_11char_traitsIcEENS_9allocatorIcEEEELb0EED2Ev, symObjAddr: 0x484, symBinAddr: 0x100003FE0, symSize: 0x2C }
  - { offsetInCU: 0x1D084, offset: 0x1D084, size: 0x8, addend: 0x0, symName: __ZNSt3__123__optional_storage_baseINS_12basic_stringIcNS_11char_traitsIcEENS_9allocatorIcEEEELb0EED2Ev, symObjAddr: 0x4B0, symBinAddr: 0x10000400C, symSize: 0x2C }
  - { offsetInCU: 0x1D0B0, offset: 0x1D0B0, size: 0x8, addend: 0x0, symName: __ZNSt3__124__optional_destruct_baseINS_12basic_stringIcNS_11char_traitsIcEENS_9allocatorIcEEEELb0EED2B8ue170006Ev, symObjAddr: 0x4DC, symBinAddr: 0x100004038, symSize: 0x48 }
  - { offsetInCU: 0x1D0D8, offset: 0x1D0D8, size: 0x8, addend: 0x0, symName: __ZNSt3__112basic_stringIcNS_11char_traitsIcEENS_9allocatorIcEEEC2B8ue170006ILi0EEEPKc, symObjAddr: 0x524, symBinAddr: 0x100004080, symSize: 0x58 }
  - { offsetInCU: 0x1D11B, offset: 0x1D11B, size: 0x8, addend: 0x0, symName: __ZNSt3__117__compressed_pairINS_12basic_stringIcNS_11char_traitsIcEENS_9allocatorIcEEE5__repES5_EC1B8ue170006INS_18__default_init_tagESA_EEOT_OT0_, symObjAddr: 0x57C, symBinAddr: 0x1000040D8, symSize: 0x3C }
  - { offsetInCU: 0x1D171, offset: 0x1D171, size: 0x8, addend: 0x0, symName: __ZNSt3__111char_traitsIcE6lengthB8ue170006EPKc, symObjAddr: 0x5B8, symBinAddr: 0x100004114, symSize: 0x34 }
  - { offsetInCU: 0x1D194, offset: 0x1D194, size: 0x8, addend: 0x0, symName: __ZNSt3__117__compressed_pairINS_12basic_stringIcNS_11char_traitsIcEENS_9allocatorIcEEE5__repES5_EC2B8ue170006INS_18__default_init_tagESA_EEOT_OT0_, symObjAddr: 0x5EC, symBinAddr: 0x100004148, symSize: 0x3C }
  - { offsetInCU: 0x1D1EA, offset: 0x1D1EA, size: 0x8, addend: 0x0, symName: __ZNSt3__122__compressed_pair_elemINS_12basic_stringIcNS_11char_traitsIcEENS_9allocatorIcEEE5__repELi0ELb0EEC2B8ue170006ENS_18__default_init_tagE, symObjAddr: 0x628, symBinAddr: 0x100004184, symSize: 0x14 }
  - { offsetInCU: 0x1D21E, offset: 0x1D21E, size: 0x8, addend: 0x0, symName: __ZNSt3__122__compressed_pair_elemINS_9allocatorIcEELi1ELb1EEC2B8ue170006ENS_18__default_init_tagE, symObjAddr: 0x63C, symBinAddr: 0x100004198, symSize: 0x2C }
  - { offsetInCU: 0x1D251, offset: 0x1D251, size: 0x8, addend: 0x0, symName: __ZNSt3__19allocatorIcEC2B8ue170006Ev, symObjAddr: 0x668, symBinAddr: 0x1000041C4, symSize: 0x2C }
  - { offsetInCU: 0x1D279, offset: 0x1D279, size: 0x8, addend: 0x0, symName: __ZNSt3__116__non_trivial_ifILb1ENS_9allocatorIcEEEC2B8ue170006Ev, symObjAddr: 0x694, symBinAddr: 0x1000041F0, symSize: 0x14 }
  - { offsetInCU: 0x1D2A2, offset: 0x1D2A2, size: 0x8, addend: 0x0, symName: __ZNSt3__18optionalINS_12basic_stringIcNS_11char_traitsIcEENS_9allocatorIcEEEEEC2B8ue170006IRPcLi0EEEOT_, symObjAddr: 0x6D8, symBinAddr: 0x100004234, symSize: 0x34 }
  - { offsetInCU: 0x1D2E9, offset: 0x1D2E9, size: 0x8, addend: 0x0, symName: __ZNSt3__127__optional_move_assign_baseINS_12basic_stringIcNS_11char_traitsIcEENS_9allocatorIcEEEELb0EECI2NS_24__optional_destruct_baseIS6_Lb0EEEIJRPcEEENS_10in_place_tEDpOT_, symObjAddr: 0x70C, symBinAddr: 0x100004268, symSize: 0x34 }
  - { offsetInCU: 0x1D327, offset: 0x1D327, size: 0x8, addend: 0x0, symName: __ZNSt3__127__optional_copy_assign_baseINS_12basic_stringIcNS_11char_traitsIcEENS_9allocatorIcEEEELb0EECI2NS_24__optional_destruct_baseIS6_Lb0EEEIJRPcEEENS_10in_place_tEDpOT_, symObjAddr: 0x740, symBinAddr: 0x10000429C, symSize: 0x34 }
  - { offsetInCU: 0x1D365, offset: 0x1D365, size: 0x8, addend: 0x0, symName: __ZNSt3__120__optional_move_baseINS_12basic_stringIcNS_11char_traitsIcEENS_9allocatorIcEEEELb0EECI2NS_24__optional_destruct_baseIS6_Lb0EEEIJRPcEEENS_10in_place_tEDpOT_, symObjAddr: 0x774, symBinAddr: 0x1000042D0, symSize: 0x34 }
  - { offsetInCU: 0x1D3A3, offset: 0x1D3A3, size: 0x8, addend: 0x0, symName: __ZNSt3__120__optional_copy_baseINS_12basic_stringIcNS_11char_traitsIcEENS_9allocatorIcEEEELb0EECI2NS_24__optional_destruct_baseIS6_Lb0EEEIJRPcEEENS_10in_place_tEDpOT_, symObjAddr: 0x7A8, symBinAddr: 0x100004304, symSize: 0x34 }
  - { offsetInCU: 0x1D3E1, offset: 0x1D3E1, size: 0x8, addend: 0x0, symName: __ZNSt3__123__optional_storage_baseINS_12basic_stringIcNS_11char_traitsIcEENS_9allocatorIcEEEELb0EECI2NS_24__optional_destruct_baseIS6_Lb0EEEIJRPcEEENS_10in_place_tEDpOT_, symObjAddr: 0x7DC, symBinAddr: 0x100004338, symSize: 0x34 }
  - { offsetInCU: 0x1D41F, offset: 0x1D41F, size: 0x8, addend: 0x0, symName: __ZNSt3__124__optional_destruct_baseINS_12basic_stringIcNS_11char_traitsIcEENS_9allocatorIcEEEELb0EEC2B8ue170006IJRPcEEENS_10in_place_tEDpOT_, symObjAddr: 0x810, symBinAddr: 0x10000436C, symSize: 0x40 }
  - { offsetInCU: 0x411B, offset: 0x22B94, size: 0x8, addend: 0x0, symName: __ZNSt3__17advanceB8ue170006IPNS_6vectorI13VisualSegmentNS_9allocatorIS2_EEEEllvEEvRT_T0_, symObjAddr: 0x1964, symBinAddr: 0x100005D04, symSize: 0x38 }
  - { offsetInCU: 0x45B3, offset: 0x2302C, size: 0x8, addend: 0x0, symName: __ZNSt3__17advanceB8ue170006IP13VisualSegmentllvEEvRT_T0_, symObjAddr: 0x2FD8, symBinAddr: 0x100007378, symSize: 0x38 }
  - { offsetInCU: 0x5546, offset: 0x23FBF, size: 0x8, addend: 0x0, symName: __ZNSt3__122__make_exception_guardB8ue170006INS_6vectorINS1_I13VisualSegmentNS_9allocatorIS2_EEEENS3_IS5_EEE16__destroy_vectorEEENS_28__exception_guard_exceptionsIT_EESA_, symObjAddr: 0x7D0, symBinAddr: 0x100004B7C, symSize: 0x40 }
  - { offsetInCU: 0x557B, offset: 0x23FF4, size: 0x8, addend: 0x0, symName: __ZNSt3__119__allocate_at_leastB8ue170006INS_9allocatorINS_6vectorI13VisualSegmentNS1_IS3_EEEEEEEENS_19__allocation_resultINS_16allocator_traitsIT_E7pointerEEERS9_m, symObjAddr: 0xAC0, symBinAddr: 0x100004E6C, symSize: 0x40 }
  - { offsetInCU: 0x55BE, offset: 0x24037, size: 0x8, addend: 0x0, symName: __ZNSt3__13minB8ue170006ImEERKT_S3_S3_, symObjAddr: 0xC18, symBinAddr: 0x100004FC4, symSize: 0x2C }
  - { offsetInCU: 0x57EB, offset: 0x24264, size: 0x8, addend: 0x0, symName: __ZNSt3__13minB8ue170006ImNS_6__lessIvvEEEERKT_S5_S5_T0_, symObjAddr: 0xC8C, symBinAddr: 0x10000502C, symSize: 0x54 }
  - { offsetInCU: 0x5A78, offset: 0x244F1, size: 0x8, addend: 0x0, symName: __ZNSt3__120__throw_length_errorB8ue170006EPKc, symObjAddr: 0xD38, symBinAddr: 0x1000050D8, symSize: 0x64 }
  - { offsetInCU: 0x5AA4, offset: 0x2451D, size: 0x8, addend: 0x0, symName: __ZNSt3__117__libcpp_allocateB8ue170006Emm, symObjAddr: 0xEAC, symBinAddr: 0x10000524C, symSize: 0x60 }
  - { offsetInCU: 0x5B03, offset: 0x2457C, size: 0x8, addend: 0x0, symName: __ZNSt3__124__is_overaligned_for_newB8ue170006Em, symObjAddr: 0xF0C, symBinAddr: 0x1000052AC, symSize: 0x20 }
  - { offsetInCU: 0x5B33, offset: 0x245AC, size: 0x8, addend: 0x0, symName: __ZNSt3__121__libcpp_operator_newB8ue170006IJmSt11align_val_tEEEPvDpT_, symObjAddr: 0xF2C, symBinAddr: 0x1000052CC, symSize: 0x2C }
  - { offsetInCU: 0x5B83, offset: 0x245FC, size: 0x8, addend: 0x0, symName: __ZNSt3__121__libcpp_operator_newB8ue170006IJmEEEPvDpT_, symObjAddr: 0xF58, symBinAddr: 0x1000052F8, symSize: 0x24 }
  - { offsetInCU: 0x5BBE, offset: 0x24637, size: 0x8, addend: 0x0, symName: __ZNSt3__112__to_addressB8ue170006INS_6vectorI13VisualSegmentNS_9allocatorIS2_EEEEEEPT_S7_, symObjAddr: 0x1074, symBinAddr: 0x100005414, symSize: 0x14 }
  - { offsetInCU: 0x5BF4, offset: 0x2466D, size: 0x8, addend: 0x0, symName: __ZNSt3__130__uninitialized_allocator_copyB8ue170006INS_9allocatorINS_6vectorI13VisualSegmentNS1_IS3_EEEEEEPS5_S7_S7_EET2_RT_T0_T1_S8_, symObjAddr: 0x1124, symBinAddr: 0x1000054C4, symSize: 0x80 }
  - { offsetInCU: 0x5C98, offset: 0x24711, size: 0x8, addend: 0x0, symName: __ZNSt3__114__unwrap_rangeB8ue170006IPNS_6vectorI13VisualSegmentNS_9allocatorIS2_EEEES6_EEDaT_T0_, symObjAddr: 0x121C, symBinAddr: 0x1000055BC, symSize: 0x3C }
  - { offsetInCU: 0x5CE4, offset: 0x2475D, size: 0x8, addend: 0x0, symName: __ZNSt3__135__uninitialized_allocator_copy_implB8ue170006INS_9allocatorINS_6vectorI13VisualSegmentNS1_IS3_EEEEEEPS5_S7_S7_EET2_RT_T0_T1_S8_, symObjAddr: 0x1258, symBinAddr: 0x1000055F8, symSize: 0xF4 }
  - { offsetInCU: 0x5D89, offset: 0x24802, size: 0x8, addend: 0x0, symName: __ZNSt3__113__unwrap_iterB8ue170006IPNS_6vectorI13VisualSegmentNS_9allocatorIS2_EEEENS_18__unwrap_iter_implIS6_Lb1EEELi0EEEDTclsrT0_8__unwrapclsr3stdE7declvalIT_EEEESA_, symObjAddr: 0x134C, symBinAddr: 0x1000056EC, symSize: 0x24 }
  - { offsetInCU: 0x5DCD, offset: 0x24846, size: 0x8, addend: 0x0, symName: __ZNSt3__113__rewrap_iterB8ue170006IPNS_6vectorI13VisualSegmentNS_9allocatorIS2_EEEES6_NS_18__unwrap_iter_implIS6_Lb1EEEEET_S9_T0_, symObjAddr: 0x1370, symBinAddr: 0x100005710, symSize: 0x3C }
  - { offsetInCU: 0x5F24, offset: 0x2499D, size: 0x8, addend: 0x0, symName: __ZNSt3__122__make_exception_guardB8ue170006INS_29_AllocatorDestroyRangeReverseINS_9allocatorINS_6vectorI13VisualSegmentNS2_IS4_EEEEEEPS6_EEEENS_28__exception_guard_exceptionsIT_EESB_, symObjAddr: 0x1474, symBinAddr: 0x100005814, symSize: 0x4C }
  - { offsetInCU: 0x5F81, offset: 0x249FA, size: 0x8, addend: 0x0, symName: __ZNSt3__112construct_atB8ue170006INS_6vectorI13VisualSegmentNS_9allocatorIS2_EEEEJRS5_EPS5_EEPT_S9_DpOT0_, symObjAddr: 0x1618, symBinAddr: 0x1000059B8, symSize: 0x3C }
  - { offsetInCU: 0x5FF3, offset: 0x24A6C, size: 0x8, addend: 0x0, symName: __ZNSt3__119__allocator_destroyB8ue170006INS_9allocatorINS_6vectorI13VisualSegmentNS1_IS3_EEEEEENS_16reverse_iteratorIPS5_EES9_EEvRT_T0_T1_, symObjAddr: 0x170C, symBinAddr: 0x100005AAC, symSize: 0x70 }
  - { offsetInCU: 0x605A, offset: 0x24AD3, size: 0x8, addend: 0x0, symName: __ZNSt3__1neB8ue170006IPNS_6vectorI13VisualSegmentNS_9allocatorIS2_EEEES6_EEbRKNS_16reverse_iteratorIT_EERKNS7_IT0_EE, symObjAddr: 0x17B0, symBinAddr: 0x100005B50, symSize: 0x48 }
  - { offsetInCU: 0x60A6, offset: 0x24B1F, size: 0x8, addend: 0x0, symName: __ZNSt3__112__to_addressB8ue170006INS_16reverse_iteratorIPNS_6vectorI13VisualSegmentNS_9allocatorIS3_EEEEEEvEEu7__decayIDTclsr19__to_address_helperIT_EE6__callclsr3stdE7declvalIRKS9_EEEEESB_, symObjAddr: 0x1820, symBinAddr: 0x100005BC0, symSize: 0x24 }
  - { offsetInCU: 0x60DD, offset: 0x24B56, size: 0x8, addend: 0x0, symName: __ZNSt3__110destroy_atB8ue170006INS_6vectorI13VisualSegmentNS_9allocatorIS2_EEEELi0EEEvPT_, symObjAddr: 0x187C, symBinAddr: 0x100005C1C, symSize: 0x24 }
  - { offsetInCU: 0x6115, offset: 0x24B8E, size: 0x8, addend: 0x0, symName: __ZNSt3__112__destroy_atB8ue170006INS_6vectorI13VisualSegmentNS_9allocatorIS2_EEEELi0EEEvPT_, symObjAddr: 0x18A0, symBinAddr: 0x100005C40, symSize: 0x24 }
  - { offsetInCU: 0x6177, offset: 0x24BF0, size: 0x8, addend: 0x0, symName: __ZNSt3__14prevB8ue170006IPNS_6vectorI13VisualSegmentNS_9allocatorIS2_EEEEEENS_9enable_ifIXsr29__has_input_iterator_categoryIT_EE5valueES8_E4typeES8_NS_15iterator_traitsIS8_E15difference_typeE, symObjAddr: 0x1928, symBinAddr: 0x100005CC8, symSize: 0x3C }
  - { offsetInCU: 0x61BA, offset: 0x24C33, size: 0x8, addend: 0x0, symName: __ZNSt3__121__convert_to_integralB8ue170006El, symObjAddr: 0x199C, symBinAddr: 0x100005D3C, symSize: 0x14 }
  - { offsetInCU: 0x61E7, offset: 0x24C60, size: 0x8, addend: 0x0, symName: __ZNSt3__19__advanceB8ue170006IPNS_6vectorI13VisualSegmentNS_9allocatorIS2_EEEEEEvRT_NS_15iterator_traitsIS7_E15difference_typeENS_26random_access_iterator_tagE, symObjAddr: 0x19B0, symBinAddr: 0x100005D50, symSize: 0x30 }
  - { offsetInCU: 0x6285, offset: 0x24CFE, size: 0x8, addend: 0x0, symName: __ZNSt3__119__libcpp_deallocateB8ue170006EPvmm, symObjAddr: 0x1D84, symBinAddr: 0x100006124, symSize: 0x60 }
  - { offsetInCU: 0x62F0, offset: 0x24D69, size: 0x8, addend: 0x0, symName: __ZNSt3__127__do_deallocate_handle_sizeB8ue170006IJSt11align_val_tEEEvPvmDpT_, symObjAddr: 0x1DE4, symBinAddr: 0x100006184, symSize: 0x30 }
  - { offsetInCU: 0x6347, offset: 0x24DC0, size: 0x8, addend: 0x0, symName: __ZNSt3__127__do_deallocate_handle_sizeB8ue170006IJEEEvPvmDpT_, symObjAddr: 0x1E14, symBinAddr: 0x1000061B4, symSize: 0x28 }
  - { offsetInCU: 0x6389, offset: 0x24E02, size: 0x8, addend: 0x0, symName: __ZNSt3__124__libcpp_operator_deleteB8ue170006IJPvSt11align_val_tEEEvDpT_, symObjAddr: 0x1E3C, symBinAddr: 0x1000061DC, symSize: 0x2C }
  - { offsetInCU: 0x63D5, offset: 0x24E4E, size: 0x8, addend: 0x0, symName: __ZNSt3__124__libcpp_operator_deleteB8ue170006IJPvEEEvDpT_, symObjAddr: 0x1E68, symBinAddr: 0x100006208, symSize: 0x24 }
  - { offsetInCU: 0x640C, offset: 0x24E85, size: 0x8, addend: 0x0, symName: __ZNSt3__122__make_exception_guardB8ue170006INS_6vectorI13VisualSegmentNS_9allocatorIS2_EEE16__destroy_vectorEEENS_28__exception_guard_exceptionsIT_EES8_, symObjAddr: 0x20FC, symBinAddr: 0x10000649C, symSize: 0x40 }
  - { offsetInCU: 0x6441, offset: 0x24EBA, size: 0x8, addend: 0x0, symName: __ZNSt3__119__allocate_at_leastB8ue170006INS_9allocatorI13VisualSegmentEEEENS_19__allocation_resultINS_16allocator_traitsIT_E7pointerEEERS6_m, symObjAddr: 0x23E4, symBinAddr: 0x100006784, symSize: 0x40 }
  - { offsetInCU: 0x6484, offset: 0x24EFD, size: 0x8, addend: 0x0, symName: __ZNSt3__112__to_addressB8ue170006I13VisualSegmentEEPT_S3_, symObjAddr: 0x2698, symBinAddr: 0x100006A38, symSize: 0x14 }
  - { offsetInCU: 0x64BA, offset: 0x24F33, size: 0x8, addend: 0x0, symName: __ZNSt3__130__uninitialized_allocator_copyB8ue170006INS_9allocatorI13VisualSegmentEEPS2_S4_S4_EET2_RT_T0_T1_S5_, symObjAddr: 0x2748, symBinAddr: 0x100006AE8, symSize: 0x80 }
  - { offsetInCU: 0x655E, offset: 0x24FD7, size: 0x8, addend: 0x0, symName: __ZNSt3__114__unwrap_rangeB8ue170006IP13VisualSegmentS2_EEDaT_T0_, symObjAddr: 0x2838, symBinAddr: 0x100006BD8, symSize: 0x3C }
  - { offsetInCU: 0x65AA, offset: 0x25023, size: 0x8, addend: 0x0, symName: __ZNSt3__135__uninitialized_allocator_copy_implB8ue170006INS_9allocatorI13VisualSegmentEEPS2_S4_S4_EET2_RT_T0_T1_S5_, symObjAddr: 0x2874, symBinAddr: 0x100006C14, symSize: 0xF4 }
  - { offsetInCU: 0x664F, offset: 0x250C8, size: 0x8, addend: 0x0, symName: __ZNSt3__113__unwrap_iterB8ue170006IP13VisualSegmentNS_18__unwrap_iter_implIS2_Lb1EEELi0EEEDTclsrT0_8__unwrapclsr3stdE7declvalIT_EEEES6_, symObjAddr: 0x2968, symBinAddr: 0x100006D08, symSize: 0x24 }
  - { offsetInCU: 0x6693, offset: 0x2510C, size: 0x8, addend: 0x0, symName: __ZNSt3__113__rewrap_iterB8ue170006IP13VisualSegmentS2_NS_18__unwrap_iter_implIS2_Lb1EEEEET_S5_T0_, symObjAddr: 0x298C, symBinAddr: 0x100006D2C, symSize: 0x3C }
  - { offsetInCU: 0x67EA, offset: 0x25263, size: 0x8, addend: 0x0, symName: __ZNSt3__122__make_exception_guardB8ue170006INS_29_AllocatorDestroyRangeReverseINS_9allocatorI13VisualSegmentEEPS3_EEEENS_28__exception_guard_exceptionsIT_EES8_, symObjAddr: 0x2A90, symBinAddr: 0x100006E30, symSize: 0x4C }
  - { offsetInCU: 0x6847, offset: 0x252C0, size: 0x8, addend: 0x0, symName: __ZNSt3__112construct_atB8ue170006I13VisualSegmentJRS1_EPS1_EEPT_S5_DpOT0_, symObjAddr: 0x2C34, symBinAddr: 0x100006FD4, symSize: 0x3C }
  - { offsetInCU: 0x68B9, offset: 0x25332, size: 0x8, addend: 0x0, symName: __ZNSt3__119__allocator_destroyB8ue170006INS_9allocatorI13VisualSegmentEENS_16reverse_iteratorIPS2_EES6_EEvRT_T0_T1_, symObjAddr: 0x2D28, symBinAddr: 0x1000070C8, symSize: 0x70 }
  - { offsetInCU: 0x6920, offset: 0x25399, size: 0x8, addend: 0x0, symName: __ZNSt3__1neB8ue170006IP13VisualSegmentS2_EEbRKNS_16reverse_iteratorIT_EERKNS3_IT0_EE, symObjAddr: 0x2DCC, symBinAddr: 0x10000716C, symSize: 0x48 }
  - { offsetInCU: 0x696C, offset: 0x253E5, size: 0x8, addend: 0x0, symName: __ZNSt3__112__to_addressB8ue170006INS_16reverse_iteratorIP13VisualSegmentEEvEEu7__decayIDTclsr19__to_address_helperIT_EE6__callclsr3stdE7declvalIRKS5_EEEEES7_, symObjAddr: 0x2E3C, symBinAddr: 0x1000071DC, symSize: 0x24 }
  - { offsetInCU: 0x69A3, offset: 0x2541C, size: 0x8, addend: 0x0, symName: __ZNSt3__110destroy_atB8ue170006I13VisualSegmentLi0EEEvPT_, symObjAddr: 0x2E98, symBinAddr: 0x100007238, symSize: 0x24 }
  - { offsetInCU: 0x69DB, offset: 0x25454, size: 0x8, addend: 0x0, symName: __ZNSt3__112__destroy_atB8ue170006I13VisualSegmentLi0EEEvPT_, symObjAddr: 0x2EBC, symBinAddr: 0x10000725C, symSize: 0x24 }
  - { offsetInCU: 0x6A3D, offset: 0x254B6, size: 0x8, addend: 0x0, symName: __ZNSt3__14prevB8ue170006IP13VisualSegmentEENS_9enable_ifIXsr29__has_input_iterator_categoryIT_EE5valueES4_E4typeES4_NS_15iterator_traitsIS4_E15difference_typeE, symObjAddr: 0x2F9C, symBinAddr: 0x10000733C, symSize: 0x3C }
  - { offsetInCU: 0x6A80, offset: 0x254F9, size: 0x8, addend: 0x0, symName: __ZNSt3__19__advanceB8ue170006IP13VisualSegmentEEvRT_NS_15iterator_traitsIS3_E15difference_typeENS_26random_access_iterator_tagE, symObjAddr: 0x3010, symBinAddr: 0x1000073B0, symSize: 0x28 }
  - { offsetInCU: 0x6B1E, offset: 0x25597, size: 0x8, addend: 0x0, symName: __ZNSt3__120__throw_out_of_rangeB8ue170006EPKc, symObjAddr: 0x3450, symBinAddr: 0x1000077F0, symSize: 0x64 }
  - { offsetInCU: 0x6EF8, offset: 0x25971, size: 0x8, addend: 0x0, symName: __ZSt28__throw_bad_array_new_lengthB8ue170006v, symObjAddr: 0xE78, symBinAddr: 0x100005218, symSize: 0x34 }
  - { offsetInCU: 0x92CB, offset: 0x27D44, size: 0x8, addend: 0x0, symName: __ZN10RenderInfoC2ENSt3__16vectorINS1_I13VisualSegmentNS0_9allocatorIS2_EEEENS3_IS5_EEEES7_S5_iS5_8Positionb, symObjAddr: 0x0, symBinAddr: 0x1000043AC, symSize: 0x118 }
  - { offsetInCU: 0x935D, offset: 0x27DD6, size: 0x8, addend: 0x0, symName: __ZNSt3__16vectorINS0_I13VisualSegmentNS_9allocatorIS1_EEEENS2_IS4_EEEC1ERKS6_, symObjAddr: 0x118, symBinAddr: 0x1000044C4, symSize: 0x34 }
  - { offsetInCU: 0x9398, offset: 0x27E11, size: 0x8, addend: 0x0, symName: __ZNSt3__16vectorI13VisualSegmentNS_9allocatorIS1_EEEC1ERKS4_, symObjAddr: 0x14C, symBinAddr: 0x1000044F8, symSize: 0x34 }
  - { offsetInCU: 0x93D3, offset: 0x27E4C, size: 0x8, addend: 0x0, symName: __ZNSt3__16vectorI13VisualSegmentNS_9allocatorIS1_EEED1B8ue170006Ev, symObjAddr: 0x180, symBinAddr: 0x10000452C, symSize: 0x2C }
  - { offsetInCU: 0x93FB, offset: 0x27E74, size: 0x8, addend: 0x0, symName: __ZNSt3__16vectorINS0_I13VisualSegmentNS_9allocatorIS1_EEEENS2_IS4_EEED1B8ue170006Ev, symObjAddr: 0x1AC, symBinAddr: 0x100004558, symSize: 0x2C }
  - { offsetInCU: 0x9422, offset: 0x27E9B, size: 0x8, addend: 0x0, symName: __ZN10RenderInfoC1ENSt3__16vectorINS1_I13VisualSegmentNS0_9allocatorIS2_EEEENS3_IS5_EEEES7_S5_iS5_8Positionb, symObjAddr: 0x1D8, symBinAddr: 0x100004584, symSize: 0x70 }
  - { offsetInCU: 0x94B4, offset: 0x27F2D, size: 0x8, addend: 0x0, symName: __ZNK10RenderInfo14getTextAreaRowEi, symObjAddr: 0x248, symBinAddr: 0x1000045F4, symSize: 0x2C }
  - { offsetInCU: 0x94E9, offset: 0x27F62, size: 0x8, addend: 0x0, symName: __ZNKSt3__16vectorINS0_I13VisualSegmentNS_9allocatorIS1_EEEENS2_IS4_EEE2atEm, symObjAddr: 0x274, symBinAddr: 0x100004620, symSize: 0x68 }
  - { offsetInCU: 0x9520, offset: 0x27F99, size: 0x8, addend: 0x0, symName: __ZNK10RenderInfo19getTextAreaRowCountEv, symObjAddr: 0x2DC, symBinAddr: 0x100004688, symSize: 0x24 }
  - { offsetInCU: 0x9547, offset: 0x27FC0, size: 0x8, addend: 0x0, symName: __ZNKSt3__16vectorINS0_I13VisualSegmentNS_9allocatorIS1_EEEENS2_IS4_EEE4sizeB8ue170006Ev, symObjAddr: 0x300, symBinAddr: 0x1000046AC, symSize: 0x28 }
  - { offsetInCU: 0x956C, offset: 0x27FE5, size: 0x8, addend: 0x0, symName: __ZNK10RenderInfo11getPanelRowEi, symObjAddr: 0x328, symBinAddr: 0x1000046D4, symSize: 0x30 }
  - { offsetInCU: 0x95A1, offset: 0x2801A, size: 0x8, addend: 0x0, symName: __ZNK10RenderInfo16getPanelRowCountEv, symObjAddr: 0x358, symBinAddr: 0x100004704, symSize: 0x28 }
  - { offsetInCU: 0x95C8, offset: 0x28041, size: 0x8, addend: 0x0, symName: __ZNK10RenderInfo11getAsideRowEi, symObjAddr: 0x380, symBinAddr: 0x10000472C, symSize: 0x44 }
  - { offsetInCU: 0x95FD, offset: 0x28076, size: 0x8, addend: 0x0, symName: __ZNKSt3__16vectorI13VisualSegmentNS_9allocatorIS1_EEE2atEm, symObjAddr: 0x3C4, symBinAddr: 0x100004770, symSize: 0x60 }
  - { offsetInCU: 0x963D, offset: 0x280B6, size: 0x8, addend: 0x0, symName: __ZN13VisualSegmentC1ERKS_, symObjAddr: 0x424, symBinAddr: 0x1000047D0, symSize: 0x34 }
  - { offsetInCU: 0x9672, offset: 0x280EB, size: 0x8, addend: 0x0, symName: __ZNK10RenderInfo16getAsideRowCountEv, symObjAddr: 0x458, symBinAddr: 0x100004804, symSize: 0x28 }
  - { offsetInCU: 0x9699, offset: 0x28112, size: 0x8, addend: 0x0, symName: __ZNKSt3__16vectorI13VisualSegmentNS_9allocatorIS1_EEE4sizeB8ue170006Ev, symObjAddr: 0x480, symBinAddr: 0x10000482C, symSize: 0x28 }
  - { offsetInCU: 0x96BE, offset: 0x28137, size: 0x8, addend: 0x0, symName: __ZNK10RenderInfo13getAsideWidthEv, symObjAddr: 0x4A8, symBinAddr: 0x100004854, symSize: 0x18 }
  - { offsetInCU: 0x96E5, offset: 0x2815E, size: 0x8, addend: 0x0, symName: __ZNK10RenderInfo13getOverlayRowEi, symObjAddr: 0x4C0, symBinAddr: 0x10000486C, symSize: 0x44 }
  - { offsetInCU: 0x971A, offset: 0x28193, size: 0x8, addend: 0x0, symName: __ZNK10RenderInfo18getOverlayRowCountEv, symObjAddr: 0x504, symBinAddr: 0x1000048B0, symSize: 0x28 }
  - { offsetInCU: 0x9741, offset: 0x281BA, size: 0x8, addend: 0x0, symName: __ZNK10RenderInfo18shouldRenderColorsEv, symObjAddr: 0x52C, symBinAddr: 0x1000048D8, symSize: 0x1C }
  - { offsetInCU: 0x9768, offset: 0x281E1, size: 0x8, addend: 0x0, symName: __ZNK10RenderInfo17getCursorPositionEv, symObjAddr: 0x548, symBinAddr: 0x1000048F4, symSize: 0x18 }
  - { offsetInCU: 0x978E, offset: 0x28207, size: 0x8, addend: 0x0, symName: __ZNSt3__16vectorINS0_I13VisualSegmentNS_9allocatorIS1_EEEENS2_IS4_EEEC2ERKS6_, symObjAddr: 0x560, symBinAddr: 0x10000490C, symSize: 0x94 }
  - { offsetInCU: 0x97D3, offset: 0x2824C, size: 0x8, addend: 0x0, symName: __ZNSt3__116allocator_traitsINS_9allocatorINS_6vectorI13VisualSegmentNS1_IS3_EEEEEEE37select_on_container_copy_constructionB8ue170006IS6_vvEES6_RKS6_, symObjAddr: 0x5F4, symBinAddr: 0x1000049A0, symSize: 0x10 }
  - { offsetInCU: 0x9805, offset: 0x2827E, size: 0x8, addend: 0x0, symName: __ZNKSt3__16vectorINS0_I13VisualSegmentNS_9allocatorIS1_EEEENS2_IS4_EEE7__allocB8ue170006Ev, symObjAddr: 0x604, symBinAddr: 0x1000049B0, symSize: 0x28 }
  - { offsetInCU: 0x9834, offset: 0x282AD, size: 0x8, addend: 0x0, symName: __ZNSt3__117__compressed_pairIPNS_6vectorI13VisualSegmentNS_9allocatorIS2_EEEENS3_IS5_EEEC1B8ue170006IDnS7_EEOT_OT0_, symObjAddr: 0x62C, symBinAddr: 0x1000049D8, symSize: 0x3C }
  - { offsetInCU: 0x988A, offset: 0x28303, size: 0x8, addend: 0x0, symName: __ZNSt3__16vectorINS0_I13VisualSegmentNS_9allocatorIS1_EEEENS2_IS4_EEE16__init_with_sizeB8ue170006IPS4_S8_EEvT_T0_m, symObjAddr: 0x668, symBinAddr: 0x100004A14, symSize: 0xB8 }
  - { offsetInCU: 0x9901, offset: 0x2837A, size: 0x8, addend: 0x0, symName: __ZNKSt3__117__compressed_pairIPNS_6vectorI13VisualSegmentNS_9allocatorIS2_EEEENS3_IS5_EEE6secondB8ue170006Ev, symObjAddr: 0x720, symBinAddr: 0x100004ACC, symSize: 0x24 }
  - { offsetInCU: 0x9926, offset: 0x2839F, size: 0x8, addend: 0x0, symName: __ZNKSt3__122__compressed_pair_elemINS_9allocatorINS_6vectorI13VisualSegmentNS1_IS3_EEEEEELi1ELb1EE5__getB8ue170006Ev, symObjAddr: 0x744, symBinAddr: 0x100004AF0, symSize: 0x14 }
  - { offsetInCU: 0x994B, offset: 0x283C4, size: 0x8, addend: 0x0, symName: __ZNSt3__117__compressed_pairIPNS_6vectorI13VisualSegmentNS_9allocatorIS2_EEEENS3_IS5_EEEC2B8ue170006IDnS7_EEOT_OT0_, symObjAddr: 0x758, symBinAddr: 0x100004B04, symSize: 0x44 }
  - { offsetInCU: 0x99A1, offset: 0x2841A, size: 0x8, addend: 0x0, symName: __ZNSt3__122__compressed_pair_elemIPNS_6vectorI13VisualSegmentNS_9allocatorIS2_EEEELi0ELb0EEC2B8ue170006IDnvEEOT_, symObjAddr: 0x79C, symBinAddr: 0x100004B48, symSize: 0x1C }
  - { offsetInCU: 0x99E3, offset: 0x2845C, size: 0x8, addend: 0x0, symName: __ZNSt3__122__compressed_pair_elemINS_9allocatorINS_6vectorI13VisualSegmentNS1_IS3_EEEEEELi1ELb1EEC2B8ue170006IS6_vEEOT_, symObjAddr: 0x7B8, symBinAddr: 0x100004B64, symSize: 0x18 }
  - { offsetInCU: 0x9A25, offset: 0x2849E, size: 0x8, addend: 0x0, symName: __ZNSt3__16vectorINS0_I13VisualSegmentNS_9allocatorIS1_EEEENS2_IS4_EEE16__destroy_vectorC1B8ue170006ERS6_, symObjAddr: 0x810, symBinAddr: 0x100004BBC, symSize: 0x34 }
  - { offsetInCU: 0x9A5D, offset: 0x284D6, size: 0x8, addend: 0x0, symName: __ZNSt3__16vectorINS0_I13VisualSegmentNS_9allocatorIS1_EEEENS2_IS4_EEE11__vallocateB8ue170006Em, symObjAddr: 0x844, symBinAddr: 0x100004BF0, symSize: 0xB4 }
  - { offsetInCU: 0x9AA2, offset: 0x2851B, size: 0x8, addend: 0x0, symName: __ZNSt3__16vectorINS0_I13VisualSegmentNS_9allocatorIS1_EEEENS2_IS4_EEE18__construct_at_endIPS4_S8_EEvT_T0_m, symObjAddr: 0x8F8, symBinAddr: 0x100004CA4, symSize: 0x8C }
  - { offsetInCU: 0x9B1B, offset: 0x28594, size: 0x8, addend: 0x0, symName: __ZNSt3__128__exception_guard_exceptionsINS_6vectorINS1_I13VisualSegmentNS_9allocatorIS2_EEEENS3_IS5_EEE16__destroy_vectorEE10__completeB8ue170006Ev, symObjAddr: 0x984, symBinAddr: 0x100004D30, symSize: 0x1C }
  - { offsetInCU: 0x9B40, offset: 0x285B9, size: 0x8, addend: 0x0, symName: __ZNSt3__128__exception_guard_exceptionsINS_6vectorINS1_I13VisualSegmentNS_9allocatorIS2_EEEENS3_IS5_EEE16__destroy_vectorEED1B8ue170006Ev, symObjAddr: 0x9A0, symBinAddr: 0x100004D4C, symSize: 0x2C }
  - { offsetInCU: 0x9B68, offset: 0x285E1, size: 0x8, addend: 0x0, symName: __ZNSt3__128__exception_guard_exceptionsINS_6vectorINS1_I13VisualSegmentNS_9allocatorIS2_EEEENS3_IS5_EEE16__destroy_vectorEEC1B8ue170006ES8_, symObjAddr: 0x9CC, symBinAddr: 0x100004D78, symSize: 0x34 }
  - { offsetInCU: 0x9B9E, offset: 0x28617, size: 0x8, addend: 0x0, symName: __ZNSt3__128__exception_guard_exceptionsINS_6vectorINS1_I13VisualSegmentNS_9allocatorIS2_EEEENS3_IS5_EEE16__destroy_vectorEEC2B8ue170006ES8_, symObjAddr: 0xA00, symBinAddr: 0x100004DAC, symSize: 0x24 }
  - { offsetInCU: 0x9BD5, offset: 0x2864E, size: 0x8, addend: 0x0, symName: __ZNSt3__16vectorINS0_I13VisualSegmentNS_9allocatorIS1_EEEENS2_IS4_EEE16__destroy_vectorC2B8ue170006ERS6_, symObjAddr: 0xA24, symBinAddr: 0x100004DD0, symSize: 0x20 }
  - { offsetInCU: 0x9C0E, offset: 0x28687, size: 0x8, addend: 0x0, symName: __ZNKSt3__16vectorINS0_I13VisualSegmentNS_9allocatorIS1_EEEENS2_IS4_EEE8max_sizeEv, symObjAddr: 0xA44, symBinAddr: 0x100004DF0, symSize: 0x60 }
  - { offsetInCU: 0x9C35, offset: 0x286AE, size: 0x8, addend: 0x0, symName: __ZNKSt3__16vectorINS0_I13VisualSegmentNS_9allocatorIS1_EEEENS2_IS4_EEE20__throw_length_errorB8ue170006Ev, symObjAddr: 0xAA4, symBinAddr: 0x100004E50, symSize: 0x1C }
  - { offsetInCU: 0x9C5A, offset: 0x286D3, size: 0x8, addend: 0x0, symName: __ZNSt3__16vectorINS0_I13VisualSegmentNS_9allocatorIS1_EEEENS2_IS4_EEE7__allocB8ue170006Ev, symObjAddr: 0xB00, symBinAddr: 0x100004EAC, symSize: 0x28 }
  - { offsetInCU: 0x9C7F, offset: 0x286F8, size: 0x8, addend: 0x0, symName: __ZNSt3__16vectorINS0_I13VisualSegmentNS_9allocatorIS1_EEEENS2_IS4_EEE9__end_capB8ue170006Ev, symObjAddr: 0xB28, symBinAddr: 0x100004ED4, symSize: 0x28 }
  - { offsetInCU: 0x9CA4, offset: 0x2871D, size: 0x8, addend: 0x0, symName: __ZNKSt3__16vectorINS0_I13VisualSegmentNS_9allocatorIS1_EEEENS2_IS4_EEE14__annotate_newB8ue170006Em, symObjAddr: 0xB50, symBinAddr: 0x100004EFC, symSize: 0xC8 }
  - { offsetInCU: 0x9CD9, offset: 0x28752, size: 0x8, addend: 0x0, symName: __ZNSt3__116allocator_traitsINS_9allocatorINS_6vectorI13VisualSegmentNS1_IS3_EEEEEEE8max_sizeB8ue170006IS6_vvEEmRKS6_, symObjAddr: 0xC44, symBinAddr: 0x100004FF0, symSize: 0x28 }
  - { offsetInCU: 0x9D07, offset: 0x28780, size: 0x8, addend: 0x0, symName: __ZNSt3__114numeric_limitsIlE3maxB8ue170006Ev, symObjAddr: 0xC6C, symBinAddr: 0x100005018, symSize: 0x14 }
  - { offsetInCU: 0x9D2F, offset: 0x287A8, size: 0x8, addend: 0x0, symName: __ZNKSt3__16__lessIvvEclB8ue170006ImmEEbRKT_RKT0_, symObjAddr: 0xCE0, symBinAddr: 0x100005080, symSize: 0x34 }
  - { offsetInCU: 0x9D82, offset: 0x287FB, size: 0x8, addend: 0x0, symName: __ZNSt3__114numeric_limitsImE3maxB8ue170006Ev, symObjAddr: 0xD14, symBinAddr: 0x1000050B4, symSize: 0x14 }
  - { offsetInCU: 0x9D96, offset: 0x2880F, size: 0x8, addend: 0x0, symName: __ZNSt3__123__libcpp_numeric_limitsImLb1EE3maxB8ue170006Ev, symObjAddr: 0xD28, symBinAddr: 0x1000050C8, symSize: 0x8 }
  - { offsetInCU: 0x9DAA, offset: 0x28823, size: 0x8, addend: 0x0, symName: __ZNSt3__123__libcpp_numeric_limitsIlLb1EE3maxB8ue170006Ev, symObjAddr: 0xD30, symBinAddr: 0x1000050D0, symSize: 0x8 }
  - { offsetInCU: 0x9DBE, offset: 0x28837, size: 0x8, addend: 0x0, symName: __ZNSt12length_errorC1B8ue170006EPKc, symObjAddr: 0xD9C, symBinAddr: 0x10000513C, symSize: 0x34 }
  - { offsetInCU: 0x9DF4, offset: 0x2886D, size: 0x8, addend: 0x0, symName: __ZNSt12length_errorC2B8ue170006EPKc, symObjAddr: 0xDD0, symBinAddr: 0x100005170, symSize: 0x4C }
  - { offsetInCU: 0x9E2A, offset: 0x288A3, size: 0x8, addend: 0x0, symName: __ZNSt3__19allocatorINS_6vectorI13VisualSegmentNS0_IS2_EEEEE8allocateB8ue170006Em, symObjAddr: 0xE1C, symBinAddr: 0x1000051BC, symSize: 0x5C }
  - { offsetInCU: 0x9E5D, offset: 0x288D6, size: 0x8, addend: 0x0, symName: __ZNSt3__117__compressed_pairIPNS_6vectorI13VisualSegmentNS_9allocatorIS2_EEEENS3_IS5_EEE6secondB8ue170006Ev, symObjAddr: 0xF7C, symBinAddr: 0x10000531C, symSize: 0x24 }
  - { offsetInCU: 0x9E82, offset: 0x288FB, size: 0x8, addend: 0x0, symName: __ZNSt3__122__compressed_pair_elemINS_9allocatorINS_6vectorI13VisualSegmentNS1_IS3_EEEEEELi1ELb1EE5__getB8ue170006Ev, symObjAddr: 0xFA0, symBinAddr: 0x100005340, symSize: 0x14 }
  - { offsetInCU: 0x9EA7, offset: 0x28920, size: 0x8, addend: 0x0, symName: __ZNSt3__117__compressed_pairIPNS_6vectorI13VisualSegmentNS_9allocatorIS2_EEEENS3_IS5_EEE5firstB8ue170006Ev, symObjAddr: 0xFB4, symBinAddr: 0x100005354, symSize: 0x24 }
  - { offsetInCU: 0x9ECC, offset: 0x28945, size: 0x8, addend: 0x0, symName: __ZNSt3__122__compressed_pair_elemIPNS_6vectorI13VisualSegmentNS_9allocatorIS2_EEEELi0ELb0EE5__getB8ue170006Ev, symObjAddr: 0xFD8, symBinAddr: 0x100005378, symSize: 0x14 }
  - { offsetInCU: 0x9EF1, offset: 0x2896A, size: 0x8, addend: 0x0, symName: __ZNKSt3__16vectorINS0_I13VisualSegmentNS_9allocatorIS1_EEEENS2_IS4_EEE31__annotate_contiguous_containerB8ue170006EPKvS8_S8_S8_, symObjAddr: 0xFEC, symBinAddr: 0x10000538C, symSize: 0x20 }
  - { offsetInCU: 0x9F46, offset: 0x289BF, size: 0x8, addend: 0x0, symName: __ZNKSt3__16vectorINS0_I13VisualSegmentNS_9allocatorIS1_EEEENS2_IS4_EEE4dataB8ue170006Ev, symObjAddr: 0x100C, symBinAddr: 0x1000053AC, symSize: 0x28 }
  - { offsetInCU: 0x9F6B, offset: 0x289E4, size: 0x8, addend: 0x0, symName: __ZNKSt3__16vectorINS0_I13VisualSegmentNS_9allocatorIS1_EEEENS2_IS4_EEE8capacityB8ue170006Ev, symObjAddr: 0x1034, symBinAddr: 0x1000053D4, symSize: 0x40 }
  - { offsetInCU: 0x9F90, offset: 0x28A09, size: 0x8, addend: 0x0, symName: __ZNKSt3__16vectorINS0_I13VisualSegmentNS_9allocatorIS1_EEEENS2_IS4_EEE9__end_capB8ue170006Ev, symObjAddr: 0x1088, symBinAddr: 0x100005428, symSize: 0x28 }
  - { offsetInCU: 0x9FB5, offset: 0x28A2E, size: 0x8, addend: 0x0, symName: __ZNKSt3__117__compressed_pairIPNS_6vectorI13VisualSegmentNS_9allocatorIS2_EEEENS3_IS5_EEE5firstB8ue170006Ev, symObjAddr: 0x10B0, symBinAddr: 0x100005450, symSize: 0x24 }
  - { offsetInCU: 0x9FDA, offset: 0x28A53, size: 0x8, addend: 0x0, symName: __ZNKSt3__122__compressed_pair_elemIPNS_6vectorI13VisualSegmentNS_9allocatorIS2_EEEELi0ELb0EE5__getB8ue170006Ev, symObjAddr: 0x10D4, symBinAddr: 0x100005474, symSize: 0x14 }
  - { offsetInCU: 0xA018, offset: 0x28A91, size: 0x8, addend: 0x0, symName: __ZNSt3__16vectorINS0_I13VisualSegmentNS_9allocatorIS1_EEEENS2_IS4_EEE21_ConstructTransactionC1B8ue170006ERS6_m, symObjAddr: 0x10E8, symBinAddr: 0x100005488, symSize: 0x3C }
  - { offsetInCU: 0xA060, offset: 0x28AD9, size: 0x8, addend: 0x0, symName: __ZNSt3__16vectorINS0_I13VisualSegmentNS_9allocatorIS1_EEEENS2_IS4_EEE21_ConstructTransactionD1B8ue170006Ev, symObjAddr: 0x11A4, symBinAddr: 0x100005544, symSize: 0x2C }
  - { offsetInCU: 0xA088, offset: 0x28B01, size: 0x8, addend: 0x0, symName: __ZNSt3__16vectorINS0_I13VisualSegmentNS_9allocatorIS1_EEEENS2_IS4_EEE21_ConstructTransactionC2B8ue170006ERS6_m, symObjAddr: 0x11D0, symBinAddr: 0x100005570, symSize: 0x4C }
  - { offsetInCU: 0xA0EA, offset: 0x28B63, size: 0x8, addend: 0x0, symName: __ZNSt3__119__unwrap_range_implIPNS_6vectorI13VisualSegmentNS_9allocatorIS2_EEEES6_E8__unwrapB8ue170006ES6_S6_, symObjAddr: 0x13AC, symBinAddr: 0x10000574C, symSize: 0x58 }
  - { offsetInCU: 0xA120, offset: 0x28B99, size: 0x8, addend: 0x0, symName: __ZNSt3__14pairIPNS_6vectorI13VisualSegmentNS_9allocatorIS2_EEEES6_EC1B8ue170006IS6_S6_LPv0EEEOT_OT0_, symObjAddr: 0x1404, symBinAddr: 0x1000057A4, symSize: 0x3C }
  - { offsetInCU: 0xA17C, offset: 0x28BF5, size: 0x8, addend: 0x0, symName: __ZNSt3__14pairIPNS_6vectorI13VisualSegmentNS_9allocatorIS2_EEEES6_EC2B8ue170006IS6_S6_LPv0EEEOT_OT0_, symObjAddr: 0x1440, symBinAddr: 0x1000057E0, symSize: 0x34 }
  - { offsetInCU: 0xA1D9, offset: 0x28C52, size: 0x8, addend: 0x0, symName: __ZNSt3__129_AllocatorDestroyRangeReverseINS_9allocatorINS_6vectorI13VisualSegmentNS1_IS3_EEEEEEPS5_EC1B8ue170006ERS6_RS7_SA_, symObjAddr: 0x14C0, symBinAddr: 0x100005860, symSize: 0x44 }
  - { offsetInCU: 0xA231, offset: 0x28CAA, size: 0x8, addend: 0x0, symName: __ZNSt3__116allocator_traitsINS_9allocatorINS_6vectorI13VisualSegmentNS1_IS3_EEEEEEE9constructB8ue170006IS5_JRS5_EvvEEvRS6_PT_DpOT0_, symObjAddr: 0x1504, symBinAddr: 0x1000058A4, symSize: 0x30 }
  - { offsetInCU: 0xA28A, offset: 0x28D03, size: 0x8, addend: 0x0, symName: __ZNSt3__128__exception_guard_exceptionsINS_29_AllocatorDestroyRangeReverseINS_9allocatorINS_6vectorI13VisualSegmentNS2_IS4_EEEEEEPS6_EEE10__completeB8ue170006Ev, symObjAddr: 0x1534, symBinAddr: 0x1000058D4, symSize: 0x1C }
  - { offsetInCU: 0xA2AF, offset: 0x28D28, size: 0x8, addend: 0x0, symName: __ZNSt3__128__exception_guard_exceptionsINS_29_AllocatorDestroyRangeReverseINS_9allocatorINS_6vectorI13VisualSegmentNS2_IS4_EEEEEEPS6_EEED1B8ue170006Ev, symObjAddr: 0x1550, symBinAddr: 0x1000058F0, symSize: 0x2C }
  - { offsetInCU: 0xA2D7, offset: 0x28D50, size: 0x8, addend: 0x0, symName: __ZNSt3__128__exception_guard_exceptionsINS_29_AllocatorDestroyRangeReverseINS_9allocatorINS_6vectorI13VisualSegmentNS2_IS4_EEEEEEPS6_EEEC1B8ue170006ES9_, symObjAddr: 0x157C, symBinAddr: 0x10000591C, symSize: 0x34 }
  - { offsetInCU: 0xA30E, offset: 0x28D87, size: 0x8, addend: 0x0, symName: __ZNSt3__128__exception_guard_exceptionsINS_29_AllocatorDestroyRangeReverseINS_9allocatorINS_6vectorI13VisualSegmentNS2_IS4_EEEEEEPS6_EEEC2B8ue170006ES9_, symObjAddr: 0x15B0, symBinAddr: 0x100005950, symSize: 0x30 }
  - { offsetInCU: 0xA346, offset: 0x28DBF, size: 0x8, addend: 0x0, symName: __ZNSt3__129_AllocatorDestroyRangeReverseINS_9allocatorINS_6vectorI13VisualSegmentNS1_IS3_EEEEEEPS5_EC2B8ue170006ERS6_RS7_SA_, symObjAddr: 0x15E0, symBinAddr: 0x100005980, symSize: 0x38 }
  - { offsetInCU: 0xA39F, offset: 0x28E18, size: 0x8, addend: 0x0, symName: __ZNSt3__128__exception_guard_exceptionsINS_29_AllocatorDestroyRangeReverseINS_9allocatorINS_6vectorI13VisualSegmentNS2_IS4_EEEEEEPS6_EEED2B8ue170006Ev, symObjAddr: 0x1654, symBinAddr: 0x1000059F4, symSize: 0x50 }
  - { offsetInCU: 0xA3C7, offset: 0x28E40, size: 0x8, addend: 0x0, symName: __ZNKSt3__129_AllocatorDestroyRangeReverseINS_9allocatorINS_6vectorI13VisualSegmentNS1_IS3_EEEEEEPS5_EclB8ue170006Ev, symObjAddr: 0x16A4, symBinAddr: 0x100005A44, symSize: 0x68 }
  - { offsetInCU: 0xA3EC, offset: 0x28E65, size: 0x8, addend: 0x0, symName: __ZNSt3__116reverse_iteratorIPNS_6vectorI13VisualSegmentNS_9allocatorIS2_EEEEEC1B8ue170006ES6_, symObjAddr: 0x177C, symBinAddr: 0x100005B1C, symSize: 0x34 }
  - { offsetInCU: 0xA422, offset: 0x28E9B, size: 0x8, addend: 0x0, symName: __ZNSt3__116allocator_traitsINS_9allocatorINS_6vectorI13VisualSegmentNS1_IS3_EEEEEEE7destroyB8ue170006IS5_vvEEvRS6_PT_, symObjAddr: 0x17F8, symBinAddr: 0x100005B98, symSize: 0x28 }
  - { offsetInCU: 0xA460, offset: 0x28ED9, size: 0x8, addend: 0x0, symName: __ZNSt3__116reverse_iteratorIPNS_6vectorI13VisualSegmentNS_9allocatorIS2_EEEEEppB8ue170006Ev, symObjAddr: 0x1844, symBinAddr: 0x100005BE4, symSize: 0x20 }
  - { offsetInCU: 0xA485, offset: 0x28EFE, size: 0x8, addend: 0x0, symName: __ZNKSt3__116reverse_iteratorIPNS_6vectorI13VisualSegmentNS_9allocatorIS2_EEEEE4baseB8ue170006Ev, symObjAddr: 0x1864, symBinAddr: 0x100005C04, symSize: 0x18 }
  - { offsetInCU: 0xA4AF, offset: 0x28F28, size: 0x8, addend: 0x0, symName: __ZNSt3__119__to_address_helperINS_16reverse_iteratorIPNS_6vectorI13VisualSegmentNS_9allocatorIS3_EEEEEEvE6__callB8ue170006ERKS8_, symObjAddr: 0x18C4, symBinAddr: 0x100005C64, symSize: 0x38 }
  - { offsetInCU: 0xA4D2, offset: 0x28F4B, size: 0x8, addend: 0x0, symName: __ZNKSt3__116reverse_iteratorIPNS_6vectorI13VisualSegmentNS_9allocatorIS2_EEEEEptB8ue170006Ev, symObjAddr: 0x18FC, symBinAddr: 0x100005C9C, symSize: 0x2C }
  - { offsetInCU: 0xA4F7, offset: 0x28F70, size: 0x8, addend: 0x0, symName: __ZNSt3__116reverse_iteratorIPNS_6vectorI13VisualSegmentNS_9allocatorIS2_EEEEEC2B8ue170006ES6_, symObjAddr: 0x19E0, symBinAddr: 0x100005D80, symSize: 0x28 }
  - { offsetInCU: 0xA52E, offset: 0x28FA7, size: 0x8, addend: 0x0, symName: __ZNSt3__118__unwrap_iter_implIPNS_6vectorI13VisualSegmentNS_9allocatorIS2_EEEELb1EE8__unwrapB8ue170006ES6_, symObjAddr: 0x1A08, symBinAddr: 0x100005DA8, symSize: 0x24 }
  - { offsetInCU: 0xA551, offset: 0x28FCA, size: 0x8, addend: 0x0, symName: __ZNSt3__118__unwrap_iter_implIPNS_6vectorI13VisualSegmentNS_9allocatorIS2_EEEELb1EE8__rewrapB8ue170006ES6_S6_, symObjAddr: 0x1A2C, symBinAddr: 0x100005DCC, symSize: 0x58 }
  - { offsetInCU: 0xA582, offset: 0x28FFB, size: 0x8, addend: 0x0, symName: __ZNSt3__16vectorINS0_I13VisualSegmentNS_9allocatorIS1_EEEENS2_IS4_EEE21_ConstructTransactionD2B8ue170006Ev, symObjAddr: 0x1A84, symBinAddr: 0x100005E24, symSize: 0x20 }
  - { offsetInCU: 0xA5AB, offset: 0x29024, size: 0x8, addend: 0x0, symName: __ZNSt3__128__exception_guard_exceptionsINS_6vectorINS1_I13VisualSegmentNS_9allocatorIS2_EEEENS3_IS5_EEE16__destroy_vectorEED2B8ue170006Ev, symObjAddr: 0x1AA4, symBinAddr: 0x100005E44, symSize: 0x50 }
  - { offsetInCU: 0xA5D3, offset: 0x2904C, size: 0x8, addend: 0x0, symName: __ZNSt3__16vectorINS0_I13VisualSegmentNS_9allocatorIS1_EEEENS2_IS4_EEE16__destroy_vectorclB8ue170006Ev, symObjAddr: 0x1AF4, symBinAddr: 0x100005E94, symSize: 0x90 }
  - { offsetInCU: 0xA5F8, offset: 0x29071, size: 0x8, addend: 0x0, symName: __ZNSt3__16vectorINS0_I13VisualSegmentNS_9allocatorIS1_EEEENS2_IS4_EEE7__clearB8ue170006Ev, symObjAddr: 0x1B84, symBinAddr: 0x100005F24, symSize: 0x28 }
  - { offsetInCU: 0xA61D, offset: 0x29096, size: 0x8, addend: 0x0, symName: __ZNKSt3__16vectorINS0_I13VisualSegmentNS_9allocatorIS1_EEEENS2_IS4_EEE17__annotate_deleteB8ue170006Ev, symObjAddr: 0x1BAC, symBinAddr: 0x100005F4C, symSize: 0xD4 }
  - { offsetInCU: 0xA642, offset: 0x290BB, size: 0x8, addend: 0x0, symName: __ZNSt3__116allocator_traitsINS_9allocatorINS_6vectorI13VisualSegmentNS1_IS3_EEEEEEE10deallocateB8ue170006ERS6_PS5_m, symObjAddr: 0x1C80, symBinAddr: 0x100006020, symSize: 0x34 }
  - { offsetInCU: 0xA687, offset: 0x29100, size: 0x8, addend: 0x0, symName: __ZNSt3__16vectorINS0_I13VisualSegmentNS_9allocatorIS1_EEEENS2_IS4_EEE22__base_destruct_at_endB8ue170006EPS4_, symObjAddr: 0x1CB4, symBinAddr: 0x100006054, symSize: 0x8C }
  - { offsetInCU: 0xA6CC, offset: 0x29145, size: 0x8, addend: 0x0, symName: __ZNSt3__19allocatorINS_6vectorI13VisualSegmentNS0_IS2_EEEEE10deallocateB8ue170006EPS4_m, symObjAddr: 0x1D40, symBinAddr: 0x1000060E0, symSize: 0x44 }
  - { offsetInCU: 0xA70D, offset: 0x29186, size: 0x8, addend: 0x0, symName: __ZNSt3__16vectorI13VisualSegmentNS_9allocatorIS1_EEEC2ERKS4_, symObjAddr: 0x1E8C, symBinAddr: 0x10000622C, symSize: 0x94 }
  - { offsetInCU: 0xA752, offset: 0x291CB, size: 0x8, addend: 0x0, symName: __ZNSt3__116allocator_traitsINS_9allocatorI13VisualSegmentEEE37select_on_container_copy_constructionB8ue170006IS3_vvEES3_RKS3_, symObjAddr: 0x1F20, symBinAddr: 0x1000062C0, symSize: 0x10 }
  - { offsetInCU: 0xA784, offset: 0x291FD, size: 0x8, addend: 0x0, symName: __ZNKSt3__16vectorI13VisualSegmentNS_9allocatorIS1_EEE7__allocB8ue170006Ev, symObjAddr: 0x1F30, symBinAddr: 0x1000062D0, symSize: 0x28 }
  - { offsetInCU: 0xA7AE, offset: 0x29227, size: 0x8, addend: 0x0, symName: __ZNSt3__117__compressed_pairIP13VisualSegmentNS_9allocatorIS1_EEEC1B8ue170006IDnS4_EEOT_OT0_, symObjAddr: 0x1F58, symBinAddr: 0x1000062F8, symSize: 0x3C }
  - { offsetInCU: 0xA804, offset: 0x2927D, size: 0x8, addend: 0x0, symName: __ZNSt3__16vectorI13VisualSegmentNS_9allocatorIS1_EEE16__init_with_sizeB8ue170006IPS1_S6_EEvT_T0_m, symObjAddr: 0x1F94, symBinAddr: 0x100006334, symSize: 0xB8 }
  - { offsetInCU: 0xA87B, offset: 0x292F4, size: 0x8, addend: 0x0, symName: __ZNKSt3__117__compressed_pairIP13VisualSegmentNS_9allocatorIS1_EEE6secondB8ue170006Ev, symObjAddr: 0x204C, symBinAddr: 0x1000063EC, symSize: 0x24 }
  - { offsetInCU: 0xA8A0, offset: 0x29319, size: 0x8, addend: 0x0, symName: __ZNKSt3__122__compressed_pair_elemINS_9allocatorI13VisualSegmentEELi1ELb1EE5__getB8ue170006Ev, symObjAddr: 0x2070, symBinAddr: 0x100006410, symSize: 0x14 }
  - { offsetInCU: 0xA8C5, offset: 0x2933E, size: 0x8, addend: 0x0, symName: __ZNSt3__117__compressed_pairIP13VisualSegmentNS_9allocatorIS1_EEEC2B8ue170006IDnS4_EEOT_OT0_, symObjAddr: 0x2084, symBinAddr: 0x100006424, symSize: 0x44 }
  - { offsetInCU: 0xA91B, offset: 0x29394, size: 0x8, addend: 0x0, symName: __ZNSt3__122__compressed_pair_elemIP13VisualSegmentLi0ELb0EEC2B8ue170006IDnvEEOT_, symObjAddr: 0x20C8, symBinAddr: 0x100006468, symSize: 0x1C }
  - { offsetInCU: 0xA95D, offset: 0x293D6, size: 0x8, addend: 0x0, symName: __ZNSt3__122__compressed_pair_elemINS_9allocatorI13VisualSegmentEELi1ELb1EEC2B8ue170006IS3_vEEOT_, symObjAddr: 0x20E4, symBinAddr: 0x100006484, symSize: 0x18 }
  - { offsetInCU: 0xA99F, offset: 0x29418, size: 0x8, addend: 0x0, symName: __ZNSt3__16vectorI13VisualSegmentNS_9allocatorIS1_EEE16__destroy_vectorC1B8ue170006ERS4_, symObjAddr: 0x213C, symBinAddr: 0x1000064DC, symSize: 0x34 }
  - { offsetInCU: 0xA9D7, offset: 0x29450, size: 0x8, addend: 0x0, symName: __ZNSt3__16vectorI13VisualSegmentNS_9allocatorIS1_EEE11__vallocateB8ue170006Em, symObjAddr: 0x2170, symBinAddr: 0x100006510, symSize: 0xAC }
  - { offsetInCU: 0xAA1C, offset: 0x29495, size: 0x8, addend: 0x0, symName: __ZNSt3__16vectorI13VisualSegmentNS_9allocatorIS1_EEE18__construct_at_endIPS1_S6_EEvT_T0_m, symObjAddr: 0x221C, symBinAddr: 0x1000065BC, symSize: 0x8C }
  - { offsetInCU: 0xAA95, offset: 0x2950E, size: 0x8, addend: 0x0, symName: __ZNSt3__128__exception_guard_exceptionsINS_6vectorI13VisualSegmentNS_9allocatorIS2_EEE16__destroy_vectorEE10__completeB8ue170006Ev, symObjAddr: 0x22A8, symBinAddr: 0x100006648, symSize: 0x1C }
  - { offsetInCU: 0xAABA, offset: 0x29533, size: 0x8, addend: 0x0, symName: __ZNSt3__128__exception_guard_exceptionsINS_6vectorI13VisualSegmentNS_9allocatorIS2_EEE16__destroy_vectorEED1B8ue170006Ev, symObjAddr: 0x22C4, symBinAddr: 0x100006664, symSize: 0x2C }
  - { offsetInCU: 0xAAE2, offset: 0x2955B, size: 0x8, addend: 0x0, symName: __ZNSt3__128__exception_guard_exceptionsINS_6vectorI13VisualSegmentNS_9allocatorIS2_EEE16__destroy_vectorEEC1B8ue170006ES6_, symObjAddr: 0x22F0, symBinAddr: 0x100006690, symSize: 0x34 }
  - { offsetInCU: 0xAB18, offset: 0x29591, size: 0x8, addend: 0x0, symName: __ZNSt3__128__exception_guard_exceptionsINS_6vectorI13VisualSegmentNS_9allocatorIS2_EEE16__destroy_vectorEEC2B8ue170006ES6_, symObjAddr: 0x2324, symBinAddr: 0x1000066C4, symSize: 0x24 }
  - { offsetInCU: 0xAB4F, offset: 0x295C8, size: 0x8, addend: 0x0, symName: __ZNSt3__16vectorI13VisualSegmentNS_9allocatorIS1_EEE16__destroy_vectorC2B8ue170006ERS4_, symObjAddr: 0x2348, symBinAddr: 0x1000066E8, symSize: 0x20 }
  - { offsetInCU: 0xAB88, offset: 0x29601, size: 0x8, addend: 0x0, symName: __ZNKSt3__16vectorI13VisualSegmentNS_9allocatorIS1_EEE8max_sizeEv, symObjAddr: 0x2368, symBinAddr: 0x100006708, symSize: 0x60 }
  - { offsetInCU: 0xABAF, offset: 0x29628, size: 0x8, addend: 0x0, symName: __ZNKSt3__16vectorI13VisualSegmentNS_9allocatorIS1_EEE20__throw_length_errorB8ue170006Ev, symObjAddr: 0x23C8, symBinAddr: 0x100006768, symSize: 0x1C }
  - { offsetInCU: 0xABD4, offset: 0x2964D, size: 0x8, addend: 0x0, symName: __ZNSt3__16vectorI13VisualSegmentNS_9allocatorIS1_EEE7__allocB8ue170006Ev, symObjAddr: 0x2424, symBinAddr: 0x1000067C4, symSize: 0x28 }
  - { offsetInCU: 0xABF9, offset: 0x29672, size: 0x8, addend: 0x0, symName: __ZNSt3__16vectorI13VisualSegmentNS_9allocatorIS1_EEE9__end_capB8ue170006Ev, symObjAddr: 0x244C, symBinAddr: 0x1000067EC, symSize: 0x28 }
  - { offsetInCU: 0xAC1E, offset: 0x29697, size: 0x8, addend: 0x0, symName: __ZNKSt3__16vectorI13VisualSegmentNS_9allocatorIS1_EEE14__annotate_newB8ue170006Em, symObjAddr: 0x2474, symBinAddr: 0x100006814, symSize: 0xAC }
  - { offsetInCU: 0xAC53, offset: 0x296CC, size: 0x8, addend: 0x0, symName: __ZNSt3__116allocator_traitsINS_9allocatorI13VisualSegmentEEE8max_sizeB8ue170006IS3_vvEEmRKS3_, symObjAddr: 0x2520, symBinAddr: 0x1000068C0, symSize: 0x28 }
  - { offsetInCU: 0xAC81, offset: 0x296FA, size: 0x8, addend: 0x0, symName: __ZNSt3__19allocatorI13VisualSegmentE8allocateB8ue170006Em, symObjAddr: 0x2548, symBinAddr: 0x1000068E8, symSize: 0x58 }
  - { offsetInCU: 0xACB4, offset: 0x2972D, size: 0x8, addend: 0x0, symName: __ZNSt3__117__compressed_pairIP13VisualSegmentNS_9allocatorIS1_EEE6secondB8ue170006Ev, symObjAddr: 0x25A0, symBinAddr: 0x100006940, symSize: 0x24 }
  - { offsetInCU: 0xACD9, offset: 0x29752, size: 0x8, addend: 0x0, symName: __ZNSt3__122__compressed_pair_elemINS_9allocatorI13VisualSegmentEELi1ELb1EE5__getB8ue170006Ev, symObjAddr: 0x25C4, symBinAddr: 0x100006964, symSize: 0x14 }
  - { offsetInCU: 0xACFE, offset: 0x29777, size: 0x8, addend: 0x0, symName: __ZNSt3__117__compressed_pairIP13VisualSegmentNS_9allocatorIS1_EEE5firstB8ue170006Ev, symObjAddr: 0x25D8, symBinAddr: 0x100006978, symSize: 0x24 }
  - { offsetInCU: 0xAD23, offset: 0x2979C, size: 0x8, addend: 0x0, symName: __ZNSt3__122__compressed_pair_elemIP13VisualSegmentLi0ELb0EE5__getB8ue170006Ev, symObjAddr: 0x25FC, symBinAddr: 0x10000699C, symSize: 0x14 }
  - { offsetInCU: 0xAD48, offset: 0x297C1, size: 0x8, addend: 0x0, symName: __ZNKSt3__16vectorI13VisualSegmentNS_9allocatorIS1_EEE31__annotate_contiguous_containerB8ue170006EPKvS6_S6_S6_, symObjAddr: 0x2610, symBinAddr: 0x1000069B0, symSize: 0x20 }
  - { offsetInCU: 0xAD9D, offset: 0x29816, size: 0x8, addend: 0x0, symName: __ZNKSt3__16vectorI13VisualSegmentNS_9allocatorIS1_EEE4dataB8ue170006Ev, symObjAddr: 0x2630, symBinAddr: 0x1000069D0, symSize: 0x28 }
  - { offsetInCU: 0xADC2, offset: 0x2983B, size: 0x8, addend: 0x0, symName: __ZNKSt3__16vectorI13VisualSegmentNS_9allocatorIS1_EEE8capacityB8ue170006Ev, symObjAddr: 0x2658, symBinAddr: 0x1000069F8, symSize: 0x40 }
  - { offsetInCU: 0xADE7, offset: 0x29860, size: 0x8, addend: 0x0, symName: __ZNKSt3__16vectorI13VisualSegmentNS_9allocatorIS1_EEE9__end_capB8ue170006Ev, symObjAddr: 0x26AC, symBinAddr: 0x100006A4C, symSize: 0x28 }
  - { offsetInCU: 0xAE0C, offset: 0x29885, size: 0x8, addend: 0x0, symName: __ZNKSt3__117__compressed_pairIP13VisualSegmentNS_9allocatorIS1_EEE5firstB8ue170006Ev, symObjAddr: 0x26D4, symBinAddr: 0x100006A74, symSize: 0x24 }
  - { offsetInCU: 0xAE31, offset: 0x298AA, size: 0x8, addend: 0x0, symName: __ZNKSt3__122__compressed_pair_elemIP13VisualSegmentLi0ELb0EE5__getB8ue170006Ev, symObjAddr: 0x26F8, symBinAddr: 0x100006A98, symSize: 0x14 }
  - { offsetInCU: 0xAE6F, offset: 0x298E8, size: 0x8, addend: 0x0, symName: __ZNSt3__16vectorI13VisualSegmentNS_9allocatorIS1_EEE21_ConstructTransactionC1B8ue170006ERS4_m, symObjAddr: 0x270C, symBinAddr: 0x100006AAC, symSize: 0x3C }
  - { offsetInCU: 0xAEB7, offset: 0x29930, size: 0x8, addend: 0x0, symName: __ZNSt3__16vectorI13VisualSegmentNS_9allocatorIS1_EEE21_ConstructTransactionD1B8ue170006Ev, symObjAddr: 0x27C8, symBinAddr: 0x100006B68, symSize: 0x2C }
  - { offsetInCU: 0xAEDF, offset: 0x29958, size: 0x8, addend: 0x0, symName: __ZNSt3__16vectorI13VisualSegmentNS_9allocatorIS1_EEE21_ConstructTransactionC2B8ue170006ERS4_m, symObjAddr: 0x27F4, symBinAddr: 0x100006B94, symSize: 0x44 }
  - { offsetInCU: 0xAF41, offset: 0x299BA, size: 0x8, addend: 0x0, symName: __ZNSt3__119__unwrap_range_implIP13VisualSegmentS2_E8__unwrapB8ue170006ES2_S2_, symObjAddr: 0x29C8, symBinAddr: 0x100006D68, symSize: 0x58 }
  - { offsetInCU: 0xAF77, offset: 0x299F0, size: 0x8, addend: 0x0, symName: __ZNSt3__14pairIP13VisualSegmentS2_EC1B8ue170006IS2_S2_LPv0EEEOT_OT0_, symObjAddr: 0x2A20, symBinAddr: 0x100006DC0, symSize: 0x3C }
  - { offsetInCU: 0xAFD3, offset: 0x29A4C, size: 0x8, addend: 0x0, symName: __ZNSt3__14pairIP13VisualSegmentS2_EC2B8ue170006IS2_S2_LPv0EEEOT_OT0_, symObjAddr: 0x2A5C, symBinAddr: 0x100006DFC, symSize: 0x34 }
  - { offsetInCU: 0xB030, offset: 0x29AA9, size: 0x8, addend: 0x0, symName: __ZNSt3__129_AllocatorDestroyRangeReverseINS_9allocatorI13VisualSegmentEEPS2_EC1B8ue170006ERS3_RS4_S7_, symObjAddr: 0x2ADC, symBinAddr: 0x100006E7C, symSize: 0x44 }
  - { offsetInCU: 0xB088, offset: 0x29B01, size: 0x8, addend: 0x0, symName: __ZNSt3__116allocator_traitsINS_9allocatorI13VisualSegmentEEE9constructB8ue170006IS2_JRS2_EvvEEvRS3_PT_DpOT0_, symObjAddr: 0x2B20, symBinAddr: 0x100006EC0, symSize: 0x30 }
  - { offsetInCU: 0xB0E1, offset: 0x29B5A, size: 0x8, addend: 0x0, symName: __ZNSt3__128__exception_guard_exceptionsINS_29_AllocatorDestroyRangeReverseINS_9allocatorI13VisualSegmentEEPS3_EEE10__completeB8ue170006Ev, symObjAddr: 0x2B50, symBinAddr: 0x100006EF0, symSize: 0x1C }
  - { offsetInCU: 0xB106, offset: 0x29B7F, size: 0x8, addend: 0x0, symName: __ZNSt3__128__exception_guard_exceptionsINS_29_AllocatorDestroyRangeReverseINS_9allocatorI13VisualSegmentEEPS3_EEED1B8ue170006Ev, symObjAddr: 0x2B6C, symBinAddr: 0x100006F0C, symSize: 0x2C }
  - { offsetInCU: 0xB12E, offset: 0x29BA7, size: 0x8, addend: 0x0, symName: __ZNSt3__128__exception_guard_exceptionsINS_29_AllocatorDestroyRangeReverseINS_9allocatorI13VisualSegmentEEPS3_EEEC1B8ue170006ES6_, symObjAddr: 0x2B98, symBinAddr: 0x100006F38, symSize: 0x34 }
  - { offsetInCU: 0xB165, offset: 0x29BDE, size: 0x8, addend: 0x0, symName: __ZNSt3__128__exception_guard_exceptionsINS_29_AllocatorDestroyRangeReverseINS_9allocatorI13VisualSegmentEEPS3_EEEC2B8ue170006ES6_, symObjAddr: 0x2BCC, symBinAddr: 0x100006F6C, symSize: 0x30 }
  - { offsetInCU: 0xB19D, offset: 0x29C16, size: 0x8, addend: 0x0, symName: __ZNSt3__129_AllocatorDestroyRangeReverseINS_9allocatorI13VisualSegmentEEPS2_EC2B8ue170006ERS3_RS4_S7_, symObjAddr: 0x2BFC, symBinAddr: 0x100006F9C, symSize: 0x38 }
  - { offsetInCU: 0xB1F6, offset: 0x29C6F, size: 0x8, addend: 0x0, symName: __ZNSt3__128__exception_guard_exceptionsINS_29_AllocatorDestroyRangeReverseINS_9allocatorI13VisualSegmentEEPS3_EEED2B8ue170006Ev, symObjAddr: 0x2C70, symBinAddr: 0x100007010, symSize: 0x50 }
  - { offsetInCU: 0xB21E, offset: 0x29C97, size: 0x8, addend: 0x0, symName: __ZNKSt3__129_AllocatorDestroyRangeReverseINS_9allocatorI13VisualSegmentEEPS2_EclB8ue170006Ev, symObjAddr: 0x2CC0, symBinAddr: 0x100007060, symSize: 0x68 }
  - { offsetInCU: 0xB243, offset: 0x29CBC, size: 0x8, addend: 0x0, symName: __ZNSt3__116reverse_iteratorIP13VisualSegmentEC1B8ue170006ES2_, symObjAddr: 0x2D98, symBinAddr: 0x100007138, symSize: 0x34 }
  - { offsetInCU: 0xB279, offset: 0x29CF2, size: 0x8, addend: 0x0, symName: __ZNSt3__116allocator_traitsINS_9allocatorI13VisualSegmentEEE7destroyB8ue170006IS2_vvEEvRS3_PT_, symObjAddr: 0x2E14, symBinAddr: 0x1000071B4, symSize: 0x28 }
  - { offsetInCU: 0xB2B7, offset: 0x29D30, size: 0x8, addend: 0x0, symName: __ZNSt3__116reverse_iteratorIP13VisualSegmentEppB8ue170006Ev, symObjAddr: 0x2E60, symBinAddr: 0x100007200, symSize: 0x20 }
  - { offsetInCU: 0xB2DC, offset: 0x29D55, size: 0x8, addend: 0x0, symName: __ZNKSt3__116reverse_iteratorIP13VisualSegmentE4baseB8ue170006Ev, symObjAddr: 0x2E80, symBinAddr: 0x100007220, symSize: 0x18 }
  - { offsetInCU: 0xB300, offset: 0x29D79, size: 0x8, addend: 0x0, symName: __ZN13VisualSegmentD1Ev, symObjAddr: 0x2EE0, symBinAddr: 0x100007280, symSize: 0x2C }
  - { offsetInCU: 0xB32B, offset: 0x29DA4, size: 0x8, addend: 0x0, symName: __ZN13VisualSegmentD2Ev, symObjAddr: 0x2F0C, symBinAddr: 0x1000072AC, symSize: 0x2C }
  - { offsetInCU: 0xB35C, offset: 0x29DD5, size: 0x8, addend: 0x0, symName: __ZNSt3__119__to_address_helperINS_16reverse_iteratorIP13VisualSegmentEEvE6__callB8ue170006ERKS4_, symObjAddr: 0x2F38, symBinAddr: 0x1000072D8, symSize: 0x38 }
  - { offsetInCU: 0xB37F, offset: 0x29DF8, size: 0x8, addend: 0x0, symName: __ZNKSt3__116reverse_iteratorIP13VisualSegmentEptB8ue170006Ev, symObjAddr: 0x2F70, symBinAddr: 0x100007310, symSize: 0x2C }
  - { offsetInCU: 0xB3A4, offset: 0x29E1D, size: 0x8, addend: 0x0, symName: __ZNSt3__116reverse_iteratorIP13VisualSegmentEC2B8ue170006ES2_, symObjAddr: 0x3038, symBinAddr: 0x1000073D8, symSize: 0x28 }
  - { offsetInCU: 0xB3DB, offset: 0x29E54, size: 0x8, addend: 0x0, symName: __ZNSt3__118__unwrap_iter_implIP13VisualSegmentLb1EE8__unwrapB8ue170006ES2_, symObjAddr: 0x3060, symBinAddr: 0x100007400, symSize: 0x24 }
  - { offsetInCU: 0xB3FE, offset: 0x29E77, size: 0x8, addend: 0x0, symName: __ZNSt3__118__unwrap_iter_implIP13VisualSegmentLb1EE8__rewrapB8ue170006ES2_S2_, symObjAddr: 0x3084, symBinAddr: 0x100007424, symSize: 0x50 }
  - { offsetInCU: 0xB42F, offset: 0x29EA8, size: 0x8, addend: 0x0, symName: __ZNSt3__16vectorI13VisualSegmentNS_9allocatorIS1_EEE21_ConstructTransactionD2B8ue170006Ev, symObjAddr: 0x30D4, symBinAddr: 0x100007474, symSize: 0x20 }
  - { offsetInCU: 0xB458, offset: 0x29ED1, size: 0x8, addend: 0x0, symName: __ZNSt3__128__exception_guard_exceptionsINS_6vectorI13VisualSegmentNS_9allocatorIS2_EEE16__destroy_vectorEED2B8ue170006Ev, symObjAddr: 0x30F4, symBinAddr: 0x100007494, symSize: 0x50 }
  - { offsetInCU: 0xB480, offset: 0x29EF9, size: 0x8, addend: 0x0, symName: __ZNSt3__16vectorI13VisualSegmentNS_9allocatorIS1_EEE16__destroy_vectorclB8ue170006Ev, symObjAddr: 0x3144, symBinAddr: 0x1000074E4, symSize: 0x90 }
  - { offsetInCU: 0xB4A5, offset: 0x29F1E, size: 0x8, addend: 0x0, symName: __ZNSt3__16vectorI13VisualSegmentNS_9allocatorIS1_EEE7__clearB8ue170006Ev, symObjAddr: 0x31D4, symBinAddr: 0x100007574, symSize: 0x28 }
  - { offsetInCU: 0xB4CA, offset: 0x29F43, size: 0x8, addend: 0x0, symName: __ZNKSt3__16vectorI13VisualSegmentNS_9allocatorIS1_EEE17__annotate_deleteB8ue170006Ev, symObjAddr: 0x31FC, symBinAddr: 0x10000759C, symSize: 0xB8 }
  - { offsetInCU: 0xB4EF, offset: 0x29F68, size: 0x8, addend: 0x0, symName: __ZNSt3__116allocator_traitsINS_9allocatorI13VisualSegmentEEE10deallocateB8ue170006ERS3_PS2_m, symObjAddr: 0x32B4, symBinAddr: 0x100007654, symSize: 0x34 }
  - { offsetInCU: 0xB534, offset: 0x29FAD, size: 0x8, addend: 0x0, symName: __ZNSt3__16vectorI13VisualSegmentNS_9allocatorIS1_EEE22__base_destruct_at_endB8ue170006EPS1_, symObjAddr: 0x32E8, symBinAddr: 0x100007688, symSize: 0x8C }
  - { offsetInCU: 0xB579, offset: 0x29FF2, size: 0x8, addend: 0x0, symName: __ZNSt3__19allocatorI13VisualSegmentE10deallocateB8ue170006EPS1_m, symObjAddr: 0x3374, symBinAddr: 0x100007714, symSize: 0x40 }
  - { offsetInCU: 0xB5BA, offset: 0x2A033, size: 0x8, addend: 0x0, symName: __ZNSt3__16vectorI13VisualSegmentNS_9allocatorIS1_EEED2B8ue170006Ev, symObjAddr: 0x33B4, symBinAddr: 0x100007754, symSize: 0x40 }
  - { offsetInCU: 0xB5E2, offset: 0x2A05B, size: 0x8, addend: 0x0, symName: __ZNSt3__16vectorINS0_I13VisualSegmentNS_9allocatorIS1_EEEENS2_IS4_EEED2B8ue170006Ev, symObjAddr: 0x33F4, symBinAddr: 0x100007794, symSize: 0x40 }
  - { offsetInCU: 0xB60A, offset: 0x2A083, size: 0x8, addend: 0x0, symName: __ZNKSt3__16vectorINS0_I13VisualSegmentNS_9allocatorIS1_EEEENS2_IS4_EEE20__throw_out_of_rangeB8ue170006Ev, symObjAddr: 0x3434, symBinAddr: 0x1000077D4, symSize: 0x1C }
  - { offsetInCU: 0xB62F, offset: 0x2A0A8, size: 0x8, addend: 0x0, symName: __ZNSt12out_of_rangeC1B8ue170006EPKc, symObjAddr: 0x34B4, symBinAddr: 0x100007854, symSize: 0x34 }
  - { offsetInCU: 0xB665, offset: 0x2A0DE, size: 0x8, addend: 0x0, symName: __ZNSt12out_of_rangeC2B8ue170006EPKc, symObjAddr: 0x34E8, symBinAddr: 0x100007888, symSize: 0x4C }
  - { offsetInCU: 0xB69B, offset: 0x2A114, size: 0x8, addend: 0x0, symName: __ZNKSt3__16vectorI13VisualSegmentNS_9allocatorIS1_EEE20__throw_out_of_rangeB8ue170006Ev, symObjAddr: 0x3534, symBinAddr: 0x1000078D4, symSize: 0x1C }
  - { offsetInCU: 0xB6BF, offset: 0x2A138, size: 0x8, addend: 0x0, symName: __ZN13VisualSegmentC2ERKS_, symObjAddr: 0x3550, symBinAddr: 0x1000078F0, symSize: 0x40 }
  - { offsetInCU: 0x26, offset: 0x2A23C, size: 0x8, addend: 0x0, symName: __Z20getOppositeDirection9Direction, symObjAddr: 0x0, symBinAddr: 0x100007930, symSize: 0x78 }
  - { offsetInCU: 0x3B, offset: 0x2A251, size: 0x8, addend: 0x0, symName: __Z20getOppositeDirection9Direction, symObjAddr: 0x0, symBinAddr: 0x100007930, symSize: 0x78 }
  - { offsetInCU: 0x37B3, offset: 0x2DA31, size: 0x8, addend: 0x0, symName: __ZNSt3__17advanceB8ue170006IPNS_12basic_stringIcNS_11char_traitsIcEENS_9allocatorIcEEEEllvEEvRT_T0_, symObjAddr: 0x2880, symBinAddr: 0x100009D7C, symSize: 0x38 }
  - { offsetInCU: 0x3B77, offset: 0x2DDF5, size: 0x8, addend: 0x0, symName: __ZNSt3__17advanceB8ue170006INS_16reverse_iteratorIPNS_12basic_stringIcNS_11char_traitsIcEENS_9allocatorIcEEEEEEllvEEvRT_T0_, symObjAddr: 0x3C48, symBinAddr: 0x10000B028, symSize: 0x38 }
  - { offsetInCU: 0x46F6, offset: 0x2E974, size: 0x8, addend: 0x0, symName: __ZNSt3__1neB8ue170006IPcEEbRKNS_11__wrap_iterIT_EES6_, symObjAddr: 0x9C0, symBinAddr: 0x100008344, symSize: 0x34 }
  - { offsetInCU: 0x4BB3, offset: 0x2EE31, size: 0x8, addend: 0x0, symName: __ZNSt3__1neB8ue170006IPKcEEbRKNS_11__wrap_iterIT_EES7_, symObjAddr: 0xEC8, symBinAddr: 0x10000884C, symSize: 0x34 }
  - { offsetInCU: 0x4BF6, offset: 0x2EE74, size: 0x8, addend: 0x0, symName: __ZNSt3__112__to_addressB8ue170006IKcEEPT_S3_, symObjAddr: 0x1238, symBinAddr: 0x100008AC4, symSize: 0x14 }
  - { offsetInCU: 0x4C5F, offset: 0x2EEDD, size: 0x8, addend: 0x0, symName: __ZNSt3__122__make_exception_guardB8ue170006INS_6vectorINS_12basic_stringIcNS_11char_traitsIcEENS_9allocatorIcEEEENS5_IS7_EEE16__destroy_vectorEEENS_28__exception_guard_exceptionsIT_EESC_, symObjAddr: 0x151C, symBinAddr: 0x100008CEC, symSize: 0x40 }
  - { offsetInCU: 0x4C94, offset: 0x2EF12, size: 0x8, addend: 0x0, symName: __ZNSt3__119__allocate_at_leastB8ue170006INS_9allocatorINS_12basic_stringIcNS_11char_traitsIcEENS1_IcEEEEEEEENS_19__allocation_resultINS_16allocator_traitsIT_E7pointerEEERSA_m, symObjAddr: 0x192C, symBinAddr: 0x1000090FC, symSize: 0x40 }
  - { offsetInCU: 0x4CD7, offset: 0x2EF55, size: 0x8, addend: 0x0, symName: __ZNSt3__112__to_addressB8ue170006INS_12basic_stringIcNS_11char_traitsIcEENS_9allocatorIcEEEEEEPT_S8_, symObjAddr: 0x1F34, symBinAddr: 0x100009430, symSize: 0x14 }
  - { offsetInCU: 0x4D0D, offset: 0x2EF8B, size: 0x8, addend: 0x0, symName: __ZNSt3__130__uninitialized_allocator_copyB8ue170006INS_9allocatorINS_12basic_stringIcNS_11char_traitsIcEENS1_IcEEEEEEPKS6_S9_PS6_EET2_RT_T0_T1_SB_, symObjAddr: 0x1FE4, symBinAddr: 0x1000094E0, symSize: 0x80 }
  - { offsetInCU: 0x4DB1, offset: 0x2F02F, size: 0x8, addend: 0x0, symName: __ZNSt3__114__unwrap_rangeB8ue170006IPKNS_12basic_stringIcNS_11char_traitsIcEENS_9allocatorIcEEEES8_EEDaT_T0_, symObjAddr: 0x20DC, symBinAddr: 0x1000095D8, symSize: 0x3C }
  - { offsetInCU: 0x4DFD, offset: 0x2F07B, size: 0x8, addend: 0x0, symName: __ZNSt3__135__uninitialized_allocator_copy_implB8ue170006INS_9allocatorINS_12basic_stringIcNS_11char_traitsIcEENS1_IcEEEEEEPKS6_S9_PS6_EET2_RT_T0_T1_SB_, symObjAddr: 0x2118, symBinAddr: 0x100009614, symSize: 0xF4 }
  - { offsetInCU: 0x4EA2, offset: 0x2F120, size: 0x8, addend: 0x0, symName: __ZNSt3__113__unwrap_iterB8ue170006IPNS_12basic_stringIcNS_11char_traitsIcEENS_9allocatorIcEEEENS_18__unwrap_iter_implIS7_Lb1EEELi0EEEDTclsrT0_8__unwrapclsr3stdE7declvalIT_EEEESB_, symObjAddr: 0x220C, symBinAddr: 0x100009708, symSize: 0x24 }
  - { offsetInCU: 0x4EE6, offset: 0x2F164, size: 0x8, addend: 0x0, symName: __ZNSt3__113__rewrap_iterB8ue170006IPNS_12basic_stringIcNS_11char_traitsIcEENS_9allocatorIcEEEES7_NS_18__unwrap_iter_implIS7_Lb1EEEEET_SA_T0_, symObjAddr: 0x2230, symBinAddr: 0x10000972C, symSize: 0x3C }
  - { offsetInCU: 0x503D, offset: 0x2F2BB, size: 0x8, addend: 0x0, symName: __ZNSt3__113__unwrap_iterB8ue170006IPKNS_12basic_stringIcNS_11char_traitsIcEENS_9allocatorIcEEEENS_18__unwrap_iter_implIS8_Lb1EEELi0EEEDTclsrT0_8__unwrapclsr3stdE7declvalIT_EEEESC_, symObjAddr: 0x22C4, symBinAddr: 0x1000097C0, symSize: 0x24 }
  - { offsetInCU: 0x50D4, offset: 0x2F352, size: 0x8, addend: 0x0, symName: __ZNSt3__112__to_addressB8ue170006IKNS_12basic_stringIcNS_11char_traitsIcEENS_9allocatorIcEEEEEEPT_S9_, symObjAddr: 0x2348, symBinAddr: 0x100009844, symSize: 0x14 }
  - { offsetInCU: 0x510A, offset: 0x2F388, size: 0x8, addend: 0x0, symName: __ZNSt3__122__make_exception_guardB8ue170006INS_29_AllocatorDestroyRangeReverseINS_9allocatorINS_12basic_stringIcNS_11char_traitsIcEENS2_IcEEEEEEPS7_EEEENS_28__exception_guard_exceptionsIT_EESC_, symObjAddr: 0x2390, symBinAddr: 0x10000988C, symSize: 0x4C }
  - { offsetInCU: 0x5167, offset: 0x2F3E5, size: 0x8, addend: 0x0, symName: __ZNSt3__112construct_atB8ue170006INS_12basic_stringIcNS_11char_traitsIcEENS_9allocatorIcEEEEJRKS6_EPS6_EEPT_SB_DpOT0_, symObjAddr: 0x2534, symBinAddr: 0x100009A30, symSize: 0x3C }
  - { offsetInCU: 0x51D9, offset: 0x2F457, size: 0x8, addend: 0x0, symName: __ZNSt3__119__allocator_destroyB8ue170006INS_9allocatorINS_12basic_stringIcNS_11char_traitsIcEENS1_IcEEEEEENS_16reverse_iteratorIPS6_EESA_EEvRT_T0_T1_, symObjAddr: 0x2628, symBinAddr: 0x100009B24, symSize: 0x70 }
  - { offsetInCU: 0x5240, offset: 0x2F4BE, size: 0x8, addend: 0x0, symName: __ZNSt3__1neB8ue170006IPNS_12basic_stringIcNS_11char_traitsIcEENS_9allocatorIcEEEES7_EEbRKNS_16reverse_iteratorIT_EERKNS8_IT0_EE, symObjAddr: 0x26CC, symBinAddr: 0x100009BC8, symSize: 0x48 }
  - { offsetInCU: 0x528C, offset: 0x2F50A, size: 0x8, addend: 0x0, symName: __ZNSt3__112__to_addressB8ue170006INS_16reverse_iteratorIPNS_12basic_stringIcNS_11char_traitsIcEENS_9allocatorIcEEEEEEvEEu7__decayIDTclsr19__to_address_helperIT_EE6__callclsr3stdE7declvalIRKSA_EEEEESC_, symObjAddr: 0x273C, symBinAddr: 0x100009C38, symSize: 0x24 }
  - { offsetInCU: 0x52C3, offset: 0x2F541, size: 0x8, addend: 0x0, symName: __ZNSt3__110destroy_atB8ue170006INS_12basic_stringIcNS_11char_traitsIcEENS_9allocatorIcEEEELi0EEEvPT_, symObjAddr: 0x2798, symBinAddr: 0x100009C94, symSize: 0x24 }
  - { offsetInCU: 0x52FB, offset: 0x2F579, size: 0x8, addend: 0x0, symName: __ZNSt3__112__destroy_atB8ue170006INS_12basic_stringIcNS_11char_traitsIcEENS_9allocatorIcEEEELi0EEEvPT_, symObjAddr: 0x27BC, symBinAddr: 0x100009CB8, symSize: 0x24 }
  - { offsetInCU: 0x535D, offset: 0x2F5DB, size: 0x8, addend: 0x0, symName: __ZNSt3__14prevB8ue170006IPNS_12basic_stringIcNS_11char_traitsIcEENS_9allocatorIcEEEEEENS_9enable_ifIXsr29__has_input_iterator_categoryIT_EE5valueES9_E4typeES9_NS_15iterator_traitsIS9_E15difference_typeE, symObjAddr: 0x2844, symBinAddr: 0x100009D40, symSize: 0x3C }
  - { offsetInCU: 0x53A0, offset: 0x2F61E, size: 0x8, addend: 0x0, symName: __ZNSt3__19__advanceB8ue170006IPNS_12basic_stringIcNS_11char_traitsIcEENS_9allocatorIcEEEEEEvRT_NS_15iterator_traitsIS8_E15difference_typeENS_26random_access_iterator_tagE, symObjAddr: 0x28CC, symBinAddr: 0x100009DB4, symSize: 0x30 }
  - { offsetInCU: 0x543E, offset: 0x2F6BC, size: 0x8, addend: 0x0, symName: __ZNSt3__112construct_atB8ue170006INS_12basic_stringIcNS_11char_traitsIcEENS_9allocatorIcEEEEJS6_EPS6_EEPT_S9_DpOT0_, symObjAddr: 0x2FD0, symBinAddr: 0x10000A3B0, symSize: 0x3C }
  - { offsetInCU: 0x54B0, offset: 0x2F72E, size: 0x8, addend: 0x0, symName: __ZNSt3__13maxB8ue170006ImEERKT_S3_S3_, symObjAddr: 0x333C, symBinAddr: 0x10000A71C, symSize: 0x2C }
  - { offsetInCU: 0x54F3, offset: 0x2F771, size: 0x8, addend: 0x0, symName: __ZNSt3__13maxB8ue170006ImNS_6__lessIvvEEEERKT_S5_S5_T0_, symObjAddr: 0x3368, symBinAddr: 0x10000A748, symSize: 0x54 }
  - { offsetInCU: 0x554D, offset: 0x2F7CB, size: 0x8, addend: 0x0, symName: __ZNSt3__142__uninitialized_allocator_move_if_noexceptB8ue170006INS_9allocatorINS_12basic_stringIcNS_11char_traitsIcEENS1_IcEEEEEENS_16reverse_iteratorIPS6_EESA_SA_EET2_RT_T0_T1_SB_, symObjAddr: 0x35F4, symBinAddr: 0x10000A9D4, symSize: 0x124 }
  - { offsetInCU: 0x55F4, offset: 0x2F872, size: 0x8, addend: 0x0, symName: __ZNSt3__14swapB8ue170006IPNS_12basic_stringIcNS_11char_traitsIcEENS_9allocatorIcEEEEEENS_9enable_ifIXaasr21is_move_constructibleIT_EE5valuesr18is_move_assignableIS9_EE5valueEvE4typeERS9_SC_, symObjAddr: 0x3718, symBinAddr: 0x10000AAF8, symSize: 0x3C }
  - { offsetInCU: 0x5646, offset: 0x2F8C4, size: 0x8, addend: 0x0, symName: __ZNSt3__122__make_exception_guardB8ue170006INS_29_AllocatorDestroyRangeReverseINS_9allocatorINS_12basic_stringIcNS_11char_traitsIcEENS2_IcEEEEEENS_16reverse_iteratorIPS7_EEEEEENS_28__exception_guard_exceptionsIT_EESE_, symObjAddr: 0x3754, symBinAddr: 0x10000AB34, symSize: 0x4C }
  - { offsetInCU: 0x567C, offset: 0x2F8FA, size: 0x8, addend: 0x0, symName: __ZNSt3__119__allocator_destroyB8ue170006INS_9allocatorINS_12basic_stringIcNS_11char_traitsIcEENS1_IcEEEEEENS_16reverse_iteratorINS8_IPS6_EEEESB_EEvRT_T0_T1_, symObjAddr: 0x39F4, symBinAddr: 0x10000ADD4, symSize: 0x70 }
  - { offsetInCU: 0x56E5, offset: 0x2F963, size: 0x8, addend: 0x0, symName: __ZNSt3__1neB8ue170006INS_16reverse_iteratorIPNS_12basic_stringIcNS_11char_traitsIcEENS_9allocatorIcEEEEEES9_EEbRKNS1_IT_EERKNS1_IT0_EE, symObjAddr: 0x3AA0, symBinAddr: 0x10000AE80, symSize: 0x60 }
  - { offsetInCU: 0x5731, offset: 0x2F9AF, size: 0x8, addend: 0x0, symName: __ZNSt3__112__to_addressB8ue170006INS_16reverse_iteratorINS1_IPNS_12basic_stringIcNS_11char_traitsIcEENS_9allocatorIcEEEEEEEEvEEu7__decayIDTclsr19__to_address_helperIT_EE6__callclsr3stdE7declvalIRKSB_EEEEESD_, symObjAddr: 0x3B00, symBinAddr: 0x10000AEE0, symSize: 0x24 }
  - { offsetInCU: 0x5792, offset: 0x2FA10, size: 0x8, addend: 0x0, symName: __ZNSt3__14prevB8ue170006INS_16reverse_iteratorIPNS_12basic_stringIcNS_11char_traitsIcEENS_9allocatorIcEEEEEEEENS_9enable_ifIXsr29__has_input_iterator_categoryIT_EE5valueESB_E4typeESB_NS_15iterator_traitsISB_E15difference_typeE, symObjAddr: 0x3BFC, symBinAddr: 0x10000AFDC, symSize: 0x4C }
  - { offsetInCU: 0x57D5, offset: 0x2FA53, size: 0x8, addend: 0x0, symName: __ZNSt3__19__advanceB8ue170006INS_16reverse_iteratorIPNS_12basic_stringIcNS_11char_traitsIcEENS_9allocatorIcEEEEEEEEvRT_NS_15iterator_traitsISA_E15difference_typeENS_26random_access_iterator_tagE, symObjAddr: 0x3C80, symBinAddr: 0x10000B060, symSize: 0x2C }
  - { offsetInCU: 0x5820, offset: 0x2FA9E, size: 0x8, addend: 0x0, symName: __ZNSt3__1eqB8ue170006IPcEEbRKNS_11__wrap_iterIT_EES6_, symObjAddr: 0x4090, symBinAddr: 0x10000B470, symSize: 0x48 }
  - { offsetInCU: 0x5863, offset: 0x2FAE1, size: 0x8, addend: 0x0, symName: __ZNSt3__123__str_find_first_not_ofB8ue170006IcmNS_11char_traitsIcEELm18446744073709551615EEET0_PKT_S3_S4_S3_, symObjAddr: 0x40F0, symBinAddr: 0x10000B4D0, symSize: 0xD0 }
  - { offsetInCU: 0x592F, offset: 0x2FBAD, size: 0x8, addend: 0x0, symName: __ZNSt3__1eqB8ue170006IPKcEEbRKNS_11__wrap_iterIT_EES7_, symObjAddr: 0x44F4, symBinAddr: 0x10000B8D4, symSize: 0x48 }
  - { offsetInCU: 0x5CC0, offset: 0x2FF3E, size: 0x8, addend: 0x0, symName: __ZNSt3__16vectorINS_12basic_stringIcNS_11char_traitsIcEENS_9allocatorIcEEEENS4_IS6_EEE26__swap_out_circular_bufferERNS_14__split_bufferIS6_RS7_EE, symObjAddr: 0x3200, symBinAddr: 0x10000A5E0, symSize: 0x110 }
  - { offsetInCU: 0x61BE, offset: 0x3043C, size: 0x8, addend: 0x0, symName: __Z7toloweri, symObjAddr: 0xAD4, symBinAddr: 0x100008458, symSize: 0x24 }
  - { offsetInCU: 0x61EE, offset: 0x3046C, size: 0x8, addend: 0x0, symName: __Z7toupperi, symObjAddr: 0xA0C, symBinAddr: 0x100008390, symSize: 0x24 }
  - { offsetInCU: 0x7B2A, offset: 0x31DA8, size: 0x8, addend: 0x0, symName: __ZN13StringHelpers9leftAlignERKNSt3__112basic_stringIcNS0_11char_traitsIcEENS0_9allocatorIcEEEEjRKc, symObjAddr: 0x0, symBinAddr: 0x1000079B8, symSize: 0x13C }
  - { offsetInCU: 0x7B8F, offset: 0x31E0D, size: 0x8, addend: 0x0, symName: __ZN13StringHelpers10rightAlignERKNSt3__112basic_stringIcNS0_11char_traitsIcEENS0_9allocatorIcEEEEjRKc, symObjAddr: 0x230, symBinAddr: 0x100007BE8, symSize: 0x10C }
  - { offsetInCU: 0x7BF4, offset: 0x31E72, size: 0x8, addend: 0x0, symName: __ZN13StringHelpers13splitIntoRowsERKNSt3__112basic_stringIcNS0_11char_traitsIcEENS0_9allocatorIcEEEEii, symObjAddr: 0x33C, symBinAddr: 0x100007CF4, symSize: 0x294 }
  - { offsetInCU: 0x7C69, offset: 0x31EE7, size: 0x8, addend: 0x0, symName: __ZN13StringHelpers10countWordsERKNSt3__112basic_stringIcNS0_11char_traitsIcEENS0_9allocatorIcEEEE, symObjAddr: 0x70C, symBinAddr: 0x100008090, symSize: 0x12C }
  - { offsetInCU: 0x7CEC, offset: 0x31F6A, size: 0x8, addend: 0x0, symName: __ZN13StringHelpers9uppercaseERNSt3__112basic_stringIcNS0_11char_traitsIcEENS0_9allocatorIcEEEE, symObjAddr: 0x89C, symBinAddr: 0x100008220, symSize: 0x84 }
  - { offsetInCU: 0x7D68, offset: 0x31FE6, size: 0x8, addend: 0x0, symName: __ZN13StringHelpers9lowercaseERNSt3__112basic_stringIcNS0_11char_traitsIcEENS0_9allocatorIcEEEE, symObjAddr: 0xA50, symBinAddr: 0x1000083D4, symSize: 0x84 }
  - { offsetInCU: 0x7DE4, offset: 0x32062, size: 0x8, addend: 0x0, symName: __ZN13StringHelpers13firstNonSpaceERKNSt3__112basic_stringIcNS0_11char_traitsIcEENS0_9allocatorIcEEEE, symObjAddr: 0xAF8, symBinAddr: 0x10000847C, symSize: 0x70 }
  - { offsetInCU: 0x7E1E, offset: 0x3209C, size: 0x8, addend: 0x0, symName: __ZN13StringHelpers10startsWithERKNSt3__112basic_stringIcNS0_11char_traitsIcEENS0_9allocatorIcEEEEc, symObjAddr: 0xC1C, symBinAddr: 0x1000085A0, symSize: 0x78 }
  - { offsetInCU: 0x7E58, offset: 0x320D6, size: 0x8, addend: 0x0, symName: __ZN13StringHelpers28startsWithIgnoringWhitespaceERKNSt3__112basic_stringIcNS0_11char_traitsIcEENS0_9allocatorIcEEEEc, symObjAddr: 0xCC4, symBinAddr: 0x100008648, symSize: 0x90 }
  - { offsetInCU: 0x7EA0, offset: 0x3211E, size: 0x8, addend: 0x0, symName: __ZN13StringHelpers32consistsOnlyOfIgnoringWhitespaceERKNSt3__112basic_stringIcNS0_11char_traitsIcEENS0_9allocatorIcEEEEc, symObjAddr: 0xD54, symBinAddr: 0x1000086D8, symSize: 0xD4 }
  - { offsetInCU: 0x7F2F, offset: 0x321AD, size: 0x8, addend: 0x0, symName: __ZNKSt3__112basic_stringIcNS_11char_traitsIcEENS_9allocatorIcEEE6lengthB8ue170006Ev, symObjAddr: 0x13C, symBinAddr: 0x100007AF4, symSize: 0x24 }
  - { offsetInCU: 0x7F54, offset: 0x321D2, size: 0x8, addend: 0x0, symName: __ZNKSt3__112basic_stringIcNS_11char_traitsIcEENS_9allocatorIcEEE6substrB8ue170006Emm, symObjAddr: 0x160, symBinAddr: 0x100007B18, symSize: 0x68 }
  - { offsetInCU: 0x7F99, offset: 0x32217, size: 0x8, addend: 0x0, symName: __ZNSt3__112basic_stringIcNS_11char_traitsIcEENS_9allocatorIcEEEC1B8ue170006Emc, symObjAddr: 0x1C8, symBinAddr: 0x100007B80, symSize: 0x3C }
  - { offsetInCU: 0x7FE1, offset: 0x3225F, size: 0x8, addend: 0x0, symName: __ZNSt3__112basic_stringIcNS_11char_traitsIcEENS_9allocatorIcEEEpLB8ue170006ERKS5_, symObjAddr: 0x204, symBinAddr: 0x100007BBC, symSize: 0x2C }
  - { offsetInCU: 0x801B, offset: 0x32299, size: 0x8, addend: 0x0, symName: __ZNSt3__16vectorINS_12basic_stringIcNS_11char_traitsIcEENS_9allocatorIcEEEENS4_IS6_EEEC1B8ue170006ESt16initializer_listIS6_E, symObjAddr: 0x604, symBinAddr: 0x100007F88, symSize: 0x3C }
  - { offsetInCU: 0x8056, offset: 0x322D4, size: 0x8, addend: 0x0, symName: __ZNSt3__16vectorINS_12basic_stringIcNS_11char_traitsIcEENS_9allocatorIcEEEENS4_IS6_EEEC1B8ue170006Ev, symObjAddr: 0x640, symBinAddr: 0x100007FC4, symSize: 0x2C }
  - { offsetInCU: 0x8082, offset: 0x32300, size: 0x8, addend: 0x0, symName: __ZNSt3__16vectorINS_12basic_stringIcNS_11char_traitsIcEENS_9allocatorIcEEEENS4_IS6_EEE12emplace_backIJS6_EEERS6_DpOT_, symObjAddr: 0x66C, symBinAddr: 0x100007FF0, symSize: 0x74 }
  - { offsetInCU: 0x80C5, offset: 0x32343, size: 0x8, addend: 0x0, symName: __ZNSt3__16vectorINS_12basic_stringIcNS_11char_traitsIcEENS_9allocatorIcEEEENS4_IS6_EEED1B8ue170006Ev, symObjAddr: 0x6E0, symBinAddr: 0x100008064, symSize: 0x2C }
  - { offsetInCU: 0x80F7, offset: 0x32375, size: 0x8, addend: 0x0, symName: '__ZZN13StringHelpers10countWordsERKNSt3__112basic_stringIcNS0_11char_traitsIcEENS0_9allocatorIcEEEEENK3$_0clEc', symObjAddr: 0x838, symBinAddr: 0x1000081BC, symSize: 0x64 }
  - { offsetInCU: 0x812D, offset: 0x323AB, size: 0x8, addend: 0x0, symName: __ZNSt3__112basic_stringIcNS_11char_traitsIcEENS_9allocatorIcEEE5beginB8ue170006Ev, symObjAddr: 0x920, symBinAddr: 0x1000082A4, symSize: 0x4C }
  - { offsetInCU: 0x8152, offset: 0x323D0, size: 0x8, addend: 0x0, symName: __ZNSt3__112basic_stringIcNS_11char_traitsIcEENS_9allocatorIcEEE3endB8ue170006Ev, symObjAddr: 0x96C, symBinAddr: 0x1000082F0, symSize: 0x54 }
  - { offsetInCU: 0x8177, offset: 0x323F5, size: 0x8, addend: 0x0, symName: __ZNKSt3__111__wrap_iterIPcEdeB8ue170006Ev, symObjAddr: 0x9F4, symBinAddr: 0x100008378, symSize: 0x18 }
  - { offsetInCU: 0x819C, offset: 0x3241A, size: 0x8, addend: 0x0, symName: __ZNSt3__111__wrap_iterIPcEppB8ue170006Ev, symObjAddr: 0xA30, symBinAddr: 0x1000083B4, symSize: 0x20 }
  - { offsetInCU: 0x81C0, offset: 0x3243E, size: 0x8, addend: 0x0, symName: __ZNKSt3__112basic_stringIcNS_11char_traitsIcEENS_9allocatorIcEEE17find_first_not_ofB8ue170006Ecm, symObjAddr: 0xB68, symBinAddr: 0x1000084EC, symSize: 0x54 }
  - { offsetInCU: 0x826C, offset: 0x324EA, size: 0x8, addend: 0x0, symName: __ZNSt3__18optionalIcEC1B8ue170006ENS_9nullopt_tE, symObjAddr: 0xBBC, symBinAddr: 0x100008540, symSize: 0x2C }
  - { offsetInCU: 0x82A0, offset: 0x3251E, size: 0x8, addend: 0x0, symName: __ZNSt3__18optionalIcEC1B8ue170006IRKcLi0EEEOT_, symObjAddr: 0xBE8, symBinAddr: 0x10000856C, symSize: 0x34 }
  - { offsetInCU: 0x82E7, offset: 0x32565, size: 0x8, addend: 0x0, symName: __ZNKSt3__112basic_stringIcNS_11char_traitsIcEENS_9allocatorIcEEE5emptyB8ue170006Ev, symObjAddr: 0xC94, symBinAddr: 0x100008618, symSize: 0x30 }
  - { offsetInCU: 0x830C, offset: 0x3258A, size: 0x8, addend: 0x0, symName: __ZNKSt3__112basic_stringIcNS_11char_traitsIcEENS_9allocatorIcEEE5beginB8ue170006Ev, symObjAddr: 0xE28, symBinAddr: 0x1000087AC, symSize: 0x4C }
  - { offsetInCU: 0x8331, offset: 0x325AF, size: 0x8, addend: 0x0, symName: __ZNKSt3__112basic_stringIcNS_11char_traitsIcEENS_9allocatorIcEEE3endB8ue170006Ev, symObjAddr: 0xE74, symBinAddr: 0x1000087F8, symSize: 0x54 }
  - { offsetInCU: 0x8356, offset: 0x325D4, size: 0x8, addend: 0x0, symName: __ZNKSt3__111__wrap_iterIPKcEdeB8ue170006Ev, symObjAddr: 0xEFC, symBinAddr: 0x100008880, symSize: 0x18 }
  - { offsetInCU: 0x837B, offset: 0x325F9, size: 0x8, addend: 0x0, symName: __ZNSt3__111__wrap_iterIPKcEppB8ue170006Ev, symObjAddr: 0xF14, symBinAddr: 0x100008898, symSize: 0x20 }
  - { offsetInCU: 0x83A0, offset: 0x3261E, size: 0x8, addend: 0x0, symName: __ZNKSt3__112basic_stringIcNS_11char_traitsIcEENS_9allocatorIcEEE4sizeB8ue170006Ev, symObjAddr: 0xF34, symBinAddr: 0x1000088B8, symSize: 0x54 }
  - { offsetInCU: 0x83C5, offset: 0x32643, size: 0x8, addend: 0x0, symName: __ZNKSt3__112basic_stringIcNS_11char_traitsIcEENS_9allocatorIcEEE9__is_longB8ue170006Ev, symObjAddr: 0xF88, symBinAddr: 0x10000890C, symSize: 0x38 }
  - { offsetInCU: 0x83EA, offset: 0x32668, size: 0x8, addend: 0x0, symName: __ZNKSt3__112basic_stringIcNS_11char_traitsIcEENS_9allocatorIcEEE15__get_long_sizeB8ue170006Ev, symObjAddr: 0xFC0, symBinAddr: 0x100008944, symSize: 0x28 }
  - { offsetInCU: 0x840F, offset: 0x3268D, size: 0x8, addend: 0x0, symName: __ZNKSt3__112basic_stringIcNS_11char_traitsIcEENS_9allocatorIcEEE16__get_short_sizeB8ue170006Ev, symObjAddr: 0xFE8, symBinAddr: 0x10000896C, symSize: 0x34 }
  - { offsetInCU: 0x8434, offset: 0x326B2, size: 0x8, addend: 0x0, symName: __ZNKSt3__117__compressed_pairINS_12basic_stringIcNS_11char_traitsIcEENS_9allocatorIcEEE5__repES5_E5firstB8ue170006Ev, symObjAddr: 0x101C, symBinAddr: 0x1000089A0, symSize: 0x24 }
  - { offsetInCU: 0x8459, offset: 0x326D7, size: 0x8, addend: 0x0, symName: __ZNKSt3__122__compressed_pair_elemINS_12basic_stringIcNS_11char_traitsIcEENS_9allocatorIcEEE5__repELi0ELb0EE5__getB8ue170006Ev, symObjAddr: 0x1040, symBinAddr: 0x1000089C4, symSize: 0x14 }
  - { offsetInCU: 0x847E, offset: 0x326FC, size: 0x8, addend: 0x0, symName: __ZNSt3__19allocatorIcEC1B8ue170006Ev, symObjAddr: 0x1054, symBinAddr: 0x1000089D8, symSize: 0x2C }
  - { offsetInCU: 0x84A6, offset: 0x32724, size: 0x8, addend: 0x0, symName: __ZNSt3__112basic_stringIcNS_11char_traitsIcEENS_9allocatorIcEEEC2B8ue170006Emc, symObjAddr: 0x10C0, symBinAddr: 0x100008A04, symSize: 0x4C }
  - { offsetInCU: 0x84F3, offset: 0x32771, size: 0x8, addend: 0x0, symName: __ZNSt3__112basic_stringIcNS_11char_traitsIcEENS_9allocatorIcEEE6appendB8ue170006ERKS5_, symObjAddr: 0x11C4, symBinAddr: 0x100008A50, symSize: 0x4C }
  - { offsetInCU: 0x8528, offset: 0x327A6, size: 0x8, addend: 0x0, symName: __ZNKSt3__112basic_stringIcNS_11char_traitsIcEENS_9allocatorIcEEE4dataB8ue170006Ev, symObjAddr: 0x1210, symBinAddr: 0x100008A9C, symSize: 0x28 }
  - { offsetInCU: 0x854D, offset: 0x327CB, size: 0x8, addend: 0x0, symName: __ZNKSt3__112basic_stringIcNS_11char_traitsIcEENS_9allocatorIcEEE13__get_pointerB8ue170006Ev, symObjAddr: 0x124C, symBinAddr: 0x100008AD8, symSize: 0x54 }
  - { offsetInCU: 0x8572, offset: 0x327F0, size: 0x8, addend: 0x0, symName: __ZNKSt3__112basic_stringIcNS_11char_traitsIcEENS_9allocatorIcEEE18__get_long_pointerB8ue170006Ev, symObjAddr: 0x12A0, symBinAddr: 0x100008B2C, symSize: 0x28 }
  - { offsetInCU: 0x8597, offset: 0x32815, size: 0x8, addend: 0x0, symName: __ZNKSt3__112basic_stringIcNS_11char_traitsIcEENS_9allocatorIcEEE19__get_short_pointerB8ue170006Ev, symObjAddr: 0x12C8, symBinAddr: 0x100008B54, symSize: 0x28 }
  - { offsetInCU: 0x85BC, offset: 0x3283A, size: 0x8, addend: 0x0, symName: __ZNSt3__114pointer_traitsIPKcE10pointer_toB8ue170006ERS1_, symObjAddr: 0x12F0, symBinAddr: 0x100008B7C, symSize: 0x14 }
  - { offsetInCU: 0x85DF, offset: 0x3285D, size: 0x8, addend: 0x0, symName: __ZNSt3__16vectorINS_12basic_stringIcNS_11char_traitsIcEENS_9allocatorIcEEEENS4_IS6_EEEC2B8ue170006ESt16initializer_listIS6_E, symObjAddr: 0x13C0, symBinAddr: 0x100008B90, symSize: 0x120 }
  - { offsetInCU: 0x8635, offset: 0x328B3, size: 0x8, addend: 0x0, symName: __ZNSt3__117__compressed_pairIPNS_12basic_stringIcNS_11char_traitsIcEENS_9allocatorIcEEEENS4_IS6_EEEC1B8ue170006IDnNS_18__default_init_tagEEEOT_OT0_, symObjAddr: 0x14E0, symBinAddr: 0x100008CB0, symSize: 0x3C }
  - { offsetInCU: 0x868B, offset: 0x32909, size: 0x8, addend: 0x0, symName: __ZNSt3__16vectorINS_12basic_stringIcNS_11char_traitsIcEENS_9allocatorIcEEEENS4_IS6_EEE16__destroy_vectorC1B8ue170006ERS8_, symObjAddr: 0x155C, symBinAddr: 0x100008D2C, symSize: 0x34 }
  - { offsetInCU: 0x86C3, offset: 0x32941, size: 0x8, addend: 0x0, symName: __ZNKSt16initializer_listINSt3__112basic_stringIcNS0_11char_traitsIcEENS0_9allocatorIcEEEEE4sizeB8ue170006Ev, symObjAddr: 0x1590, symBinAddr: 0x100008D60, symSize: 0x18 }
  - { offsetInCU: 0x86E8, offset: 0x32966, size: 0x8, addend: 0x0, symName: __ZNSt3__16vectorINS_12basic_stringIcNS_11char_traitsIcEENS_9allocatorIcEEEENS4_IS6_EEE11__vallocateB8ue170006Em, symObjAddr: 0x15A8, symBinAddr: 0x100008D78, symSize: 0xB4 }
  - { offsetInCU: 0x872C, offset: 0x329AA, size: 0x8, addend: 0x0, symName: __ZNSt3__16vectorINS_12basic_stringIcNS_11char_traitsIcEENS_9allocatorIcEEEENS4_IS6_EEE18__construct_at_endIPKS6_SB_EEvT_T0_m, symObjAddr: 0x165C, symBinAddr: 0x100008E2C, symSize: 0x8C }
  - { offsetInCU: 0x87A6, offset: 0x32A24, size: 0x8, addend: 0x0, symName: __ZNKSt16initializer_listINSt3__112basic_stringIcNS0_11char_traitsIcEENS0_9allocatorIcEEEEE5beginB8ue170006Ev, symObjAddr: 0x16E8, symBinAddr: 0x100008EB8, symSize: 0x18 }
  - { offsetInCU: 0x87CB, offset: 0x32A49, size: 0x8, addend: 0x0, symName: __ZNKSt16initializer_listINSt3__112basic_stringIcNS0_11char_traitsIcEENS0_9allocatorIcEEEEE3endB8ue170006Ev, symObjAddr: 0x1700, symBinAddr: 0x100008ED0, symSize: 0x28 }
  - { offsetInCU: 0x87F0, offset: 0x32A6E, size: 0x8, addend: 0x0, symName: __ZNSt3__128__exception_guard_exceptionsINS_6vectorINS_12basic_stringIcNS_11char_traitsIcEENS_9allocatorIcEEEENS5_IS7_EEE16__destroy_vectorEE10__completeB8ue170006Ev, symObjAddr: 0x1728, symBinAddr: 0x100008EF8, symSize: 0x1C }
  - { offsetInCU: 0x8815, offset: 0x32A93, size: 0x8, addend: 0x0, symName: __ZNSt3__128__exception_guard_exceptionsINS_6vectorINS_12basic_stringIcNS_11char_traitsIcEENS_9allocatorIcEEEENS5_IS7_EEE16__destroy_vectorEED1B8ue170006Ev, symObjAddr: 0x1744, symBinAddr: 0x100008F14, symSize: 0x2C }
  - { offsetInCU: 0x883D, offset: 0x32ABB, size: 0x8, addend: 0x0, symName: __ZNSt3__117__compressed_pairIPNS_12basic_stringIcNS_11char_traitsIcEENS_9allocatorIcEEEENS4_IS6_EEEC2B8ue170006IDnNS_18__default_init_tagEEEOT_OT0_, symObjAddr: 0x1770, symBinAddr: 0x100008F40, symSize: 0x40 }
  - { offsetInCU: 0x8893, offset: 0x32B11, size: 0x8, addend: 0x0, symName: __ZNSt3__122__compressed_pair_elemIPNS_12basic_stringIcNS_11char_traitsIcEENS_9allocatorIcEEEELi0ELb0EEC2B8ue170006IDnvEEOT_, symObjAddr: 0x17B0, symBinAddr: 0x100008F80, symSize: 0x1C }
  - { offsetInCU: 0x88D5, offset: 0x32B53, size: 0x8, addend: 0x0, symName: __ZNSt3__122__compressed_pair_elemINS_9allocatorINS_12basic_stringIcNS_11char_traitsIcEENS1_IcEEEEEELi1ELb1EEC2B8ue170006ENS_18__default_init_tagE, symObjAddr: 0x17CC, symBinAddr: 0x100008F9C, symSize: 0x2C }
  - { offsetInCU: 0x8908, offset: 0x32B86, size: 0x8, addend: 0x0, symName: __ZNSt3__19allocatorINS_12basic_stringIcNS_11char_traitsIcEENS0_IcEEEEEC2B8ue170006Ev, symObjAddr: 0x17F8, symBinAddr: 0x100008FC8, symSize: 0x2C }
  - { offsetInCU: 0x8930, offset: 0x32BAE, size: 0x8, addend: 0x0, symName: __ZNSt3__116__non_trivial_ifILb1ENS_9allocatorINS_12basic_stringIcNS_11char_traitsIcEENS1_IcEEEEEEEC2B8ue170006Ev, symObjAddr: 0x1824, symBinAddr: 0x100008FF4, symSize: 0x14 }
  - { offsetInCU: 0x8959, offset: 0x32BD7, size: 0x8, addend: 0x0, symName: __ZNSt3__128__exception_guard_exceptionsINS_6vectorINS_12basic_stringIcNS_11char_traitsIcEENS_9allocatorIcEEEENS5_IS7_EEE16__destroy_vectorEEC1B8ue170006ESA_, symObjAddr: 0x1838, symBinAddr: 0x100009008, symSize: 0x34 }
  - { offsetInCU: 0x898F, offset: 0x32C0D, size: 0x8, addend: 0x0, symName: __ZNSt3__128__exception_guard_exceptionsINS_6vectorINS_12basic_stringIcNS_11char_traitsIcEENS_9allocatorIcEEEENS5_IS7_EEE16__destroy_vectorEEC2B8ue170006ESA_, symObjAddr: 0x186C, symBinAddr: 0x10000903C, symSize: 0x24 }
  - { offsetInCU: 0x89C6, offset: 0x32C44, size: 0x8, addend: 0x0, symName: __ZNSt3__16vectorINS_12basic_stringIcNS_11char_traitsIcEENS_9allocatorIcEEEENS4_IS6_EEE16__destroy_vectorC2B8ue170006ERS8_, symObjAddr: 0x1890, symBinAddr: 0x100009060, symSize: 0x20 }
  - { offsetInCU: 0x89FE, offset: 0x32C7C, size: 0x8, addend: 0x0, symName: __ZNKSt3__16vectorINS_12basic_stringIcNS_11char_traitsIcEENS_9allocatorIcEEEENS4_IS6_EEE8max_sizeEv, symObjAddr: 0x18B0, symBinAddr: 0x100009080, symSize: 0x60 }
  - { offsetInCU: 0x8A26, offset: 0x32CA4, size: 0x8, addend: 0x0, symName: __ZNKSt3__16vectorINS_12basic_stringIcNS_11char_traitsIcEENS_9allocatorIcEEEENS4_IS6_EEE20__throw_length_errorB8ue170006Ev, symObjAddr: 0x1910, symBinAddr: 0x1000090E0, symSize: 0x1C }
  - { offsetInCU: 0x8A4B, offset: 0x32CC9, size: 0x8, addend: 0x0, symName: __ZNSt3__16vectorINS_12basic_stringIcNS_11char_traitsIcEENS_9allocatorIcEEEENS4_IS6_EEE7__allocB8ue170006Ev, symObjAddr: 0x196C, symBinAddr: 0x10000913C, symSize: 0x28 }
  - { offsetInCU: 0x8A70, offset: 0x32CEE, size: 0x8, addend: 0x0, symName: __ZNSt3__16vectorINS_12basic_stringIcNS_11char_traitsIcEENS_9allocatorIcEEEENS4_IS6_EEE9__end_capB8ue170006Ev, symObjAddr: 0x1994, symBinAddr: 0x100009164, symSize: 0x28 }
  - { offsetInCU: 0x8A95, offset: 0x32D13, size: 0x8, addend: 0x0, symName: __ZNKSt3__16vectorINS_12basic_stringIcNS_11char_traitsIcEENS_9allocatorIcEEEENS4_IS6_EEE14__annotate_newB8ue170006Em, symObjAddr: 0x19BC, symBinAddr: 0x10000918C, symSize: 0xC8 }
  - { offsetInCU: 0x8AD4, offset: 0x32D52, size: 0x8, addend: 0x0, symName: __ZNSt3__116allocator_traitsINS_9allocatorINS_12basic_stringIcNS_11char_traitsIcEENS1_IcEEEEEEE8max_sizeB8ue170006IS7_vvEEmRKS7_, symObjAddr: 0x1AB0, symBinAddr: 0x100009254, symSize: 0x28 }
  - { offsetInCU: 0x8B02, offset: 0x32D80, size: 0x8, addend: 0x0, symName: __ZNKSt3__16vectorINS_12basic_stringIcNS_11char_traitsIcEENS_9allocatorIcEEEENS4_IS6_EEE7__allocB8ue170006Ev, symObjAddr: 0x1AD8, symBinAddr: 0x10000927C, symSize: 0x28 }
  - { offsetInCU: 0x8B31, offset: 0x32DAF, size: 0x8, addend: 0x0, symName: __ZNKSt3__117__compressed_pairIPNS_12basic_stringIcNS_11char_traitsIcEENS_9allocatorIcEEEENS4_IS6_EEE6secondB8ue170006Ev, symObjAddr: 0x1BB8, symBinAddr: 0x1000092A4, symSize: 0x24 }
  - { offsetInCU: 0x8B56, offset: 0x32DD4, size: 0x8, addend: 0x0, symName: __ZNKSt3__122__compressed_pair_elemINS_9allocatorINS_12basic_stringIcNS_11char_traitsIcEENS1_IcEEEEEELi1ELb1EE5__getB8ue170006Ev, symObjAddr: 0x1BDC, symBinAddr: 0x1000092C8, symSize: 0x14 }
  - { offsetInCU: 0x8B7B, offset: 0x32DF9, size: 0x8, addend: 0x0, symName: __ZNSt3__19allocatorINS_12basic_stringIcNS_11char_traitsIcEENS0_IcEEEEE8allocateB8ue170006Em, symObjAddr: 0x1CDC, symBinAddr: 0x1000092DC, symSize: 0x5C }
  - { offsetInCU: 0x8BAE, offset: 0x32E2C, size: 0x8, addend: 0x0, symName: __ZNSt3__117__compressed_pairIPNS_12basic_stringIcNS_11char_traitsIcEENS_9allocatorIcEEEENS4_IS6_EEE6secondB8ue170006Ev, symObjAddr: 0x1E3C, symBinAddr: 0x100009338, symSize: 0x24 }
  - { offsetInCU: 0x8BD3, offset: 0x32E51, size: 0x8, addend: 0x0, symName: __ZNSt3__122__compressed_pair_elemINS_9allocatorINS_12basic_stringIcNS_11char_traitsIcEENS1_IcEEEEEELi1ELb1EE5__getB8ue170006Ev, symObjAddr: 0x1E60, symBinAddr: 0x10000935C, symSize: 0x14 }
  - { offsetInCU: 0x8BF8, offset: 0x32E76, size: 0x8, addend: 0x0, symName: __ZNSt3__117__compressed_pairIPNS_12basic_stringIcNS_11char_traitsIcEENS_9allocatorIcEEEENS4_IS6_EEE5firstB8ue170006Ev, symObjAddr: 0x1E74, symBinAddr: 0x100009370, symSize: 0x24 }
  - { offsetInCU: 0x8C1D, offset: 0x32E9B, size: 0x8, addend: 0x0, symName: __ZNSt3__122__compressed_pair_elemIPNS_12basic_stringIcNS_11char_traitsIcEENS_9allocatorIcEEEELi0ELb0EE5__getB8ue170006Ev, symObjAddr: 0x1E98, symBinAddr: 0x100009394, symSize: 0x14 }
  - { offsetInCU: 0x8C42, offset: 0x32EC0, size: 0x8, addend: 0x0, symName: __ZNKSt3__16vectorINS_12basic_stringIcNS_11char_traitsIcEENS_9allocatorIcEEEENS4_IS6_EEE31__annotate_contiguous_containerB8ue170006EPKvSA_SA_SA_, symObjAddr: 0x1EAC, symBinAddr: 0x1000093A8, symSize: 0x20 }
  - { offsetInCU: 0x8C97, offset: 0x32F15, size: 0x8, addend: 0x0, symName: __ZNKSt3__16vectorINS_12basic_stringIcNS_11char_traitsIcEENS_9allocatorIcEEEENS4_IS6_EEE4dataB8ue170006Ev, symObjAddr: 0x1ECC, symBinAddr: 0x1000093C8, symSize: 0x28 }
  - { offsetInCU: 0x8CBC, offset: 0x32F3A, size: 0x8, addend: 0x0, symName: __ZNKSt3__16vectorINS_12basic_stringIcNS_11char_traitsIcEENS_9allocatorIcEEEENS4_IS6_EEE8capacityB8ue170006Ev, symObjAddr: 0x1EF4, symBinAddr: 0x1000093F0, symSize: 0x40 }
  - { offsetInCU: 0x8CE1, offset: 0x32F5F, size: 0x8, addend: 0x0, symName: __ZNKSt3__16vectorINS_12basic_stringIcNS_11char_traitsIcEENS_9allocatorIcEEEENS4_IS6_EEE9__end_capB8ue170006Ev, symObjAddr: 0x1F48, symBinAddr: 0x100009444, symSize: 0x28 }
  - { offsetInCU: 0x8D06, offset: 0x32F84, size: 0x8, addend: 0x0, symName: __ZNKSt3__117__compressed_pairIPNS_12basic_stringIcNS_11char_traitsIcEENS_9allocatorIcEEEENS4_IS6_EEE5firstB8ue170006Ev, symObjAddr: 0x1F70, symBinAddr: 0x10000946C, symSize: 0x24 }
  - { offsetInCU: 0x8D2B, offset: 0x32FA9, size: 0x8, addend: 0x0, symName: __ZNKSt3__122__compressed_pair_elemIPNS_12basic_stringIcNS_11char_traitsIcEENS_9allocatorIcEEEELi0ELb0EE5__getB8ue170006Ev, symObjAddr: 0x1F94, symBinAddr: 0x100009490, symSize: 0x14 }
  - { offsetInCU: 0x8D69, offset: 0x32FE7, size: 0x8, addend: 0x0, symName: __ZNSt3__16vectorINS_12basic_stringIcNS_11char_traitsIcEENS_9allocatorIcEEEENS4_IS6_EEE21_ConstructTransactionC1B8ue170006ERS8_m, symObjAddr: 0x1FA8, symBinAddr: 0x1000094A4, symSize: 0x3C }
  - { offsetInCU: 0x8DB1, offset: 0x3302F, size: 0x8, addend: 0x0, symName: __ZNSt3__16vectorINS_12basic_stringIcNS_11char_traitsIcEENS_9allocatorIcEEEENS4_IS6_EEE21_ConstructTransactionD1B8ue170006Ev, symObjAddr: 0x2064, symBinAddr: 0x100009560, symSize: 0x2C }
  - { offsetInCU: 0x8DD9, offset: 0x33057, size: 0x8, addend: 0x0, symName: __ZNSt3__16vectorINS_12basic_stringIcNS_11char_traitsIcEENS_9allocatorIcEEEENS4_IS6_EEE21_ConstructTransactionC2B8ue170006ERS8_m, symObjAddr: 0x2090, symBinAddr: 0x10000958C, symSize: 0x4C }
  - { offsetInCU: 0x8E3B, offset: 0x330B9, size: 0x8, addend: 0x0, symName: __ZNSt3__119__unwrap_range_implIPKNS_12basic_stringIcNS_11char_traitsIcEENS_9allocatorIcEEEES8_E8__unwrapB8ue170006ES8_S8_, symObjAddr: 0x226C, symBinAddr: 0x100009768, symSize: 0x58 }
  - { offsetInCU: 0x8E71, offset: 0x330EF, size: 0x8, addend: 0x0, symName: __ZNSt3__14pairIPKNS_12basic_stringIcNS_11char_traitsIcEENS_9allocatorIcEEEES8_EC1B8ue170006IS8_S8_LPv0EEEOT_OT0_, symObjAddr: 0x22E8, symBinAddr: 0x1000097E4, symSize: 0x3C }
  - { offsetInCU: 0x8ECD, offset: 0x3314B, size: 0x8, addend: 0x0, symName: __ZNSt3__118__unwrap_iter_implIPKNS_12basic_stringIcNS_11char_traitsIcEENS_9allocatorIcEEEELb1EE8__unwrapB8ue170006ES8_, symObjAddr: 0x2324, symBinAddr: 0x100009820, symSize: 0x24 }
  - { offsetInCU: 0x8EF0, offset: 0x3316E, size: 0x8, addend: 0x0, symName: __ZNSt3__14pairIPKNS_12basic_stringIcNS_11char_traitsIcEENS_9allocatorIcEEEES8_EC2B8ue170006IS8_S8_LPv0EEEOT_OT0_, symObjAddr: 0x235C, symBinAddr: 0x100009858, symSize: 0x34 }
  - { offsetInCU: 0x8F4D, offset: 0x331CB, size: 0x8, addend: 0x0, symName: __ZNSt3__129_AllocatorDestroyRangeReverseINS_9allocatorINS_12basic_stringIcNS_11char_traitsIcEENS1_IcEEEEEEPS6_EC1B8ue170006ERS7_RS8_SB_, symObjAddr: 0x23DC, symBinAddr: 0x1000098D8, symSize: 0x44 }
  - { offsetInCU: 0x8FA5, offset: 0x33223, size: 0x8, addend: 0x0, symName: __ZNSt3__116allocator_traitsINS_9allocatorINS_12basic_stringIcNS_11char_traitsIcEENS1_IcEEEEEEE9constructB8ue170006IS6_JRKS6_EvvEEvRS7_PT_DpOT0_, symObjAddr: 0x2420, symBinAddr: 0x10000991C, symSize: 0x30 }
  - { offsetInCU: 0x8FFE, offset: 0x3327C, size: 0x8, addend: 0x0, symName: __ZNSt3__128__exception_guard_exceptionsINS_29_AllocatorDestroyRangeReverseINS_9allocatorINS_12basic_stringIcNS_11char_traitsIcEENS2_IcEEEEEEPS7_EEE10__completeB8ue170006Ev, symObjAddr: 0x2450, symBinAddr: 0x10000994C, symSize: 0x1C }
  - { offsetInCU: 0x9023, offset: 0x332A1, size: 0x8, addend: 0x0, symName: __ZNSt3__128__exception_guard_exceptionsINS_29_AllocatorDestroyRangeReverseINS_9allocatorINS_12basic_stringIcNS_11char_traitsIcEENS2_IcEEEEEEPS7_EEED1B8ue170006Ev, symObjAddr: 0x246C, symBinAddr: 0x100009968, symSize: 0x2C }
  - { offsetInCU: 0x904B, offset: 0x332C9, size: 0x8, addend: 0x0, symName: __ZNSt3__128__exception_guard_exceptionsINS_29_AllocatorDestroyRangeReverseINS_9allocatorINS_12basic_stringIcNS_11char_traitsIcEENS2_IcEEEEEEPS7_EEEC1B8ue170006ESA_, symObjAddr: 0x2498, symBinAddr: 0x100009994, symSize: 0x34 }
  - { offsetInCU: 0x9082, offset: 0x33300, size: 0x8, addend: 0x0, symName: __ZNSt3__128__exception_guard_exceptionsINS_29_AllocatorDestroyRangeReverseINS_9allocatorINS_12basic_stringIcNS_11char_traitsIcEENS2_IcEEEEEEPS7_EEEC2B8ue170006ESA_, symObjAddr: 0x24CC, symBinAddr: 0x1000099C8, symSize: 0x30 }
  - { offsetInCU: 0x90BA, offset: 0x33338, size: 0x8, addend: 0x0, symName: __ZNSt3__129_AllocatorDestroyRangeReverseINS_9allocatorINS_12basic_stringIcNS_11char_traitsIcEENS1_IcEEEEEEPS6_EC2B8ue170006ERS7_RS8_SB_, symObjAddr: 0x24FC, symBinAddr: 0x1000099F8, symSize: 0x38 }
  - { offsetInCU: 0x9113, offset: 0x33391, size: 0x8, addend: 0x0, symName: __ZNSt3__128__exception_guard_exceptionsINS_29_AllocatorDestroyRangeReverseINS_9allocatorINS_12basic_stringIcNS_11char_traitsIcEENS2_IcEEEEEEPS7_EEED2B8ue170006Ev, symObjAddr: 0x2570, symBinAddr: 0x100009A6C, symSize: 0x50 }
  - { offsetInCU: 0x913B, offset: 0x333B9, size: 0x8, addend: 0x0, symName: __ZNKSt3__129_AllocatorDestroyRangeReverseINS_9allocatorINS_12basic_stringIcNS_11char_traitsIcEENS1_IcEEEEEEPS6_EclB8ue170006Ev, symObjAddr: 0x25C0, symBinAddr: 0x100009ABC, symSize: 0x68 }
  - { offsetInCU: 0x9160, offset: 0x333DE, size: 0x8, addend: 0x0, symName: __ZNSt3__116reverse_iteratorIPNS_12basic_stringIcNS_11char_traitsIcEENS_9allocatorIcEEEEEC1B8ue170006ES7_, symObjAddr: 0x2698, symBinAddr: 0x100009B94, symSize: 0x34 }
  - { offsetInCU: 0x9196, offset: 0x33414, size: 0x8, addend: 0x0, symName: __ZNSt3__116allocator_traitsINS_9allocatorINS_12basic_stringIcNS_11char_traitsIcEENS1_IcEEEEEEE7destroyB8ue170006IS6_vvEEvRS7_PT_, symObjAddr: 0x2714, symBinAddr: 0x100009C10, symSize: 0x28 }
  - { offsetInCU: 0x91D4, offset: 0x33452, size: 0x8, addend: 0x0, symName: __ZNSt3__116reverse_iteratorIPNS_12basic_stringIcNS_11char_traitsIcEENS_9allocatorIcEEEEEppB8ue170006Ev, symObjAddr: 0x2760, symBinAddr: 0x100009C5C, symSize: 0x20 }
  - { offsetInCU: 0x91F9, offset: 0x33477, size: 0x8, addend: 0x0, symName: __ZNKSt3__116reverse_iteratorIPNS_12basic_stringIcNS_11char_traitsIcEENS_9allocatorIcEEEEE4baseB8ue170006Ev, symObjAddr: 0x2780, symBinAddr: 0x100009C7C, symSize: 0x18 }
  - { offsetInCU: 0x9223, offset: 0x334A1, size: 0x8, addend: 0x0, symName: __ZNSt3__119__to_address_helperINS_16reverse_iteratorIPNS_12basic_stringIcNS_11char_traitsIcEENS_9allocatorIcEEEEEEvE6__callB8ue170006ERKS9_, symObjAddr: 0x27E0, symBinAddr: 0x100009CDC, symSize: 0x38 }
  - { offsetInCU: 0x9246, offset: 0x334C4, size: 0x8, addend: 0x0, symName: __ZNKSt3__116reverse_iteratorIPNS_12basic_stringIcNS_11char_traitsIcEENS_9allocatorIcEEEEEptB8ue170006Ev, symObjAddr: 0x2818, symBinAddr: 0x100009D14, symSize: 0x2C }
  - { offsetInCU: 0x926B, offset: 0x334E9, size: 0x8, addend: 0x0, symName: __ZNSt3__116reverse_iteratorIPNS_12basic_stringIcNS_11char_traitsIcEENS_9allocatorIcEEEEEC2B8ue170006ES7_, symObjAddr: 0x28FC, symBinAddr: 0x100009DE4, symSize: 0x28 }
  - { offsetInCU: 0x92A2, offset: 0x33520, size: 0x8, addend: 0x0, symName: __ZNSt3__118__unwrap_iter_implIPNS_12basic_stringIcNS_11char_traitsIcEENS_9allocatorIcEEEELb1EE8__unwrapB8ue170006ES7_, symObjAddr: 0x2924, symBinAddr: 0x100009E0C, symSize: 0x24 }
  - { offsetInCU: 0x92C5, offset: 0x33543, size: 0x8, addend: 0x0, symName: __ZNSt3__118__unwrap_iter_implIPNS_12basic_stringIcNS_11char_traitsIcEENS_9allocatorIcEEEELb1EE8__rewrapB8ue170006ES7_S7_, symObjAddr: 0x2948, symBinAddr: 0x100009E30, symSize: 0x58 }
  - { offsetInCU: 0x92F6, offset: 0x33574, size: 0x8, addend: 0x0, symName: __ZNSt3__16vectorINS_12basic_stringIcNS_11char_traitsIcEENS_9allocatorIcEEEENS4_IS6_EEE21_ConstructTransactionD2B8ue170006Ev, symObjAddr: 0x29A0, symBinAddr: 0x100009E88, symSize: 0x20 }
  - { offsetInCU: 0x931F, offset: 0x3359D, size: 0x8, addend: 0x0, symName: __ZNSt3__128__exception_guard_exceptionsINS_6vectorINS_12basic_stringIcNS_11char_traitsIcEENS_9allocatorIcEEEENS5_IS7_EEE16__destroy_vectorEED2B8ue170006Ev, symObjAddr: 0x29C0, symBinAddr: 0x100009EA8, symSize: 0x50 }
  - { offsetInCU: 0x9347, offset: 0x335C5, size: 0x8, addend: 0x0, symName: __ZNSt3__16vectorINS_12basic_stringIcNS_11char_traitsIcEENS_9allocatorIcEEEENS4_IS6_EEE16__destroy_vectorclB8ue170006Ev, symObjAddr: 0x2A10, symBinAddr: 0x100009EF8, symSize: 0x90 }
  - { offsetInCU: 0x936C, offset: 0x335EA, size: 0x8, addend: 0x0, symName: __ZNSt3__16vectorINS_12basic_stringIcNS_11char_traitsIcEENS_9allocatorIcEEEENS4_IS6_EEE7__clearB8ue170006Ev, symObjAddr: 0x2AA0, symBinAddr: 0x100009F88, symSize: 0x28 }
  - { offsetInCU: 0x9391, offset: 0x3360F, size: 0x8, addend: 0x0, symName: __ZNKSt3__16vectorINS_12basic_stringIcNS_11char_traitsIcEENS_9allocatorIcEEEENS4_IS6_EEE17__annotate_deleteB8ue170006Ev, symObjAddr: 0x2AC8, symBinAddr: 0x100009FB0, symSize: 0xD4 }
  - { offsetInCU: 0x93B6, offset: 0x33634, size: 0x8, addend: 0x0, symName: __ZNSt3__116allocator_traitsINS_9allocatorINS_12basic_stringIcNS_11char_traitsIcEENS1_IcEEEEEEE10deallocateB8ue170006ERS7_PS6_m, symObjAddr: 0x2B9C, symBinAddr: 0x10000A084, symSize: 0x34 }
  - { offsetInCU: 0x93FB, offset: 0x33679, size: 0x8, addend: 0x0, symName: __ZNSt3__16vectorINS_12basic_stringIcNS_11char_traitsIcEENS_9allocatorIcEEEENS4_IS6_EEE22__base_destruct_at_endB8ue170006EPS6_, symObjAddr: 0x2BD0, symBinAddr: 0x10000A0B8, symSize: 0x8C }
  - { offsetInCU: 0x9440, offset: 0x336BE, size: 0x8, addend: 0x0, symName: __ZNKSt3__16vectorINS_12basic_stringIcNS_11char_traitsIcEENS_9allocatorIcEEEENS4_IS6_EEE4sizeB8ue170006Ev, symObjAddr: 0x2C5C, symBinAddr: 0x10000A144, symSize: 0x28 }
  - { offsetInCU: 0x9465, offset: 0x336E3, size: 0x8, addend: 0x0, symName: __ZNSt3__19allocatorINS_12basic_stringIcNS_11char_traitsIcEENS0_IcEEEEE10deallocateB8ue170006EPS5_m, symObjAddr: 0x2C84, symBinAddr: 0x10000A16C, symSize: 0x44 }
  - { offsetInCU: 0x94A6, offset: 0x33724, size: 0x8, addend: 0x0, symName: __ZNSt3__16vectorINS_12basic_stringIcNS_11char_traitsIcEENS_9allocatorIcEEEENS4_IS6_EEEC2B8ue170006Ev, symObjAddr: 0x2DD0, symBinAddr: 0x10000A1B0, symSize: 0x4C }
  - { offsetInCU: 0x94CE, offset: 0x3374C, size: 0x8, addend: 0x0, symName: __ZNSt3__16vectorINS_12basic_stringIcNS_11char_traitsIcEENS_9allocatorIcEEEENS4_IS6_EEE22__construct_one_at_endB8ue170006IJS6_EEEvDpOT_, symObjAddr: 0x2E1C, symBinAddr: 0x10000A1FC, symSize: 0x90 }
  - { offsetInCU: 0x951D, offset: 0x3379B, size: 0x8, addend: 0x0, symName: __ZNSt3__16vectorINS_12basic_stringIcNS_11char_traitsIcEENS_9allocatorIcEEEENS4_IS6_EEE24__emplace_back_slow_pathIJS6_EEEvDpOT_, symObjAddr: 0x2EAC, symBinAddr: 0x10000A28C, symSize: 0xD8 }
  - { offsetInCU: 0x9580, offset: 0x337FE, size: 0x8, addend: 0x0, symName: __ZNSt3__16vectorINS_12basic_stringIcNS_11char_traitsIcEENS_9allocatorIcEEEENS4_IS6_EEE4backB8ue170006Ev, symObjAddr: 0x2F84, symBinAddr: 0x10000A364, symSize: 0x1C }
  - { offsetInCU: 0x95A5, offset: 0x33823, size: 0x8, addend: 0x0, symName: __ZNSt3__116allocator_traitsINS_9allocatorINS_12basic_stringIcNS_11char_traitsIcEENS1_IcEEEEEEE9constructB8ue170006IS6_JS6_EvvEEvRS7_PT_DpOT0_, symObjAddr: 0x2FA0, symBinAddr: 0x10000A380, symSize: 0x30 }
  - { offsetInCU: 0x95FE, offset: 0x3387C, size: 0x8, addend: 0x0, symName: __ZNSt3__112basic_stringIcNS_11char_traitsIcEENS_9allocatorIcEEEC1B8ue170006EOS5_, symObjAddr: 0x300C, symBinAddr: 0x10000A3EC, symSize: 0x34 }
  - { offsetInCU: 0x9636, offset: 0x338B4, size: 0x8, addend: 0x0, symName: __ZNSt3__112basic_stringIcNS_11char_traitsIcEENS_9allocatorIcEEEC2B8ue170006EOS5_, symObjAddr: 0x3040, symBinAddr: 0x10000A420, symSize: 0x50 }
  - { offsetInCU: 0x966E, offset: 0x338EC, size: 0x8, addend: 0x0, symName: __ZNSt3__112basic_stringIcNS_11char_traitsIcEENS_9allocatorIcEEE14__default_initB8ue170006Ev, symObjAddr: 0x3090, symBinAddr: 0x10000A470, symSize: 0x40 }
  - { offsetInCU: 0x9693, offset: 0x33911, size: 0x8, addend: 0x0, symName: __ZNSt3__117__compressed_pairINS_12basic_stringIcNS_11char_traitsIcEENS_9allocatorIcEEE5__repES5_E5firstB8ue170006Ev, symObjAddr: 0x30D0, symBinAddr: 0x10000A4B0, symSize: 0x24 }
  - { offsetInCU: 0x96B8, offset: 0x33936, size: 0x8, addend: 0x0, symName: __ZNSt3__122__compressed_pair_elemINS_12basic_stringIcNS_11char_traitsIcEENS_9allocatorIcEEE5__repELi0ELb0EE5__getB8ue170006Ev, symObjAddr: 0x30F4, symBinAddr: 0x10000A4D4, symSize: 0x14 }
  - { offsetInCU: 0x96DC, offset: 0x3395A, size: 0x8, addend: 0x0, symName: __ZNKSt3__16vectorINS_12basic_stringIcNS_11char_traitsIcEENS_9allocatorIcEEEENS4_IS6_EEE11__recommendB8ue170006Em, symObjAddr: 0x3108, symBinAddr: 0x10000A4E8, symSize: 0xB4 }
  - { offsetInCU: 0x9734, offset: 0x339B2, size: 0x8, addend: 0x0, symName: __ZNSt3__114__split_bufferINS_12basic_stringIcNS_11char_traitsIcEENS_9allocatorIcEEEERNS4_IS6_EEEC1EmmS8_, symObjAddr: 0x31BC, symBinAddr: 0x10000A59C, symSize: 0x44 }
  - { offsetInCU: 0x9789, offset: 0x33A07, size: 0x8, addend: 0x0, symName: __ZNSt3__114__split_bufferINS_12basic_stringIcNS_11char_traitsIcEENS_9allocatorIcEEEERNS4_IS6_EEED1Ev, symObjAddr: 0x3310, symBinAddr: 0x10000A6F0, symSize: 0x2C }
  - { offsetInCU: 0x97B4, offset: 0x33A32, size: 0x8, addend: 0x0, symName: __ZNSt3__114__split_bufferINS_12basic_stringIcNS_11char_traitsIcEENS_9allocatorIcEEEERNS4_IS6_EEEC2EmmS8_, symObjAddr: 0x33BC, symBinAddr: 0x10000A79C, symSize: 0xE0 }
  - { offsetInCU: 0x9828, offset: 0x33AA6, size: 0x8, addend: 0x0, symName: __ZNSt3__117__compressed_pairIPNS_12basic_stringIcNS_11char_traitsIcEENS_9allocatorIcEEEERNS4_IS6_EEEC1B8ue170006IDnS9_EEOT_OT0_, symObjAddr: 0x349C, symBinAddr: 0x10000A87C, symSize: 0x3C }
  - { offsetInCU: 0x987E, offset: 0x33AFC, size: 0x8, addend: 0x0, symName: __ZNSt3__114__split_bufferINS_12basic_stringIcNS_11char_traitsIcEENS_9allocatorIcEEEERNS4_IS6_EEE7__allocB8ue170006Ev, symObjAddr: 0x34D8, symBinAddr: 0x10000A8B8, symSize: 0x28 }
  - { offsetInCU: 0x98A3, offset: 0x33B21, size: 0x8, addend: 0x0, symName: __ZNSt3__114__split_bufferINS_12basic_stringIcNS_11char_traitsIcEENS_9allocatorIcEEEERNS4_IS6_EEE9__end_capB8ue170006Ev, symObjAddr: 0x3500, symBinAddr: 0x10000A8E0, symSize: 0x28 }
  - { offsetInCU: 0x98C8, offset: 0x33B46, size: 0x8, addend: 0x0, symName: __ZNSt3__117__compressed_pairIPNS_12basic_stringIcNS_11char_traitsIcEENS_9allocatorIcEEEERNS4_IS6_EEEC2B8ue170006IDnS9_EEOT_OT0_, symObjAddr: 0x3528, symBinAddr: 0x10000A908, symSize: 0x48 }
  - { offsetInCU: 0x991E, offset: 0x33B9C, size: 0x8, addend: 0x0, symName: __ZNSt3__122__compressed_pair_elemIRNS_9allocatorINS_12basic_stringIcNS_11char_traitsIcEENS1_IcEEEEEELi1ELb0EEC2B8ue170006IS8_vEEOT_, symObjAddr: 0x3570, symBinAddr: 0x10000A950, symSize: 0x20 }
  - { offsetInCU: 0x9960, offset: 0x33BDE, size: 0x8, addend: 0x0, symName: __ZNSt3__117__compressed_pairIPNS_12basic_stringIcNS_11char_traitsIcEENS_9allocatorIcEEEERNS4_IS6_EEE6secondB8ue170006Ev, symObjAddr: 0x3590, symBinAddr: 0x10000A970, symSize: 0x28 }
  - { offsetInCU: 0x9985, offset: 0x33C03, size: 0x8, addend: 0x0, symName: __ZNSt3__122__compressed_pair_elemIRNS_9allocatorINS_12basic_stringIcNS_11char_traitsIcEENS1_IcEEEEEELi1ELb0EE5__getB8ue170006Ev, symObjAddr: 0x35B8, symBinAddr: 0x10000A998, symSize: 0x18 }
  - { offsetInCU: 0x99AA, offset: 0x33C28, size: 0x8, addend: 0x0, symName: __ZNSt3__117__compressed_pairIPNS_12basic_stringIcNS_11char_traitsIcEENS_9allocatorIcEEEERNS4_IS6_EEE5firstB8ue170006Ev, symObjAddr: 0x35D0, symBinAddr: 0x10000A9B0, symSize: 0x24 }
  - { offsetInCU: 0x99CF, offset: 0x33C4D, size: 0x8, addend: 0x0, symName: __ZNSt3__129_AllocatorDestroyRangeReverseINS_9allocatorINS_12basic_stringIcNS_11char_traitsIcEENS1_IcEEEEEENS_16reverse_iteratorIPS6_EEEC1B8ue170006ERS7_RSA_SD_, symObjAddr: 0x37A0, symBinAddr: 0x10000AB80, symSize: 0x44 }
  - { offsetInCU: 0x9A27, offset: 0x33CA5, size: 0x8, addend: 0x0, symName: __ZNKSt3__116reverse_iteratorIPNS_12basic_stringIcNS_11char_traitsIcEENS_9allocatorIcEEEEEdeB8ue170006Ev, symObjAddr: 0x37E4, symBinAddr: 0x10000ABC4, symSize: 0x28 }
  - { offsetInCU: 0x9A5A, offset: 0x33CD8, size: 0x8, addend: 0x0, symName: __ZNSt3__128__exception_guard_exceptionsINS_29_AllocatorDestroyRangeReverseINS_9allocatorINS_12basic_stringIcNS_11char_traitsIcEENS2_IcEEEEEENS_16reverse_iteratorIPS7_EEEEE10__completeB8ue170006Ev, symObjAddr: 0x380C, symBinAddr: 0x10000ABEC, symSize: 0x1C }
  - { offsetInCU: 0x9A7F, offset: 0x33CFD, size: 0x8, addend: 0x0, symName: __ZNSt3__128__exception_guard_exceptionsINS_29_AllocatorDestroyRangeReverseINS_9allocatorINS_12basic_stringIcNS_11char_traitsIcEENS2_IcEEEEEENS_16reverse_iteratorIPS7_EEEEED1B8ue170006Ev, symObjAddr: 0x3828, symBinAddr: 0x10000AC08, symSize: 0x2C }
  - { offsetInCU: 0x9AA7, offset: 0x33D25, size: 0x8, addend: 0x0, symName: __ZNSt3__128__exception_guard_exceptionsINS_29_AllocatorDestroyRangeReverseINS_9allocatorINS_12basic_stringIcNS_11char_traitsIcEENS2_IcEEEEEENS_16reverse_iteratorIPS7_EEEEEC1B8ue170006ESC_, symObjAddr: 0x3854, symBinAddr: 0x10000AC34, symSize: 0x34 }
  - { offsetInCU: 0x9ADE, offset: 0x33D5C, size: 0x8, addend: 0x0, symName: __ZNSt3__128__exception_guard_exceptionsINS_29_AllocatorDestroyRangeReverseINS_9allocatorINS_12basic_stringIcNS_11char_traitsIcEENS2_IcEEEEEENS_16reverse_iteratorIPS7_EEEEEC2B8ue170006ESC_, symObjAddr: 0x3888, symBinAddr: 0x10000AC68, symSize: 0x30 }
  - { offsetInCU: 0x9B16, offset: 0x33D94, size: 0x8, addend: 0x0, symName: __ZNSt3__129_AllocatorDestroyRangeReverseINS_9allocatorINS_12basic_stringIcNS_11char_traitsIcEENS1_IcEEEEEENS_16reverse_iteratorIPS6_EEEC2B8ue170006ERS7_RSA_SD_, symObjAddr: 0x38B8, symBinAddr: 0x10000AC98, symSize: 0x38 }
  - { offsetInCU: 0x9B6F, offset: 0x33DED, size: 0x8, addend: 0x0, symName: __ZNSt3__128__exception_guard_exceptionsINS_29_AllocatorDestroyRangeReverseINS_9allocatorINS_12basic_stringIcNS_11char_traitsIcEENS2_IcEEEEEENS_16reverse_iteratorIPS7_EEEEED2B8ue170006Ev, symObjAddr: 0x38F0, symBinAddr: 0x10000ACD0, symSize: 0x50 }
  - { offsetInCU: 0x9B97, offset: 0x33E15, size: 0x8, addend: 0x0, symName: __ZNKSt3__129_AllocatorDestroyRangeReverseINS_9allocatorINS_12basic_stringIcNS_11char_traitsIcEENS1_IcEEEEEENS_16reverse_iteratorIPS6_EEEclB8ue170006Ev, symObjAddr: 0x3940, symBinAddr: 0x10000AD20, symSize: 0xB4 }
  - { offsetInCU: 0x9BBD, offset: 0x33E3B, size: 0x8, addend: 0x0, symName: __ZNSt3__116reverse_iteratorINS0_IPNS_12basic_stringIcNS_11char_traitsIcEENS_9allocatorIcEEEEEEEC1B8ue170006ES8_, symObjAddr: 0x3A64, symBinAddr: 0x10000AE44, symSize: 0x3C }
  - { offsetInCU: 0x9BF3, offset: 0x33E71, size: 0x8, addend: 0x0, symName: __ZNSt3__116reverse_iteratorINS0_IPNS_12basic_stringIcNS_11char_traitsIcEENS_9allocatorIcEEEEEEEppB8ue170006Ev, symObjAddr: 0x3B24, symBinAddr: 0x10000AF04, symSize: 0x30 }
  - { offsetInCU: 0x9C18, offset: 0x33E96, size: 0x8, addend: 0x0, symName: __ZNKSt3__116reverse_iteratorINS0_IPNS_12basic_stringIcNS_11char_traitsIcEENS_9allocatorIcEEEEEEE4baseB8ue170006Ev, symObjAddr: 0x3B54, symBinAddr: 0x10000AF34, symSize: 0x24 }
  - { offsetInCU: 0x9C42, offset: 0x33EC0, size: 0x8, addend: 0x0, symName: __ZNSt3__119__to_address_helperINS_16reverse_iteratorINS1_IPNS_12basic_stringIcNS_11char_traitsIcEENS_9allocatorIcEEEEEEEEvE6__callB8ue170006ERKSA_, symObjAddr: 0x3B78, symBinAddr: 0x10000AF58, symSize: 0x38 }
  - { offsetInCU: 0x9C65, offset: 0x33EE3, size: 0x8, addend: 0x0, symName: __ZNKSt3__116reverse_iteratorINS0_IPNS_12basic_stringIcNS_11char_traitsIcEENS_9allocatorIcEEEEEEEptB8ue170006Ev, symObjAddr: 0x3BB0, symBinAddr: 0x10000AF90, symSize: 0x4C }
  - { offsetInCU: 0x9C8A, offset: 0x33F08, size: 0x8, addend: 0x0, symName: __ZNSt3__116reverse_iteratorIPNS_12basic_stringIcNS_11char_traitsIcEENS_9allocatorIcEEEEEpLB8ue170006El, symObjAddr: 0x3CAC, symBinAddr: 0x10000B08C, symSize: 0x30 }
  - { offsetInCU: 0x9CBD, offset: 0x33F3B, size: 0x8, addend: 0x0, symName: __ZNSt3__116reverse_iteratorIPNS_12basic_stringIcNS_11char_traitsIcEENS_9allocatorIcEEEEEmmB8ue170006Ev, symObjAddr: 0x3CDC, symBinAddr: 0x10000B0BC, symSize: 0x20 }
  - { offsetInCU: 0x9CE2, offset: 0x33F60, size: 0x8, addend: 0x0, symName: __ZNSt3__116reverse_iteratorINS0_IPNS_12basic_stringIcNS_11char_traitsIcEENS_9allocatorIcEEEEEEEC2B8ue170006ES8_, symObjAddr: 0x3CFC, symBinAddr: 0x10000B0DC, symSize: 0x2C }
  - { offsetInCU: 0x9D19, offset: 0x33F97, size: 0x8, addend: 0x0, symName: __ZNSt3__114__split_bufferINS_12basic_stringIcNS_11char_traitsIcEENS_9allocatorIcEEEERNS4_IS6_EEED2Ev, symObjAddr: 0x3D28, symBinAddr: 0x10000B108, symSize: 0x8C }
  - { offsetInCU: 0x9D44, offset: 0x33FC2, size: 0x8, addend: 0x0, symName: __ZNSt3__114__split_bufferINS_12basic_stringIcNS_11char_traitsIcEENS_9allocatorIcEEEERNS4_IS6_EEE5clearB8ue170006Ev, symObjAddr: 0x3DB4, symBinAddr: 0x10000B194, symSize: 0x28 }
  - { offsetInCU: 0x9D69, offset: 0x33FE7, size: 0x8, addend: 0x0, symName: __ZNKSt3__114__split_bufferINS_12basic_stringIcNS_11char_traitsIcEENS_9allocatorIcEEEERNS4_IS6_EEE8capacityB8ue170006Ev, symObjAddr: 0x3DDC, symBinAddr: 0x10000B1BC, symSize: 0x40 }
  - { offsetInCU: 0x9D8E, offset: 0x3400C, size: 0x8, addend: 0x0, symName: __ZNSt3__114__split_bufferINS_12basic_stringIcNS_11char_traitsIcEENS_9allocatorIcEEEERNS4_IS6_EEE17__destruct_at_endB8ue170006EPS6_, symObjAddr: 0x3E1C, symBinAddr: 0x10000B1FC, symSize: 0x2C }
  - { offsetInCU: 0x9DC0, offset: 0x3403E, size: 0x8, addend: 0x0, symName: __ZNSt3__114__split_bufferINS_12basic_stringIcNS_11char_traitsIcEENS_9allocatorIcEEEERNS4_IS6_EEE17__destruct_at_endB8ue170006EPS6_NS_17integral_constantIbLb0EEE, symObjAddr: 0x3E48, symBinAddr: 0x10000B228, symSize: 0x80 }
  - { offsetInCU: 0x9E01, offset: 0x3407F, size: 0x8, addend: 0x0, symName: __ZNKSt3__114__split_bufferINS_12basic_stringIcNS_11char_traitsIcEENS_9allocatorIcEEEERNS4_IS6_EEE9__end_capB8ue170006Ev, symObjAddr: 0x3EC8, symBinAddr: 0x10000B2A8, symSize: 0x28 }
  - { offsetInCU: 0x9E26, offset: 0x340A4, size: 0x8, addend: 0x0, symName: __ZNKSt3__117__compressed_pairIPNS_12basic_stringIcNS_11char_traitsIcEENS_9allocatorIcEEEERNS4_IS6_EEE5firstB8ue170006Ev, symObjAddr: 0x3EF0, symBinAddr: 0x10000B2D0, symSize: 0x24 }
  - { offsetInCU: 0x9E4B, offset: 0x340C9, size: 0x8, addend: 0x0, symName: __ZNSt3__16vectorINS_12basic_stringIcNS_11char_traitsIcEENS_9allocatorIcEEEENS4_IS6_EEED2B8ue170006Ev, symObjAddr: 0x3F14, symBinAddr: 0x10000B2F4, symSize: 0x40 }
  - { offsetInCU: 0x9E73, offset: 0x340F1, size: 0x8, addend: 0x0, symName: __ZNSt3__112basic_stringIcNS_11char_traitsIcEENS_9allocatorIcEEE15__make_iteratorB8ue170006EPc, symObjAddr: 0x3F54, symBinAddr: 0x10000B334, symSize: 0x30 }
  - { offsetInCU: 0x9EA8, offset: 0x34126, size: 0x8, addend: 0x0, symName: __ZNSt3__112basic_stringIcNS_11char_traitsIcEENS_9allocatorIcEEE13__get_pointerB8ue170006Ev, symObjAddr: 0x3F84, symBinAddr: 0x10000B364, symSize: 0x54 }
  - { offsetInCU: 0x9ECD, offset: 0x3414B, size: 0x8, addend: 0x0, symName: __ZNSt3__111__wrap_iterIPcEC1B8ue170006ES1_, symObjAddr: 0x3FD8, symBinAddr: 0x10000B3B8, symSize: 0x34 }
  - { offsetInCU: 0x9F03, offset: 0x34181, size: 0x8, addend: 0x0, symName: __ZNSt3__111__wrap_iterIPcEC2B8ue170006ES1_, symObjAddr: 0x400C, symBinAddr: 0x10000B3EC, symSize: 0x20 }
  - { offsetInCU: 0x9F3A, offset: 0x341B8, size: 0x8, addend: 0x0, symName: __ZNSt3__112basic_stringIcNS_11char_traitsIcEENS_9allocatorIcEEE18__get_long_pointerB8ue170006Ev, symObjAddr: 0x402C, symBinAddr: 0x10000B40C, symSize: 0x28 }
  - { offsetInCU: 0x9F5F, offset: 0x341DD, size: 0x8, addend: 0x0, symName: __ZNSt3__112basic_stringIcNS_11char_traitsIcEENS_9allocatorIcEEE19__get_short_pointerB8ue170006Ev, symObjAddr: 0x4054, symBinAddr: 0x10000B434, symSize: 0x28 }
  - { offsetInCU: 0x9F84, offset: 0x34202, size: 0x8, addend: 0x0, symName: __ZNSt3__114pointer_traitsIPcE10pointer_toB8ue170006ERc, symObjAddr: 0x407C, symBinAddr: 0x10000B45C, symSize: 0x14 }
  - { offsetInCU: 0x9FA7, offset: 0x34225, size: 0x8, addend: 0x0, symName: __ZNKSt3__111__wrap_iterIPcE4baseB8ue170006Ev, symObjAddr: 0x40D8, symBinAddr: 0x10000B4B8, symSize: 0x18 }
  - { offsetInCU: 0x9FCC, offset: 0x3424A, size: 0x8, addend: 0x0, symName: __ZNSt3__111char_traitsIcE2eqEcc, symObjAddr: 0x41C0, symBinAddr: 0x10000B5A0, symSize: 0x28 }
  - { offsetInCU: 0x9FFD, offset: 0x3427B, size: 0x8, addend: 0x0, symName: __ZNSt3__18optionalIcEC2B8ue170006ENS_9nullopt_tE, symObjAddr: 0x41E8, symBinAddr: 0x10000B5C8, symSize: 0x2C }
  - { offsetInCU: 0xA036, offset: 0x342B4, size: 0x8, addend: 0x0, symName: __ZNSt3__127__optional_move_assign_baseIcLb1EEC2Ev, symObjAddr: 0x4214, symBinAddr: 0x10000B5F4, symSize: 0x2C }
  - { offsetInCU: 0xA067, offset: 0x342E5, size: 0x8, addend: 0x0, symName: __ZNSt3__127__optional_copy_assign_baseIcLb1EEC2Ev, symObjAddr: 0x4240, symBinAddr: 0x10000B620, symSize: 0x2C }
  - { offsetInCU: 0xA098, offset: 0x34316, size: 0x8, addend: 0x0, symName: __ZNSt3__120__optional_move_baseIcLb1EEC2Ev, symObjAddr: 0x426C, symBinAddr: 0x10000B64C, symSize: 0x2C }
  - { offsetInCU: 0xA0C9, offset: 0x34347, size: 0x8, addend: 0x0, symName: __ZNSt3__120__optional_copy_baseIcLb1EEC2Ev, symObjAddr: 0x4298, symBinAddr: 0x10000B678, symSize: 0x2C }
  - { offsetInCU: 0xA0F5, offset: 0x34373, size: 0x8, addend: 0x0, symName: __ZNSt3__123__optional_storage_baseIcLb0EEC2Ev, symObjAddr: 0x42C4, symBinAddr: 0x10000B6A4, symSize: 0x2C }
  - { offsetInCU: 0xA121, offset: 0x3439F, size: 0x8, addend: 0x0, symName: __ZNSt3__124__optional_destruct_baseIcLb1EEC2B8ue170006Ev, symObjAddr: 0x42F0, symBinAddr: 0x10000B6D0, symSize: 0x1C }
  - { offsetInCU: 0xA14A, offset: 0x343C8, size: 0x8, addend: 0x0, symName: __ZNSt3__18optionalIcEC2B8ue170006IRKcLi0EEEOT_, symObjAddr: 0x430C, symBinAddr: 0x10000B6EC, symSize: 0x34 }
  - { offsetInCU: 0xA191, offset: 0x3440F, size: 0x8, addend: 0x0, symName: __ZNSt3__127__optional_move_assign_baseIcLb1EECI2NS_24__optional_destruct_baseIcLb1EEEIJRKcEEENS_10in_place_tEDpOT_, symObjAddr: 0x4340, symBinAddr: 0x10000B720, symSize: 0x34 }
  - { offsetInCU: 0xA1CF, offset: 0x3444D, size: 0x8, addend: 0x0, symName: __ZNSt3__127__optional_copy_assign_baseIcLb1EECI2NS_24__optional_destruct_baseIcLb1EEEIJRKcEEENS_10in_place_tEDpOT_, symObjAddr: 0x4374, symBinAddr: 0x10000B754, symSize: 0x34 }
  - { offsetInCU: 0xA20D, offset: 0x3448B, size: 0x8, addend: 0x0, symName: __ZNSt3__120__optional_move_baseIcLb1EECI2NS_24__optional_destruct_baseIcLb1EEEIJRKcEEENS_10in_place_tEDpOT_, symObjAddr: 0x43A8, symBinAddr: 0x10000B788, symSize: 0x34 }
  - { offsetInCU: 0xA24B, offset: 0x344C9, size: 0x8, addend: 0x0, symName: __ZNSt3__120__optional_copy_baseIcLb1EECI2NS_24__optional_destruct_baseIcLb1EEEIJRKcEEENS_10in_place_tEDpOT_, symObjAddr: 0x43DC, symBinAddr: 0x10000B7BC, symSize: 0x34 }
  - { offsetInCU: 0xA289, offset: 0x34507, size: 0x8, addend: 0x0, symName: __ZNSt3__123__optional_storage_baseIcLb0EECI2NS_24__optional_destruct_baseIcLb1EEEIJRKcEEENS_10in_place_tEDpOT_, symObjAddr: 0x4410, symBinAddr: 0x10000B7F0, symSize: 0x34 }
  - { offsetInCU: 0xA2C7, offset: 0x34545, size: 0x8, addend: 0x0, symName: __ZNSt3__124__optional_destruct_baseIcLb1EEC2B8ue170006IJRKcEEENS_10in_place_tEDpOT_, symObjAddr: 0x4444, symBinAddr: 0x10000B824, symSize: 0x2C }
  - { offsetInCU: 0xA317, offset: 0x34595, size: 0x8, addend: 0x0, symName: __ZNKSt3__112basic_stringIcNS_11char_traitsIcEENS_9allocatorIcEEE21__make_const_iteratorB8ue170006EPKc, symObjAddr: 0x4470, symBinAddr: 0x10000B850, symSize: 0x30 }
  - { offsetInCU: 0xA34C, offset: 0x345CA, size: 0x8, addend: 0x0, symName: __ZNSt3__111__wrap_iterIPKcEC1B8ue170006ES2_, symObjAddr: 0x44A0, symBinAddr: 0x10000B880, symSize: 0x34 }
  - { offsetInCU: 0xA382, offset: 0x34600, size: 0x8, addend: 0x0, symName: __ZNSt3__111__wrap_iterIPKcEC2B8ue170006ES2_, symObjAddr: 0x44D4, symBinAddr: 0x10000B8B4, symSize: 0x20 }
  - { offsetInCU: 0xA3B9, offset: 0x34637, size: 0x8, addend: 0x0, symName: __ZNKSt3__111__wrap_iterIPKcE4baseB8ue170006Ev, symObjAddr: 0x453C, symBinAddr: 0x10000B91C, symSize: 0x18 }
  - { offsetInCU: 0xDE9A, offset: 0x425D1, size: 0x8, addend: 0x0, symName: __ZNSt3__13minB8ue170006IiEERKT_S3_S3_, symObjAddr: 0x374, symBinAddr: 0x10000BC84, symSize: 0x2C }
  - { offsetInCU: 0xDEDD, offset: 0x42614, size: 0x8, addend: 0x0, symName: __ZNSt3__111make_sharedB8ue170006I23FixedPositionMoveActionJR8PositionEvEENS_10shared_ptrIT_EEDpOT0_, symObjAddr: 0x5E8, symBinAddr: 0x10000BEF8, symSize: 0x40 }
  - { offsetInCU: 0xE13F, offset: 0x42876, size: 0x8, addend: 0x0, symName: __ZNSt3__13minB8ue170006IiNS_6__lessIvvEEEERKT_S5_S5_T0_, symObjAddr: 0x7A8, symBinAddr: 0x10000BF98, symSize: 0x54 }
  - { offsetInCU: 0xE1E0, offset: 0x42917, size: 0x8, addend: 0x0, symName: __ZNSt3__115allocate_sharedB8ue170006I23FixedPositionMoveActionNS_9allocatorIS1_EEJR8PositionEvEENS_10shared_ptrIT_EERKT0_DpOT1_, symObjAddr: 0xDF0, symBinAddr: 0x10000C5E0, symSize: 0x98 }
  - { offsetInCU: 0xE598, offset: 0x42CCF, size: 0x8, addend: 0x0, symName: __ZNSt3__112construct_atB8ue170006I23FixedPositionMoveActionJR8PositionEPS1_EEPT_S6_DpOT0_, symObjAddr: 0x1668, symBinAddr: 0x10000CD38, symSize: 0x48 }
  - { offsetInCU: 0xE60A, offset: 0x42D41, size: 0x8, addend: 0x0, symName: __ZNSt3__110destroy_atB8ue170006I23FixedPositionMoveActionLi0EEEvPT_, symObjAddr: 0x1758, symBinAddr: 0x10000CE1C, symSize: 0x24 }
  - { offsetInCU: 0xE642, offset: 0x42D79, size: 0x8, addend: 0x0, symName: __ZNSt3__112__destroy_atB8ue170006I23FixedPositionMoveActionLi0EEEvPT_, symObjAddr: 0x177C, symBinAddr: 0x10000CE40, symSize: 0x2C }
  - { offsetInCU: 0xE6AD, offset: 0x42DE4, size: 0x8, addend: 0x0, symName: __ZNSt3__134__libcpp_atomic_refcount_decrementB8ue170006IlEET_RS1_, symObjAddr: 0x1BA8, symBinAddr: 0x10000D164, symSize: 0x30 }
  - { offsetInCU: 0x1162E, offset: 0x45D65, size: 0x8, addend: 0x0, symName: __ZN10EditorMode20isClickPositionValidE8Positioni10ScreenSize, symObjAddr: 0x0, symBinAddr: 0x10000B934, symSize: 0xC4 }
  - { offsetInCU: 0x1167F, offset: 0x45DB6, size: 0x8, addend: 0x0, symName: __ZN10EditorMode22convertToLogicPositionE8Position14ParsingContext, symObjAddr: 0xC4, symBinAddr: 0x10000B9F8, symSize: 0x260 }
  - { offsetInCU: 0x11770, offset: 0x45EA7, size: 0x8, addend: 0x0, symName: __ZNK11EditorState12getParagraphEm, symObjAddr: 0x324, symBinAddr: 0x10000BC58, symSize: 0x2C }
  - { offsetInCU: 0x117A3, offset: 0x45EDA, size: 0x8, addend: 0x0, symName: __ZN8PositionC1Eii, symObjAddr: 0x3A0, symBinAddr: 0x10000BCB0, symSize: 0x3C }
  - { offsetInCU: 0x117E7, offset: 0x45F1E, size: 0x8, addend: 0x0, symName: __ZNK11EditorState21getNumberOfParagrahpsEv, symObjAddr: 0x3DC, symBinAddr: 0x10000BCEC, symSize: 0x2C }
  - { offsetInCU: 0x1180C, offset: 0x45F43, size: 0x8, addend: 0x0, symName: __ZN10EditorMode18parseMouseMovementE8Position14ParsingContext, symObjAddr: 0x408, symBinAddr: 0x10000BD18, symSize: 0x154 }
  - { offsetInCU: 0x11872, offset: 0x45FA9, size: 0x8, addend: 0x0, symName: __ZNSt3__18optionalI8ModeTypeEC1B8ue170006IS1_Li0EEEOT_, symObjAddr: 0x55C, symBinAddr: 0x10000BE6C, symSize: 0x34 }
  - { offsetInCU: 0x118B9, offset: 0x45FF0, size: 0x8, addend: 0x0, symName: __ZNSt3__18optionalINS_10shared_ptrI6ActionEEEC1B8ue170006Ev, symObjAddr: 0x590, symBinAddr: 0x10000BEA0, symSize: 0x2C }
  - { offsetInCU: 0x118E1, offset: 0x46018, size: 0x8, addend: 0x0, symName: __ZNSt3__18optionalI8ModeTypeEC1B8ue170006ENS_9nullopt_tE, symObjAddr: 0x5BC, symBinAddr: 0x10000BECC, symSize: 0x2C }
  - { offsetInCU: 0x11938, offset: 0x4606F, size: 0x8, addend: 0x0, symName: __ZNSt3__18optionalINS_10shared_ptrI6ActionEEEC1B8ue170006INS1_I23FixedPositionMoveActionEELi0EEEOT_, symObjAddr: 0x628, symBinAddr: 0x10000BF38, symSize: 0x34 }
  - { offsetInCU: 0x1197F, offset: 0x460B6, size: 0x8, addend: 0x0, symName: __ZNSt3__110shared_ptrI23FixedPositionMoveActionED1B8ue170006Ev, symObjAddr: 0x65C, symBinAddr: 0x10000BF6C, symSize: 0x2C }
  - { offsetInCU: 0x119B6, offset: 0x460ED, size: 0x8, addend: 0x0, symName: __ZNKSt3__16__lessIvvEclB8ue170006IiiEEbRKT_RKT0_, symObjAddr: 0x7FC, symBinAddr: 0x10000BFEC, symSize: 0x34 }
  - { offsetInCU: 0x11A09, offset: 0x46140, size: 0x8, addend: 0x0, symName: __ZN8PositionC2Eii, symObjAddr: 0x830, symBinAddr: 0x10000C020, symSize: 0x2C }
  - { offsetInCU: 0x11A4E, offset: 0x46185, size: 0x8, addend: 0x0, symName: __ZNSt3__18optionalI8ModeTypeEC2B8ue170006IS1_Li0EEEOT_, symObjAddr: 0x85C, symBinAddr: 0x10000C04C, symSize: 0x34 }
  - { offsetInCU: 0x11A9A, offset: 0x461D1, size: 0x8, addend: 0x0, symName: __ZNSt3__127__optional_move_assign_baseI8ModeTypeLb1EECI2NS_24__optional_destruct_baseIS1_Lb1EEEIJS1_EEENS_10in_place_tEDpOT_, symObjAddr: 0x890, symBinAddr: 0x10000C080, symSize: 0x34 }
  - { offsetInCU: 0x11ADD, offset: 0x46214, size: 0x8, addend: 0x0, symName: __ZNSt3__127__optional_copy_assign_baseI8ModeTypeLb1EECI2NS_24__optional_destruct_baseIS1_Lb1EEEIJS1_EEENS_10in_place_tEDpOT_, symObjAddr: 0x8C4, symBinAddr: 0x10000C0B4, symSize: 0x34 }
  - { offsetInCU: 0x11B20, offset: 0x46257, size: 0x8, addend: 0x0, symName: __ZNSt3__120__optional_move_baseI8ModeTypeLb1EECI2NS_24__optional_destruct_baseIS1_Lb1EEEIJS1_EEENS_10in_place_tEDpOT_, symObjAddr: 0x8F8, symBinAddr: 0x10000C0E8, symSize: 0x34 }
  - { offsetInCU: 0x11B63, offset: 0x4629A, size: 0x8, addend: 0x0, symName: __ZNSt3__120__optional_copy_baseI8ModeTypeLb1EECI2NS_24__optional_destruct_baseIS1_Lb1EEEIJS1_EEENS_10in_place_tEDpOT_, symObjAddr: 0x92C, symBinAddr: 0x10000C11C, symSize: 0x34 }
  - { offsetInCU: 0x11BA1, offset: 0x462D8, size: 0x8, addend: 0x0, symName: __ZNSt3__123__optional_storage_baseI8ModeTypeLb0EECI2NS_24__optional_destruct_baseIS1_Lb1EEEIJS1_EEENS_10in_place_tEDpOT_, symObjAddr: 0x960, symBinAddr: 0x10000C150, symSize: 0x34 }
  - { offsetInCU: 0x11BDF, offset: 0x46316, size: 0x8, addend: 0x0, symName: __ZNSt3__124__optional_destruct_baseI8ModeTypeLb1EEC2B8ue170006IJS1_EEENS_10in_place_tEDpOT_, symObjAddr: 0x994, symBinAddr: 0x10000C184, symSize: 0x2C }
  - { offsetInCU: 0x11C2F, offset: 0x46366, size: 0x8, addend: 0x0, symName: __ZNSt3__18optionalINS_10shared_ptrI6ActionEEEC2B8ue170006Ev, symObjAddr: 0x9C0, symBinAddr: 0x10000C1B0, symSize: 0x2C }
  - { offsetInCU: 0x11C57, offset: 0x4638E, size: 0x8, addend: 0x0, symName: __ZNSt3__127__optional_move_assign_baseINS_10shared_ptrI6ActionEELb0EEC2B8ue170006Ev, symObjAddr: 0x9EC, symBinAddr: 0x10000C1DC, symSize: 0x2C }
  - { offsetInCU: 0x11C7F, offset: 0x463B6, size: 0x8, addend: 0x0, symName: __ZNSt3__127__optional_copy_assign_baseINS_10shared_ptrI6ActionEELb0EEC2B8ue170006Ev, symObjAddr: 0xA18, symBinAddr: 0x10000C208, symSize: 0x2C }
  - { offsetInCU: 0x11CA7, offset: 0x463DE, size: 0x8, addend: 0x0, symName: __ZNSt3__120__optional_move_baseINS_10shared_ptrI6ActionEELb0EEC2B8ue170006Ev, symObjAddr: 0xA44, symBinAddr: 0x10000C234, symSize: 0x2C }
  - { offsetInCU: 0x11CCF, offset: 0x46406, size: 0x8, addend: 0x0, symName: __ZNSt3__120__optional_copy_baseINS_10shared_ptrI6ActionEELb0EEC2B8ue170006Ev, symObjAddr: 0xA70, symBinAddr: 0x10000C260, symSize: 0x2C }
  - { offsetInCU: 0x11CF7, offset: 0x4642E, size: 0x8, addend: 0x0, symName: __ZNSt3__123__optional_storage_baseINS_10shared_ptrI6ActionEELb0EEC2Ev, symObjAddr: 0xA9C, symBinAddr: 0x10000C28C, symSize: 0x2C }
  - { offsetInCU: 0x11D23, offset: 0x4645A, size: 0x8, addend: 0x0, symName: __ZNSt3__124__optional_destruct_baseINS_10shared_ptrI6ActionEELb0EEC2B8ue170006Ev, symObjAddr: 0xAC8, symBinAddr: 0x10000C2B8, symSize: 0x1C }
  - { offsetInCU: 0x11D4C, offset: 0x46483, size: 0x8, addend: 0x0, symName: __ZNSt3__18optionalI8ModeTypeEC2B8ue170006ENS_9nullopt_tE, symObjAddr: 0xAE4, symBinAddr: 0x10000C2D4, symSize: 0x2C }
  - { offsetInCU: 0x11D80, offset: 0x464B7, size: 0x8, addend: 0x0, symName: __ZNSt3__127__optional_move_assign_baseI8ModeTypeLb1EEC2Ev, symObjAddr: 0xB10, symBinAddr: 0x10000C300, symSize: 0x2C }
  - { offsetInCU: 0x11DAC, offset: 0x464E3, size: 0x8, addend: 0x0, symName: __ZNSt3__127__optional_copy_assign_baseI8ModeTypeLb1EEC2Ev, symObjAddr: 0xB3C, symBinAddr: 0x10000C32C, symSize: 0x2C }
  - { offsetInCU: 0x11DD8, offset: 0x4650F, size: 0x8, addend: 0x0, symName: __ZNSt3__120__optional_move_baseI8ModeTypeLb1EEC2Ev, symObjAddr: 0xB68, symBinAddr: 0x10000C358, symSize: 0x2C }
  - { offsetInCU: 0x11E04, offset: 0x4653B, size: 0x8, addend: 0x0, symName: __ZNSt3__120__optional_copy_baseI8ModeTypeLb1EEC2Ev, symObjAddr: 0xB94, symBinAddr: 0x10000C384, symSize: 0x2C }
  - { offsetInCU: 0x11E30, offset: 0x46567, size: 0x8, addend: 0x0, symName: __ZNSt3__123__optional_storage_baseI8ModeTypeLb0EEC2Ev, symObjAddr: 0xBC0, symBinAddr: 0x10000C3B0, symSize: 0x2C }
  - { offsetInCU: 0x11E5C, offset: 0x46593, size: 0x8, addend: 0x0, symName: __ZNSt3__124__optional_destruct_baseI8ModeTypeLb1EEC2B8ue170006Ev, symObjAddr: 0xBEC, symBinAddr: 0x10000C3DC, symSize: 0x1C }
  - { offsetInCU: 0x11E85, offset: 0x465BC, size: 0x8, addend: 0x0, symName: __ZNSt3__18optionalINS_10shared_ptrI6ActionEEEC2B8ue170006INS1_I23FixedPositionMoveActionEELi0EEEOT_, symObjAddr: 0xC08, symBinAddr: 0x10000C3F8, symSize: 0x34 }
  - { offsetInCU: 0x11ECC, offset: 0x46603, size: 0x8, addend: 0x0, symName: __ZNSt3__127__optional_move_assign_baseINS_10shared_ptrI6ActionEELb0EECI2NS_24__optional_destruct_baseIS3_Lb0EEEIJNS1_I23FixedPositionMoveActionEEEEENS_10in_place_tEDpOT_, symObjAddr: 0xC3C, symBinAddr: 0x10000C42C, symSize: 0x34 }
  - { offsetInCU: 0x11F0A, offset: 0x46641, size: 0x8, addend: 0x0, symName: __ZNSt3__127__optional_copy_assign_baseINS_10shared_ptrI6ActionEELb0EECI2NS_24__optional_destruct_baseIS3_Lb0EEEIJNS1_I23FixedPositionMoveActionEEEEENS_10in_place_tEDpOT_, symObjAddr: 0xC70, symBinAddr: 0x10000C460, symSize: 0x34 }
  - { offsetInCU: 0x11F48, offset: 0x4667F, size: 0x8, addend: 0x0, symName: __ZNSt3__120__optional_move_baseINS_10shared_ptrI6ActionEELb0EECI2NS_24__optional_destruct_baseIS3_Lb0EEEIJNS1_I23FixedPositionMoveActionEEEEENS_10in_place_tEDpOT_, symObjAddr: 0xCA4, symBinAddr: 0x10000C494, symSize: 0x34 }
  - { offsetInCU: 0x11F86, offset: 0x466BD, size: 0x8, addend: 0x0, symName: __ZNSt3__120__optional_copy_baseINS_10shared_ptrI6ActionEELb0EECI2NS_24__optional_destruct_baseIS3_Lb0EEEIJNS1_I23FixedPositionMoveActionEEEEENS_10in_place_tEDpOT_, symObjAddr: 0xCD8, symBinAddr: 0x10000C4C8, symSize: 0x34 }
  - { offsetInCU: 0x11FC4, offset: 0x466FB, size: 0x8, addend: 0x0, symName: __ZNSt3__123__optional_storage_baseINS_10shared_ptrI6ActionEELb0EECI2NS_24__optional_destruct_baseIS3_Lb0EEEIJNS1_I23FixedPositionMoveActionEEEEENS_10in_place_tEDpOT_, symObjAddr: 0xD0C, symBinAddr: 0x10000C4FC, symSize: 0x34 }
  - { offsetInCU: 0x12002, offset: 0x46739, size: 0x8, addend: 0x0, symName: __ZNSt3__124__optional_destruct_baseINS_10shared_ptrI6ActionEELb0EEC2B8ue170006IJNS1_I23FixedPositionMoveActionEEEEENS_10in_place_tEDpOT_, symObjAddr: 0xD40, symBinAddr: 0x10000C530, symSize: 0x3C }
  - { offsetInCU: 0x12051, offset: 0x46788, size: 0x8, addend: 0x0, symName: __ZNSt3__110shared_ptrI6ActionEC1B8ue170006I23FixedPositionMoveActionvEEONS0_IT_EE, symObjAddr: 0xD7C, symBinAddr: 0x10000C56C, symSize: 0x34 }
  - { offsetInCU: 0x12094, offset: 0x467CB, size: 0x8, addend: 0x0, symName: __ZNSt3__110shared_ptrI6ActionEC2B8ue170006I23FixedPositionMoveActionvEEONS0_IT_EE, symObjAddr: 0xDB0, symBinAddr: 0x10000C5A0, symSize: 0x40 }
  - { offsetInCU: 0x120D8, offset: 0x4680F, size: 0x8, addend: 0x0, symName: __ZNSt3__19allocatorI23FixedPositionMoveActionEC1B8ue170006Ev, symObjAddr: 0xE88, symBinAddr: 0x10000C678, symSize: 0x2C }
  - { offsetInCU: 0x1212D, offset: 0x46864, size: 0x8, addend: 0x0, symName: __ZNSt3__118__allocation_guardINS_9allocatorINS_20__shared_ptr_emplaceI23FixedPositionMoveActionNS1_IS3_EEEEEEEC1B8ue170006IS4_EET_m, symObjAddr: 0xEB4, symBinAddr: 0x10000C6A4, symSize: 0x34 }
  - { offsetInCU: 0x1217A, offset: 0x468B1, size: 0x8, addend: 0x0, symName: __ZNKSt3__118__allocation_guardINS_9allocatorINS_20__shared_ptr_emplaceI23FixedPositionMoveActionNS1_IS3_EEEEEEE5__getB8ue170006Ev, symObjAddr: 0xEE8, symBinAddr: 0x10000C6D8, symSize: 0x18 }
  - { offsetInCU: 0x121A4, offset: 0x468DB, size: 0x8, addend: 0x0, symName: __ZNSt3__120__shared_ptr_emplaceI23FixedPositionMoveActionNS_9allocatorIS1_EEEC1B8ue170006IJR8PositionEEES3_DpOT_, symObjAddr: 0xF00, symBinAddr: 0x10000C6F0, symSize: 0x34 }
  - { offsetInCU: 0x121F7, offset: 0x4692E, size: 0x8, addend: 0x0, symName: __ZNSt3__118__allocation_guardINS_9allocatorINS_20__shared_ptr_emplaceI23FixedPositionMoveActionNS1_IS3_EEEEEEE13__release_ptrB8ue170006Ev, symObjAddr: 0xF34, symBinAddr: 0x10000C724, symSize: 0x24 }
  - { offsetInCU: 0x1222A, offset: 0x46961, size: 0x8, addend: 0x0, symName: __ZNSt3__110shared_ptrI23FixedPositionMoveActionE27__create_with_control_blockB8ue170006IS1_NS_20__shared_ptr_emplaceIS1_NS_9allocatorIS1_EEEEEES2_PT_PT0_, symObjAddr: 0xF58, symBinAddr: 0x10000C748, symSize: 0xA4 }
  - { offsetInCU: 0x12282, offset: 0x469B9, size: 0x8, addend: 0x0, symName: __ZNSt3__120__shared_ptr_emplaceI23FixedPositionMoveActionNS_9allocatorIS1_EEE10__get_elemB8ue170006Ev, symObjAddr: 0xFFC, symBinAddr: 0x10000C7EC, symSize: 0x28 }
  - { offsetInCU: 0x122A7, offset: 0x469DE, size: 0x8, addend: 0x0, symName: __ZNSt3__118__allocation_guardINS_9allocatorINS_20__shared_ptr_emplaceI23FixedPositionMoveActionNS1_IS3_EEEEEEED1B8ue170006Ev, symObjAddr: 0x1024, symBinAddr: 0x10000C814, symSize: 0x2C }
  - { offsetInCU: 0x122CF, offset: 0x46A06, size: 0x8, addend: 0x0, symName: __ZNSt3__118__allocation_guardINS_9allocatorINS_20__shared_ptr_emplaceI23FixedPositionMoveActionNS1_IS3_EEEEEEEC2B8ue170006IS4_EET_m, symObjAddr: 0x1050, symBinAddr: 0x10000C840, symSize: 0x50 }
  - { offsetInCU: 0x1231C, offset: 0x46A53, size: 0x8, addend: 0x0, symName: __ZNSt3__19allocatorINS_20__shared_ptr_emplaceI23FixedPositionMoveActionNS0_IS2_EEEEEC1B8ue170006IS2_EERKNS0_IT_EE, symObjAddr: 0x10A0, symBinAddr: 0x10000C890, symSize: 0x34 }
  - { offsetInCU: 0x12358, offset: 0x46A8F, size: 0x8, addend: 0x0, symName: __ZNSt3__116allocator_traitsINS_9allocatorINS_20__shared_ptr_emplaceI23FixedPositionMoveActionNS1_IS3_EEEEEEE8allocateB8ue170006ERS6_m, symObjAddr: 0x10D4, symBinAddr: 0x10000C8C4, symSize: 0x2C }
  - { offsetInCU: 0x1238D, offset: 0x46AC4, size: 0x8, addend: 0x0, symName: __ZNSt3__19allocatorINS_20__shared_ptr_emplaceI23FixedPositionMoveActionNS0_IS2_EEEEEC2B8ue170006IS2_EERKNS0_IT_EE, symObjAddr: 0x1100, symBinAddr: 0x10000C8F0, symSize: 0x30 }
  - { offsetInCU: 0x123C9, offset: 0x46B00, size: 0x8, addend: 0x0, symName: __ZNSt3__116__non_trivial_ifILb1ENS_9allocatorINS_20__shared_ptr_emplaceI23FixedPositionMoveActionNS1_IS3_EEEEEEEC2B8ue170006Ev, symObjAddr: 0x1130, symBinAddr: 0x10000C920, symSize: 0x14 }
  - { offsetInCU: 0x123F2, offset: 0x46B29, size: 0x8, addend: 0x0, symName: __ZNSt3__19allocatorINS_20__shared_ptr_emplaceI23FixedPositionMoveActionNS0_IS2_EEEEE8allocateB8ue170006Em, symObjAddr: 0x1144, symBinAddr: 0x10000C934, symSize: 0x5C }
  - { offsetInCU: 0x1242F, offset: 0x46B66, size: 0x8, addend: 0x0, symName: __ZNSt3__116allocator_traitsINS_9allocatorINS_20__shared_ptr_emplaceI23FixedPositionMoveActionNS1_IS3_EEEEEEE8max_sizeB8ue170006IS6_vvEEmRKS6_, symObjAddr: 0x11A0, symBinAddr: 0x10000C990, symSize: 0x28 }
  - { offsetInCU: 0x1245D, offset: 0x46B94, size: 0x8, addend: 0x0, symName: __ZNSt3__120__shared_ptr_emplaceI23FixedPositionMoveActionNS_9allocatorIS1_EEEC2B8ue170006IJR8PositionEEES3_DpOT_, symObjAddr: 0x12E8, symBinAddr: 0x10000C9B8, symSize: 0xC8 }
  - { offsetInCU: 0x124D2, offset: 0x46C09, size: 0x8, addend: 0x0, symName: __ZNSt3__119__shared_weak_countC2B8ue170006El, symObjAddr: 0x13B0, symBinAddr: 0x10000CA80, symSize: 0x54 }
  - { offsetInCU: 0x12508, offset: 0x46C3F, size: 0x8, addend: 0x0, symName: __ZNSt3__120__shared_ptr_emplaceI23FixedPositionMoveActionNS_9allocatorIS1_EEE8_StorageC1B8ue170006EOS3_, symObjAddr: 0x1404, symBinAddr: 0x10000CAD4, symSize: 0x34 }
  - { offsetInCU: 0x12540, offset: 0x46C77, size: 0x8, addend: 0x0, symName: __ZNSt3__120__shared_ptr_emplaceI23FixedPositionMoveActionNS_9allocatorIS1_EEE11__get_allocB8ue170006Ev, symObjAddr: 0x1438, symBinAddr: 0x10000CB08, symSize: 0x28 }
  - { offsetInCU: 0x1256A, offset: 0x46CA1, size: 0x8, addend: 0x0, symName: __ZNSt3__116allocator_traitsINS_9allocatorI23FixedPositionMoveActionEEE9constructB8ue170006IS2_JR8PositionEvvEEvRS3_PT_DpOT0_, symObjAddr: 0x1460, symBinAddr: 0x10000CB30, symSize: 0x30 }
  - { offsetInCU: 0x125C3, offset: 0x46CFA, size: 0x8, addend: 0x0, symName: __ZNSt3__120__shared_ptr_emplaceI23FixedPositionMoveActionNS_9allocatorIS1_EEE8_StorageD1B8ue170006Ev, symObjAddr: 0x1490, symBinAddr: 0x10000CB60, symSize: 0x2C }
  - { offsetInCU: 0x125EB, offset: 0x46D22, size: 0x8, addend: 0x0, symName: __ZNSt3__120__shared_ptr_emplaceI23FixedPositionMoveActionNS_9allocatorIS1_EEED1Ev, symObjAddr: 0x14BC, symBinAddr: 0x10000CB8C, symSize: 0x2C }
  - { offsetInCU: 0x12617, offset: 0x46D4E, size: 0x8, addend: 0x0, symName: __ZNSt3__120__shared_ptr_emplaceI23FixedPositionMoveActionNS_9allocatorIS1_EEED0Ev, symObjAddr: 0x14E8, symBinAddr: 0x10000CBB8, symSize: 0x30 }
  - { offsetInCU: 0x12643, offset: 0x46D7A, size: 0x8, addend: 0x0, symName: __ZNSt3__120__shared_ptr_emplaceI23FixedPositionMoveActionNS_9allocatorIS1_EEE16__on_zero_sharedEv, symObjAddr: 0x1518, symBinAddr: 0x10000CBE8, symSize: 0x44 }
  - { offsetInCU: 0x1268A, offset: 0x46DC1, size: 0x8, addend: 0x0, symName: __ZNSt3__120__shared_ptr_emplaceI23FixedPositionMoveActionNS_9allocatorIS1_EEE21__on_zero_shared_weakEv, symObjAddr: 0x155C, symBinAddr: 0x10000CC2C, symSize: 0x5C }
  - { offsetInCU: 0x126CB, offset: 0x46E02, size: 0x8, addend: 0x0, symName: __ZNSt3__114__shared_countC2B8ue170006El, symObjAddr: 0x15B8, symBinAddr: 0x10000CC88, symSize: 0x30 }
  - { offsetInCU: 0x12702, offset: 0x46E39, size: 0x8, addend: 0x0, symName: __ZNSt3__120__shared_ptr_emplaceI23FixedPositionMoveActionNS_9allocatorIS1_EEE8_StorageC2B8ue170006EOS3_, symObjAddr: 0x15E8, symBinAddr: 0x10000CCB8, symSize: 0x30 }
  - { offsetInCU: 0x1273A, offset: 0x46E71, size: 0x8, addend: 0x0, symName: __ZNSt3__120__shared_ptr_emplaceI23FixedPositionMoveActionNS_9allocatorIS1_EEE8_Storage11__get_allocB8ue170006Ev, symObjAddr: 0x1618, symBinAddr: 0x10000CCE8, symSize: 0x3C }
  - { offsetInCU: 0x1278F, offset: 0x46EC6, size: 0x8, addend: 0x0, symName: __ZNSt3__117__compressed_pairINS_9allocatorI23FixedPositionMoveActionEES2_E16__get_first_baseB8ue170006EPS4_, symObjAddr: 0x1654, symBinAddr: 0x10000CD24, symSize: 0x14 }
  - { offsetInCU: 0x127B2, offset: 0x46EE9, size: 0x8, addend: 0x0, symName: __ZNSt3__120__shared_ptr_emplaceI23FixedPositionMoveActionNS_9allocatorIS1_EEE8_StorageD2B8ue170006Ev, symObjAddr: 0x16B0, symBinAddr: 0x10000CD80, symSize: 0x2C }
  - { offsetInCU: 0x127DA, offset: 0x46F11, size: 0x8, addend: 0x0, symName: __ZNSt3__120__shared_ptr_emplaceI23FixedPositionMoveActionNS_9allocatorIS1_EEED2Ev, symObjAddr: 0x16DC, symBinAddr: 0x10000CDAC, symSize: 0x48 }
  - { offsetInCU: 0x12806, offset: 0x46F3D, size: 0x8, addend: 0x0, symName: __ZNSt3__116allocator_traitsINS_9allocatorI23FixedPositionMoveActionEEE7destroyB8ue170006IS2_vvEEvRS3_PT_, symObjAddr: 0x1724, symBinAddr: 0x10000CDF4, symSize: 0x28 }
  - { offsetInCU: 0x12844, offset: 0x46F7B, size: 0x8, addend: 0x0, symName: __ZNSt3__116allocator_traitsINS_9allocatorINS_20__shared_ptr_emplaceI23FixedPositionMoveActionNS1_IS3_EEEEEEE10deallocateB8ue170006ERS6_PS5_m, symObjAddr: 0x17A8, symBinAddr: 0x10000CE6C, symSize: 0x34 }
  - { offsetInCU: 0x1288E, offset: 0x46FC5, size: 0x8, addend: 0x0, symName: __ZNSt3__114pointer_traitsIPNS_20__shared_ptr_emplaceI23FixedPositionMoveActionNS_9allocatorIS2_EEEEE10pointer_toB8ue170006ERS5_, symObjAddr: 0x17DC, symBinAddr: 0x10000CEA0, symSize: 0x14 }
  - { offsetInCU: 0x128B1, offset: 0x46FE8, size: 0x8, addend: 0x0, symName: __ZNSt3__19allocatorINS_20__shared_ptr_emplaceI23FixedPositionMoveActionNS0_IS2_EEEEE10deallocateB8ue170006EPS4_m, symObjAddr: 0x17F0, symBinAddr: 0x10000CEB4, symSize: 0x44 }
  - { offsetInCU: 0x128F2, offset: 0x47029, size: 0x8, addend: 0x0, symName: __ZNSt3__110shared_ptrI23FixedPositionMoveActionEC1B8ue170006Ev, symObjAddr: 0x193C, symBinAddr: 0x10000CEF8, symSize: 0x2C }
  - { offsetInCU: 0x1291A, offset: 0x47051, size: 0x8, addend: 0x0, symName: __ZNSt3__110shared_ptrI23FixedPositionMoveActionE18__enable_weak_thisB8ue170006Ez, symObjAddr: 0x1968, symBinAddr: 0x10000CF24, symSize: 0x10 }
  - { offsetInCU: 0x12940, offset: 0x47077, size: 0x8, addend: 0x0, symName: __ZNSt3__110shared_ptrI23FixedPositionMoveActionEC2B8ue170006Ev, symObjAddr: 0x1978, symBinAddr: 0x10000CF34, symSize: 0x1C }
  - { offsetInCU: 0x12969, offset: 0x470A0, size: 0x8, addend: 0x0, symName: __ZNSt3__120__shared_ptr_emplaceI23FixedPositionMoveActionNS_9allocatorIS1_EEE8_Storage10__get_elemB8ue170006Ev, symObjAddr: 0x1994, symBinAddr: 0x10000CF50, symSize: 0x3C }
  - { offsetInCU: 0x129BE, offset: 0x470F5, size: 0x8, addend: 0x0, symName: __ZNSt3__117__compressed_pairINS_9allocatorI23FixedPositionMoveActionEES2_E17__get_second_baseB8ue170006EPS4_, symObjAddr: 0x19D0, symBinAddr: 0x10000CF8C, symSize: 0x14 }
  - { offsetInCU: 0x129E1, offset: 0x47118, size: 0x8, addend: 0x0, symName: __ZNSt3__118__allocation_guardINS_9allocatorINS_20__shared_ptr_emplaceI23FixedPositionMoveActionNS1_IS3_EEEEEEED2B8ue170006Ev, symObjAddr: 0x19E4, symBinAddr: 0x10000CFA0, symSize: 0x2C }
  - { offsetInCU: 0x12A09, offset: 0x47140, size: 0x8, addend: 0x0, symName: __ZNSt3__118__allocation_guardINS_9allocatorINS_20__shared_ptr_emplaceI23FixedPositionMoveActionNS1_IS3_EEEEEEE9__destroyB8ue170006Ev, symObjAddr: 0x1A10, symBinAddr: 0x10000CFCC, symSize: 0x4C }
  - { offsetInCU: 0x12A2E, offset: 0x47165, size: 0x8, addend: 0x0, symName: __ZNSt3__19allocatorI23FixedPositionMoveActionEC2B8ue170006Ev, symObjAddr: 0x1A5C, symBinAddr: 0x10000D018, symSize: 0x2C }
  - { offsetInCU: 0x12A56, offset: 0x4718D, size: 0x8, addend: 0x0, symName: __ZNSt3__116__non_trivial_ifILb1ENS_9allocatorI23FixedPositionMoveActionEEEC2B8ue170006Ev, symObjAddr: 0x1A88, symBinAddr: 0x10000D044, symSize: 0x14 }
  - { offsetInCU: 0x12A7F, offset: 0x471B6, size: 0x8, addend: 0x0, symName: __ZNSt3__110shared_ptrI23FixedPositionMoveActionED2B8ue170006Ev, symObjAddr: 0x1A9C, symBinAddr: 0x10000D058, symSize: 0x54 }
  - { offsetInCU: 0x12AA7, offset: 0x471DE, size: 0x8, addend: 0x0, symName: __ZNSt3__119__shared_weak_count16__release_sharedB8ue170006Ev, symObjAddr: 0x1AF0, symBinAddr: 0x10000D0AC, symSize: 0x3C }
  - { offsetInCU: 0x12ACC, offset: 0x47203, size: 0x8, addend: 0x0, symName: __ZNSt3__114__shared_count16__release_sharedB8ue170006Ev, symObjAddr: 0x1B2C, symBinAddr: 0x10000D0E8, symSize: 0x7C }
  - { offsetInCU: 0xEEE6, offset: 0x5618F, size: 0x8, addend: 0x0, symName: __ZNSt3__111make_sharedB8ue170006I18CharwiseMoveActionJR10ScreenSize9DirectionEvEENS_10shared_ptrIT_EEDpOT0_, symObjAddr: 0x3FC, symBinAddr: 0x10000D55C, symSize: 0x48 }
  - { offsetInCU: 0xF15D, offset: 0x56406, size: 0x8, addend: 0x0, symName: __ZNSt3__111make_sharedB8ue170006I12IndentActionJiiEvEENS_10shared_ptrIT_EEDpOT0_, symObjAddr: 0x4A4, symBinAddr: 0x10000D604, symSize: 0x48 }
  - { offsetInCU: 0xF3D4, offset: 0x5667D, size: 0x8, addend: 0x0, symName: __ZNSt3__111make_sharedB8ue170006I14UnindentActionJiiEvEENS_10shared_ptrIT_EEDpOT0_, symObjAddr: 0x57C, symBinAddr: 0x10000D6DC, symSize: 0x48 }
  - { offsetInCU: 0xF64B, offset: 0x568F4, size: 0x8, addend: 0x0, symName: __ZNSt3__115allocate_sharedB8ue170006I18CharwiseMoveActionNS_9allocatorIS1_EEJR10ScreenSize9DirectionEvEENS_10shared_ptrIT_EERKT0_DpOT1_, symObjAddr: 0x14E4, symBinAddr: 0x10000E200, symSize: 0xA0 }
  - { offsetInCU: 0xFA22, offset: 0x56CCB, size: 0x8, addend: 0x0, symName: __ZNSt3__112construct_atB8ue170006I18CharwiseMoveActionJR10ScreenSize9DirectionEPS1_EEPT_S7_DpOT0_, symObjAddr: 0x1D7C, symBinAddr: 0x10000E8F4, symSize: 0x54 }
  - { offsetInCU: 0xFAA7, offset: 0x56D50, size: 0x8, addend: 0x0, symName: __ZNSt3__110destroy_atB8ue170006I18CharwiseMoveActionLi0EEEvPT_, symObjAddr: 0x1E6C, symBinAddr: 0x10000E9E4, symSize: 0x24 }
  - { offsetInCU: 0xFADF, offset: 0x56D88, size: 0x8, addend: 0x0, symName: __ZNSt3__112__destroy_atB8ue170006I18CharwiseMoveActionLi0EEEvPT_, symObjAddr: 0x1E90, symBinAddr: 0x10000EA08, symSize: 0x2C }
  - { offsetInCU: 0xFB4A, offset: 0x56DF3, size: 0x8, addend: 0x0, symName: __ZNSt3__115allocate_sharedB8ue170006I12IndentActionNS_9allocatorIS1_EEJiiEvEENS_10shared_ptrIT_EERKT0_DpOT1_, symObjAddr: 0x22EC, symBinAddr: 0x10000EC74, symSize: 0xA0 }
  - { offsetInCU: 0xFF21, offset: 0x571CA, size: 0x8, addend: 0x0, symName: __ZNSt3__112construct_atB8ue170006I12IndentActionJiiEPS1_EEPT_S4_DpOT0_, symObjAddr: 0x29E0, symBinAddr: 0x10000F368, symSize: 0x4C }
  - { offsetInCU: 0xFFA6, offset: 0x5724F, size: 0x8, addend: 0x0, symName: __ZNSt3__110destroy_atB8ue170006I12IndentActionLi0EEEvPT_, symObjAddr: 0x2AC8, symBinAddr: 0x10000F450, symSize: 0x24 }
  - { offsetInCU: 0xFFDE, offset: 0x57287, size: 0x8, addend: 0x0, symName: __ZNSt3__112__destroy_atB8ue170006I12IndentActionLi0EEEvPT_, symObjAddr: 0x2AEC, symBinAddr: 0x10000F474, symSize: 0x2C }
  - { offsetInCU: 0x10049, offset: 0x572F2, size: 0x8, addend: 0x0, symName: __ZNSt3__115allocate_sharedB8ue170006I14UnindentActionNS_9allocatorIS1_EEJiiEvEENS_10shared_ptrIT_EERKT0_DpOT1_, symObjAddr: 0x2D58, symBinAddr: 0x10000F6E0, symSize: 0xA0 }
  - { offsetInCU: 0x10420, offset: 0x576C9, size: 0x8, addend: 0x0, symName: __ZNSt3__112construct_atB8ue170006I14UnindentActionJiiEPS1_EEPT_S4_DpOT0_, symObjAddr: 0x344C, symBinAddr: 0x10000FDD4, symSize: 0x4C }
  - { offsetInCU: 0x104A5, offset: 0x5774E, size: 0x8, addend: 0x0, symName: __ZNSt3__110destroy_atB8ue170006I14UnindentActionLi0EEEvPT_, symObjAddr: 0x3534, symBinAddr: 0x10000FEBC, symSize: 0x24 }
  - { offsetInCU: 0x104DD, offset: 0x57786, size: 0x8, addend: 0x0, symName: __ZNSt3__112__destroy_atB8ue170006I14UnindentActionLi0EEEvPT_, symObjAddr: 0x3558, symBinAddr: 0x10000FEE0, symSize: 0x2C }
  - { offsetInCU: 0x13E4D, offset: 0x5B0F6, size: 0x8, addend: 0x0, symName: __ZN8ToolMode15parseSpecialKeyE10SpecialKey14ParsingContext, symObjAddr: 0x0, symBinAddr: 0x10000D194, symSize: 0x3B0 }
  - { offsetInCU: 0x13EB4, offset: 0x5B15D, size: 0x8, addend: 0x0, symName: __ZNSt3__18optionalINS_10shared_ptrI6ActionEEEC1B8ue170006INS1_I18CharwiseMoveActionEELi0EEEOT_, symObjAddr: 0x444, symBinAddr: 0x10000D5A4, symSize: 0x34 }
  - { offsetInCU: 0x13EFB, offset: 0x5B1A4, size: 0x8, addend: 0x0, symName: __ZNSt3__110shared_ptrI18CharwiseMoveActionED1B8ue170006Ev, symObjAddr: 0x478, symBinAddr: 0x10000D5D8, symSize: 0x2C }
  - { offsetInCU: 0x13F23, offset: 0x5B1CC, size: 0x8, addend: 0x0, symName: __ZNK11EditorState9getCursorEv, symObjAddr: 0x4EC, symBinAddr: 0x10000D64C, symSize: 0x18 }
  - { offsetInCU: 0x13F48, offset: 0x5B1F1, size: 0x8, addend: 0x0, symName: __ZNK6Cursor6getRowEv, symObjAddr: 0x504, symBinAddr: 0x10000D664, symSize: 0x18 }
  - { offsetInCU: 0x13F90, offset: 0x5B239, size: 0x8, addend: 0x0, symName: __ZNSt3__18optionalINS_10shared_ptrI6ActionEEEC1B8ue170006INS1_I12IndentActionEELi0EEEOT_, symObjAddr: 0x51C, symBinAddr: 0x10000D67C, symSize: 0x34 }
  - { offsetInCU: 0x13FD7, offset: 0x5B280, size: 0x8, addend: 0x0, symName: __ZNSt3__110shared_ptrI12IndentActionED1B8ue170006Ev, symObjAddr: 0x550, symBinAddr: 0x10000D6B0, symSize: 0x2C }
  - { offsetInCU: 0x14022, offset: 0x5B2CB, size: 0x8, addend: 0x0, symName: __ZNSt3__18optionalINS_10shared_ptrI6ActionEEEC1B8ue170006INS1_I14UnindentActionEELi0EEEOT_, symObjAddr: 0x5C4, symBinAddr: 0x10000D724, symSize: 0x34 }
  - { offsetInCU: 0x14069, offset: 0x5B312, size: 0x8, addend: 0x0, symName: __ZNSt3__110shared_ptrI14UnindentActionED1B8ue170006Ev, symObjAddr: 0x5F8, symBinAddr: 0x10000D758, symSize: 0x2C }
  - { offsetInCU: 0x14091, offset: 0x5B33A, size: 0x8, addend: 0x0, symName: __ZNSt3__18optionalINS_10shared_ptrI6ActionEEEC1B8ue170006ENS_9nullopt_tE, symObjAddr: 0x624, symBinAddr: 0x10000D784, symSize: 0x2C }
  - { offsetInCU: 0x140C5, offset: 0x5B36E, size: 0x8, addend: 0x0, symName: __ZN8ToolMode18parseStandardInputEi14ParsingContext, symObjAddr: 0x650, symBinAddr: 0x10000D7B0, symSize: 0x5C }
  - { offsetInCU: 0x14109, offset: 0x5B3B2, size: 0x8, addend: 0x0, symName: __ZN8ToolMode10parseInputE5Input14ParsingContext, symObjAddr: 0x6AC, symBinAddr: 0x10000D80C, symSize: 0x160 }
  - { offsetInCU: 0x1414E, offset: 0x5B3F7, size: 0x8, addend: 0x0, symName: __ZNKSt3__123__optional_storage_baseI8PositionLb0EE9has_valueB8ue170006Ev, symObjAddr: 0x80C, symBinAddr: 0x10000D96C, symSize: 0x1C }
  - { offsetInCU: 0x14173, offset: 0x5B41C, size: 0x8, addend: 0x0, symName: __ZNRSt3__18optionalI8PositionEdeB8ue170006Ev, symObjAddr: 0x828, symBinAddr: 0x10000D988, symSize: 0x24 }
  - { offsetInCU: 0x14198, offset: 0x5B441, size: 0x8, addend: 0x0, symName: __ZNKSt3__123__optional_storage_baseI10SpecialKeyLb0EE9has_valueB8ue170006Ev, symObjAddr: 0x84C, symBinAddr: 0x10000D9AC, symSize: 0x1C }
  - { offsetInCU: 0x141BD, offset: 0x5B466, size: 0x8, addend: 0x0, symName: __ZNRSt3__18optionalI10SpecialKeyEdeB8ue170006Ev, symObjAddr: 0x868, symBinAddr: 0x10000D9C8, symSize: 0x24 }
  - { offsetInCU: 0x141E2, offset: 0x5B48B, size: 0x8, addend: 0x0, symName: __ZNKSt3__123__optional_storage_baseIcLb0EE9has_valueB8ue170006Ev, symObjAddr: 0x88C, symBinAddr: 0x10000D9EC, symSize: 0x1C }
  - { offsetInCU: 0x14207, offset: 0x5B4B0, size: 0x8, addend: 0x0, symName: __ZNRSt3__18optionalIcEdeB8ue170006Ev, symObjAddr: 0x8A8, symBinAddr: 0x10000DA08, symSize: 0x24 }
  - { offsetInCU: 0x1422C, offset: 0x5B4D5, size: 0x8, addend: 0x0, symName: __ZN8ToolModeD1Ev, symObjAddr: 0x8CC, symBinAddr: 0x10000DA2C, symSize: 0x2C }
  - { offsetInCU: 0x14254, offset: 0x5B4FD, size: 0x8, addend: 0x0, symName: __ZN8ToolModeD0Ev, symObjAddr: 0x8F8, symBinAddr: 0x10000DA58, symSize: 0x30 }
  - { offsetInCU: 0x1427C, offset: 0x5B525, size: 0x8, addend: 0x0, symName: __ZNK8ToolMode12getModeLabelEv, symObjAddr: 0x928, symBinAddr: 0x10000DA88, symSize: 0x3C }
  - { offsetInCU: 0x142A1, offset: 0x5B54A, size: 0x8, addend: 0x0, symName: __ZNSt3__18optionalINS_10shared_ptrI6ActionEEEC2B8ue170006INS1_I18CharwiseMoveActionEELi0EEEOT_, symObjAddr: 0xAC8, symBinAddr: 0x10000DAC4, symSize: 0x34 }
  - { offsetInCU: 0x142E8, offset: 0x5B591, size: 0x8, addend: 0x0, symName: __ZNSt3__127__optional_move_assign_baseINS_10shared_ptrI6ActionEELb0EECI2NS_24__optional_destruct_baseIS3_Lb0EEEIJNS1_I18CharwiseMoveActionEEEEENS_10in_place_tEDpOT_, symObjAddr: 0xAFC, symBinAddr: 0x10000DAF8, symSize: 0x34 }
  - { offsetInCU: 0x14326, offset: 0x5B5CF, size: 0x8, addend: 0x0, symName: __ZNSt3__127__optional_copy_assign_baseINS_10shared_ptrI6ActionEELb0EECI2NS_24__optional_destruct_baseIS3_Lb0EEEIJNS1_I18CharwiseMoveActionEEEEENS_10in_place_tEDpOT_, symObjAddr: 0xB30, symBinAddr: 0x10000DB2C, symSize: 0x34 }
  - { offsetInCU: 0x14364, offset: 0x5B60D, size: 0x8, addend: 0x0, symName: __ZNSt3__120__optional_move_baseINS_10shared_ptrI6ActionEELb0EECI2NS_24__optional_destruct_baseIS3_Lb0EEEIJNS1_I18CharwiseMoveActionEEEEENS_10in_place_tEDpOT_, symObjAddr: 0xB64, symBinAddr: 0x10000DB60, symSize: 0x34 }
  - { offsetInCU: 0x143A2, offset: 0x5B64B, size: 0x8, addend: 0x0, symName: __ZNSt3__120__optional_copy_baseINS_10shared_ptrI6ActionEELb0EECI2NS_24__optional_destruct_baseIS3_Lb0EEEIJNS1_I18CharwiseMoveActionEEEEENS_10in_place_tEDpOT_, symObjAddr: 0xB98, symBinAddr: 0x10000DB94, symSize: 0x34 }
  - { offsetInCU: 0x143E0, offset: 0x5B689, size: 0x8, addend: 0x0, symName: __ZNSt3__123__optional_storage_baseINS_10shared_ptrI6ActionEELb0EECI2NS_24__optional_destruct_baseIS3_Lb0EEEIJNS1_I18CharwiseMoveActionEEEEENS_10in_place_tEDpOT_, symObjAddr: 0xBCC, symBinAddr: 0x10000DBC8, symSize: 0x34 }
  - { offsetInCU: 0x1441E, offset: 0x5B6C7, size: 0x8, addend: 0x0, symName: __ZNSt3__124__optional_destruct_baseINS_10shared_ptrI6ActionEELb0EEC2B8ue170006IJNS1_I18CharwiseMoveActionEEEEENS_10in_place_tEDpOT_, symObjAddr: 0xC00, symBinAddr: 0x10000DBFC, symSize: 0x3C }
  - { offsetInCU: 0x1446D, offset: 0x5B716, size: 0x8, addend: 0x0, symName: __ZNSt3__110shared_ptrI6ActionEC1B8ue170006I18CharwiseMoveActionvEEONS0_IT_EE, symObjAddr: 0xC3C, symBinAddr: 0x10000DC38, symSize: 0x34 }
  - { offsetInCU: 0x144B0, offset: 0x5B759, size: 0x8, addend: 0x0, symName: __ZNSt3__110shared_ptrI6ActionEC2B8ue170006I18CharwiseMoveActionvEEONS0_IT_EE, symObjAddr: 0xC70, symBinAddr: 0x10000DC6C, symSize: 0x40 }
  - { offsetInCU: 0x144F4, offset: 0x5B79D, size: 0x8, addend: 0x0, symName: __ZNSt3__18optionalINS_10shared_ptrI6ActionEEEC2B8ue170006INS1_I12IndentActionEELi0EEEOT_, symObjAddr: 0xCB0, symBinAddr: 0x10000DCAC, symSize: 0x34 }
  - { offsetInCU: 0x1453B, offset: 0x5B7E4, size: 0x8, addend: 0x0, symName: __ZNSt3__127__optional_move_assign_baseINS_10shared_ptrI6ActionEELb0EECI2NS_24__optional_destruct_baseIS3_Lb0EEEIJNS1_I12IndentActionEEEEENS_10in_place_tEDpOT_, symObjAddr: 0xCE4, symBinAddr: 0x10000DCE0, symSize: 0x34 }
  - { offsetInCU: 0x14579, offset: 0x5B822, size: 0x8, addend: 0x0, symName: __ZNSt3__127__optional_copy_assign_baseINS_10shared_ptrI6ActionEELb0EECI2NS_24__optional_destruct_baseIS3_Lb0EEEIJNS1_I12IndentActionEEEEENS_10in_place_tEDpOT_, symObjAddr: 0xD18, symBinAddr: 0x10000DD14, symSize: 0x34 }
  - { offsetInCU: 0x145B7, offset: 0x5B860, size: 0x8, addend: 0x0, symName: __ZNSt3__120__optional_move_baseINS_10shared_ptrI6ActionEELb0EECI2NS_24__optional_destruct_baseIS3_Lb0EEEIJNS1_I12IndentActionEEEEENS_10in_place_tEDpOT_, symObjAddr: 0xD4C, symBinAddr: 0x10000DD48, symSize: 0x34 }
  - { offsetInCU: 0x145F5, offset: 0x5B89E, size: 0x8, addend: 0x0, symName: __ZNSt3__120__optional_copy_baseINS_10shared_ptrI6ActionEELb0EECI2NS_24__optional_destruct_baseIS3_Lb0EEEIJNS1_I12IndentActionEEEEENS_10in_place_tEDpOT_, symObjAddr: 0xD80, symBinAddr: 0x10000DD7C, symSize: 0x34 }
  - { offsetInCU: 0x14633, offset: 0x5B8DC, size: 0x8, addend: 0x0, symName: __ZNSt3__123__optional_storage_baseINS_10shared_ptrI6ActionEELb0EECI2NS_24__optional_destruct_baseIS3_Lb0EEEIJNS1_I12IndentActionEEEEENS_10in_place_tEDpOT_, symObjAddr: 0xDB4, symBinAddr: 0x10000DDB0, symSize: 0x34 }
  - { offsetInCU: 0x14671, offset: 0x5B91A, size: 0x8, addend: 0x0, symName: __ZNSt3__124__optional_destruct_baseINS_10shared_ptrI6ActionEELb0EEC2B8ue170006IJNS1_I12IndentActionEEEEENS_10in_place_tEDpOT_, symObjAddr: 0xDE8, symBinAddr: 0x10000DDE4, symSize: 0x3C }
  - { offsetInCU: 0x146C0, offset: 0x5B969, size: 0x8, addend: 0x0, symName: __ZNSt3__110shared_ptrI6ActionEC1B8ue170006I12IndentActionvEEONS0_IT_EE, symObjAddr: 0xE24, symBinAddr: 0x10000DE20, symSize: 0x34 }
  - { offsetInCU: 0x14703, offset: 0x5B9AC, size: 0x8, addend: 0x0, symName: __ZNSt3__110shared_ptrI6ActionEC2B8ue170006I12IndentActionvEEONS0_IT_EE, symObjAddr: 0xE58, symBinAddr: 0x10000DE54, symSize: 0x40 }
  - { offsetInCU: 0x14747, offset: 0x5B9F0, size: 0x8, addend: 0x0, symName: __ZNSt3__18optionalINS_10shared_ptrI6ActionEEEC2B8ue170006INS1_I14UnindentActionEELi0EEEOT_, symObjAddr: 0xE98, symBinAddr: 0x10000DE94, symSize: 0x34 }
  - { offsetInCU: 0x1478E, offset: 0x5BA37, size: 0x8, addend: 0x0, symName: __ZNSt3__127__optional_move_assign_baseINS_10shared_ptrI6ActionEELb0EECI2NS_24__optional_destruct_baseIS3_Lb0EEEIJNS1_I14UnindentActionEEEEENS_10in_place_tEDpOT_, symObjAddr: 0xECC, symBinAddr: 0x10000DEC8, symSize: 0x34 }
  - { offsetInCU: 0x147CC, offset: 0x5BA75, size: 0x8, addend: 0x0, symName: __ZNSt3__127__optional_copy_assign_baseINS_10shared_ptrI6ActionEELb0EECI2NS_24__optional_destruct_baseIS3_Lb0EEEIJNS1_I14UnindentActionEEEEENS_10in_place_tEDpOT_, symObjAddr: 0xF00, symBinAddr: 0x10000DEFC, symSize: 0x34 }
  - { offsetInCU: 0x1480A, offset: 0x5BAB3, size: 0x8, addend: 0x0, symName: __ZNSt3__120__optional_move_baseINS_10shared_ptrI6ActionEELb0EECI2NS_24__optional_destruct_baseIS3_Lb0EEEIJNS1_I14UnindentActionEEEEENS_10in_place_tEDpOT_, symObjAddr: 0xF34, symBinAddr: 0x10000DF30, symSize: 0x34 }
  - { offsetInCU: 0x14848, offset: 0x5BAF1, size: 0x8, addend: 0x0, symName: __ZNSt3__120__optional_copy_baseINS_10shared_ptrI6ActionEELb0EECI2NS_24__optional_destruct_baseIS3_Lb0EEEIJNS1_I14UnindentActionEEEEENS_10in_place_tEDpOT_, symObjAddr: 0xF68, symBinAddr: 0x10000DF64, symSize: 0x34 }
  - { offsetInCU: 0x14886, offset: 0x5BB2F, size: 0x8, addend: 0x0, symName: __ZNSt3__123__optional_storage_baseINS_10shared_ptrI6ActionEELb0EECI2NS_24__optional_destruct_baseIS3_Lb0EEEIJNS1_I14UnindentActionEEEEENS_10in_place_tEDpOT_, symObjAddr: 0xF9C, symBinAddr: 0x10000DF98, symSize: 0x34 }
  - { offsetInCU: 0x148C4, offset: 0x5BB6D, size: 0x8, addend: 0x0, symName: __ZNSt3__124__optional_destruct_baseINS_10shared_ptrI6ActionEELb0EEC2B8ue170006IJNS1_I14UnindentActionEEEEENS_10in_place_tEDpOT_, symObjAddr: 0xFD0, symBinAddr: 0x10000DFCC, symSize: 0x3C }
  - { offsetInCU: 0x14913, offset: 0x5BBBC, size: 0x8, addend: 0x0, symName: __ZNSt3__110shared_ptrI6ActionEC1B8ue170006I14UnindentActionvEEONS0_IT_EE, symObjAddr: 0x100C, symBinAddr: 0x10000E008, symSize: 0x34 }
  - { offsetInCU: 0x14956, offset: 0x5BBFF, size: 0x8, addend: 0x0, symName: __ZNSt3__110shared_ptrI6ActionEC2B8ue170006I14UnindentActionvEEONS0_IT_EE, symObjAddr: 0x1040, symBinAddr: 0x10000E03C, symSize: 0x40 }
  - { offsetInCU: 0x1499A, offset: 0x5BC43, size: 0x8, addend: 0x0, symName: __ZNSt3__18optionalINS_10shared_ptrI6ActionEEEC2B8ue170006ENS_9nullopt_tE, symObjAddr: 0x1080, symBinAddr: 0x10000E07C, symSize: 0x2C }
  - { offsetInCU: 0x149CE, offset: 0x5BC77, size: 0x8, addend: 0x0, symName: __ZNRSt3__123__optional_storage_baseI8PositionLb0EE5__getB8ue170006Ev, symObjAddr: 0x11A4, symBinAddr: 0x10000E0A8, symSize: 0x14 }
  - { offsetInCU: 0x149F3, offset: 0x5BC9C, size: 0x8, addend: 0x0, symName: __ZNRSt3__123__optional_storage_baseI10SpecialKeyLb0EE5__getB8ue170006Ev, symObjAddr: 0x11B8, symBinAddr: 0x10000E0BC, symSize: 0x14 }
  - { offsetInCU: 0x14A18, offset: 0x5BCC1, size: 0x8, addend: 0x0, symName: __ZNRSt3__123__optional_storage_baseIcLb0EE5__getB8ue170006Ev, symObjAddr: 0x11CC, symBinAddr: 0x10000E0D0, symSize: 0x14 }
  - { offsetInCU: 0x14A3D, offset: 0x5BCE6, size: 0x8, addend: 0x0, symName: __ZN8ToolModeD2Ev, symObjAddr: 0x11E0, symBinAddr: 0x10000E0E4, symSize: 0x48 }
  - { offsetInCU: 0x14A65, offset: 0x5BD0E, size: 0x8, addend: 0x0, symName: __ZN13CommandParserD1Ev, symObjAddr: 0x1228, symBinAddr: 0x10000E12C, symSize: 0x2C }
  - { offsetInCU: 0x14A8D, offset: 0x5BD36, size: 0x8, addend: 0x0, symName: __ZN10EditorModeD2Ev, symObjAddr: 0x1254, symBinAddr: 0x10000E158, symSize: 0x14 }
  - { offsetInCU: 0x14AB6, offset: 0x5BD5F, size: 0x8, addend: 0x0, symName: __ZN13CommandParserD2Ev, symObjAddr: 0x1268, symBinAddr: 0x10000E16C, symSize: 0x30 }
  - { offsetInCU: 0x14ADE, offset: 0x5BD87, size: 0x8, addend: 0x0, symName: __ZN14CommandCreatorD1Ev, symObjAddr: 0x1298, symBinAddr: 0x10000E19C, symSize: 0x2C }
  - { offsetInCU: 0x14B06, offset: 0x5BDAF, size: 0x8, addend: 0x0, symName: __ZN14CommandCreatorD2Ev, symObjAddr: 0x12C4, symBinAddr: 0x10000E1C8, symSize: 0x38 }
  - { offsetInCU: 0x14B33, offset: 0x5BDDC, size: 0x8, addend: 0x0, symName: __ZNSt3__19allocatorI18CharwiseMoveActionEC1B8ue170006Ev, symObjAddr: 0x1584, symBinAddr: 0x10000E2A0, symSize: 0x2C }
  - { offsetInCU: 0x14B88, offset: 0x5BE31, size: 0x8, addend: 0x0, symName: __ZNSt3__118__allocation_guardINS_9allocatorINS_20__shared_ptr_emplaceI18CharwiseMoveActionNS1_IS3_EEEEEEEC1B8ue170006IS4_EET_m, symObjAddr: 0x15B0, symBinAddr: 0x10000E2CC, symSize: 0x34 }
  - { offsetInCU: 0x14BD5, offset: 0x5BE7E, size: 0x8, addend: 0x0, symName: __ZNKSt3__118__allocation_guardINS_9allocatorINS_20__shared_ptr_emplaceI18CharwiseMoveActionNS1_IS3_EEEEEEE5__getB8ue170006Ev, symObjAddr: 0x15E4, symBinAddr: 0x10000E300, symSize: 0x18 }
  - { offsetInCU: 0x14C04, offset: 0x5BEAD, size: 0x8, addend: 0x0, symName: __ZNSt3__120__shared_ptr_emplaceI18CharwiseMoveActionNS_9allocatorIS1_EEEC1B8ue170006IJR10ScreenSize9DirectionEEES3_DpOT_, symObjAddr: 0x15FC, symBinAddr: 0x10000E318, symSize: 0x3C }
  - { offsetInCU: 0x14C6C, offset: 0x5BF15, size: 0x8, addend: 0x0, symName: __ZNSt3__118__allocation_guardINS_9allocatorINS_20__shared_ptr_emplaceI18CharwiseMoveActionNS1_IS3_EEEEEEE13__release_ptrB8ue170006Ev, symObjAddr: 0x1638, symBinAddr: 0x10000E354, symSize: 0x24 }
  - { offsetInCU: 0x14C9F, offset: 0x5BF48, size: 0x8, addend: 0x0, symName: __ZNSt3__110shared_ptrI18CharwiseMoveActionE27__create_with_control_blockB8ue170006IS1_NS_20__shared_ptr_emplaceIS1_NS_9allocatorIS1_EEEEEES2_PT_PT0_, symObjAddr: 0x165C, symBinAddr: 0x10000E378, symSize: 0xA4 }
  - { offsetInCU: 0x14CF7, offset: 0x5BFA0, size: 0x8, addend: 0x0, symName: __ZNSt3__120__shared_ptr_emplaceI18CharwiseMoveActionNS_9allocatorIS1_EEE10__get_elemB8ue170006Ev, symObjAddr: 0x1700, symBinAddr: 0x10000E41C, symSize: 0x28 }
  - { offsetInCU: 0x14D1C, offset: 0x5BFC5, size: 0x8, addend: 0x0, symName: __ZNSt3__118__allocation_guardINS_9allocatorINS_20__shared_ptr_emplaceI18CharwiseMoveActionNS1_IS3_EEEEEEED1B8ue170006Ev, symObjAddr: 0x1728, symBinAddr: 0x10000E444, symSize: 0x2C }
  - { offsetInCU: 0x14D44, offset: 0x5BFED, size: 0x8, addend: 0x0, symName: __ZNSt3__118__allocation_guardINS_9allocatorINS_20__shared_ptr_emplaceI18CharwiseMoveActionNS1_IS3_EEEEEEEC2B8ue170006IS4_EET_m, symObjAddr: 0x1754, symBinAddr: 0x10000E470, symSize: 0x50 }
  - { offsetInCU: 0x14D91, offset: 0x5C03A, size: 0x8, addend: 0x0, symName: __ZNSt3__19allocatorINS_20__shared_ptr_emplaceI18CharwiseMoveActionNS0_IS2_EEEEEC1B8ue170006IS2_EERKNS0_IT_EE, symObjAddr: 0x17A4, symBinAddr: 0x10000E4C0, symSize: 0x34 }
  - { offsetInCU: 0x14DCD, offset: 0x5C076, size: 0x8, addend: 0x0, symName: __ZNSt3__116allocator_traitsINS_9allocatorINS_20__shared_ptr_emplaceI18CharwiseMoveActionNS1_IS3_EEEEEEE8allocateB8ue170006ERS6_m, symObjAddr: 0x17D8, symBinAddr: 0x10000E4F4, symSize: 0x2C }
  - { offsetInCU: 0x14E02, offset: 0x5C0AB, size: 0x8, addend: 0x0, symName: __ZNSt3__19allocatorINS_20__shared_ptr_emplaceI18CharwiseMoveActionNS0_IS2_EEEEEC2B8ue170006IS2_EERKNS0_IT_EE, symObjAddr: 0x1804, symBinAddr: 0x10000E520, symSize: 0x30 }
  - { offsetInCU: 0x14E3E, offset: 0x5C0E7, size: 0x8, addend: 0x0, symName: __ZNSt3__116__non_trivial_ifILb1ENS_9allocatorINS_20__shared_ptr_emplaceI18CharwiseMoveActionNS1_IS3_EEEEEEEC2B8ue170006Ev, symObjAddr: 0x1834, symBinAddr: 0x10000E550, symSize: 0x14 }
  - { offsetInCU: 0x14E67, offset: 0x5C110, size: 0x8, addend: 0x0, symName: __ZNSt3__19allocatorINS_20__shared_ptr_emplaceI18CharwiseMoveActionNS0_IS2_EEEEE8allocateB8ue170006Em, symObjAddr: 0x1848, symBinAddr: 0x10000E564, symSize: 0x5C }
  - { offsetInCU: 0x14EA4, offset: 0x5C14D, size: 0x8, addend: 0x0, symName: __ZNSt3__116allocator_traitsINS_9allocatorINS_20__shared_ptr_emplaceI18CharwiseMoveActionNS1_IS3_EEEEEEE8max_sizeB8ue170006IS6_vvEEmRKS6_, symObjAddr: 0x18A4, symBinAddr: 0x10000E5C0, symSize: 0x28 }
  - { offsetInCU: 0x14ED2, offset: 0x5C17B, size: 0x8, addend: 0x0, symName: __ZNSt3__120__shared_ptr_emplaceI18CharwiseMoveActionNS_9allocatorIS1_EEEC2B8ue170006IJR10ScreenSize9DirectionEEES3_DpOT_, symObjAddr: 0x19EC, symBinAddr: 0x10000E5E8, symSize: 0xD0 }
  - { offsetInCU: 0x14F5C, offset: 0x5C205, size: 0x8, addend: 0x0, symName: __ZNSt3__120__shared_ptr_emplaceI18CharwiseMoveActionNS_9allocatorIS1_EEE8_StorageC1B8ue170006EOS3_, symObjAddr: 0x1B10, symBinAddr: 0x10000E6B8, symSize: 0x34 }
  - { offsetInCU: 0x14F94, offset: 0x5C23D, size: 0x8, addend: 0x0, symName: __ZNSt3__120__shared_ptr_emplaceI18CharwiseMoveActionNS_9allocatorIS1_EEE11__get_allocB8ue170006Ev, symObjAddr: 0x1B44, symBinAddr: 0x10000E6EC, symSize: 0x28 }
  - { offsetInCU: 0x14FBE, offset: 0x5C267, size: 0x8, addend: 0x0, symName: __ZNSt3__116allocator_traitsINS_9allocatorI18CharwiseMoveActionEEE9constructB8ue170006IS2_JR10ScreenSize9DirectionEvvEEvRS3_PT_DpOT0_, symObjAddr: 0x1B6C, symBinAddr: 0x10000E714, symSize: 0x38 }
  - { offsetInCU: 0x1502C, offset: 0x5C2D5, size: 0x8, addend: 0x0, symName: __ZNSt3__120__shared_ptr_emplaceI18CharwiseMoveActionNS_9allocatorIS1_EEE8_StorageD1B8ue170006Ev, symObjAddr: 0x1BA4, symBinAddr: 0x10000E74C, symSize: 0x2C }
  - { offsetInCU: 0x15054, offset: 0x5C2FD, size: 0x8, addend: 0x0, symName: __ZNSt3__120__shared_ptr_emplaceI18CharwiseMoveActionNS_9allocatorIS1_EEED1Ev, symObjAddr: 0x1BD0, symBinAddr: 0x10000E778, symSize: 0x2C }
  - { offsetInCU: 0x15080, offset: 0x5C329, size: 0x8, addend: 0x0, symName: __ZNSt3__120__shared_ptr_emplaceI18CharwiseMoveActionNS_9allocatorIS1_EEED0Ev, symObjAddr: 0x1BFC, symBinAddr: 0x10000E7A4, symSize: 0x30 }
  - { offsetInCU: 0x150AC, offset: 0x5C355, size: 0x8, addend: 0x0, symName: __ZNSt3__120__shared_ptr_emplaceI18CharwiseMoveActionNS_9allocatorIS1_EEE16__on_zero_sharedEv, symObjAddr: 0x1C2C, symBinAddr: 0x10000E7D4, symSize: 0x44 }
  - { offsetInCU: 0x150F3, offset: 0x5C39C, size: 0x8, addend: 0x0, symName: __ZNSt3__120__shared_ptr_emplaceI18CharwiseMoveActionNS_9allocatorIS1_EEE21__on_zero_shared_weakEv, symObjAddr: 0x1C70, symBinAddr: 0x10000E818, symSize: 0x5C }
  - { offsetInCU: 0x15134, offset: 0x5C3DD, size: 0x8, addend: 0x0, symName: __ZNSt3__120__shared_ptr_emplaceI18CharwiseMoveActionNS_9allocatorIS1_EEE8_StorageC2B8ue170006EOS3_, symObjAddr: 0x1CFC, symBinAddr: 0x10000E874, symSize: 0x30 }
  - { offsetInCU: 0x1516C, offset: 0x5C415, size: 0x8, addend: 0x0, symName: __ZNSt3__120__shared_ptr_emplaceI18CharwiseMoveActionNS_9allocatorIS1_EEE8_Storage11__get_allocB8ue170006Ev, symObjAddr: 0x1D2C, symBinAddr: 0x10000E8A4, symSize: 0x3C }
  - { offsetInCU: 0x151C1, offset: 0x5C46A, size: 0x8, addend: 0x0, symName: __ZNSt3__117__compressed_pairINS_9allocatorI18CharwiseMoveActionEES2_E16__get_first_baseB8ue170006EPS4_, symObjAddr: 0x1D68, symBinAddr: 0x10000E8E0, symSize: 0x14 }
  - { offsetInCU: 0x151E4, offset: 0x5C48D, size: 0x8, addend: 0x0, symName: __ZNSt3__120__shared_ptr_emplaceI18CharwiseMoveActionNS_9allocatorIS1_EEE8_StorageD2B8ue170006Ev, symObjAddr: 0x1DD0, symBinAddr: 0x10000E948, symSize: 0x2C }
  - { offsetInCU: 0x1520C, offset: 0x5C4B5, size: 0x8, addend: 0x0, symName: __ZNSt3__120__shared_ptr_emplaceI18CharwiseMoveActionNS_9allocatorIS1_EEED2Ev, symObjAddr: 0x1DFC, symBinAddr: 0x10000E974, symSize: 0x48 }
  - { offsetInCU: 0x15238, offset: 0x5C4E1, size: 0x8, addend: 0x0, symName: __ZNSt3__116allocator_traitsINS_9allocatorI18CharwiseMoveActionEEE7destroyB8ue170006IS2_vvEEvRS3_PT_, symObjAddr: 0x1E44, symBinAddr: 0x10000E9BC, symSize: 0x28 }
  - { offsetInCU: 0x15276, offset: 0x5C51F, size: 0x8, addend: 0x0, symName: __ZNSt3__116allocator_traitsINS_9allocatorINS_20__shared_ptr_emplaceI18CharwiseMoveActionNS1_IS3_EEEEEEE10deallocateB8ue170006ERS6_PS5_m, symObjAddr: 0x1EBC, symBinAddr: 0x10000EA34, symSize: 0x34 }
  - { offsetInCU: 0x152C0, offset: 0x5C569, size: 0x8, addend: 0x0, symName: __ZNSt3__114pointer_traitsIPNS_20__shared_ptr_emplaceI18CharwiseMoveActionNS_9allocatorIS2_EEEEE10pointer_toB8ue170006ERS5_, symObjAddr: 0x1EF0, symBinAddr: 0x10000EA68, symSize: 0x14 }
  - { offsetInCU: 0x152E3, offset: 0x5C58C, size: 0x8, addend: 0x0, symName: __ZNSt3__19allocatorINS_20__shared_ptr_emplaceI18CharwiseMoveActionNS0_IS2_EEEEE10deallocateB8ue170006EPS4_m, symObjAddr: 0x1F04, symBinAddr: 0x10000EA7C, symSize: 0x44 }
  - { offsetInCU: 0x15324, offset: 0x5C5CD, size: 0x8, addend: 0x0, symName: __ZNSt3__110shared_ptrI18CharwiseMoveActionEC1B8ue170006Ev, symObjAddr: 0x2050, symBinAddr: 0x10000EAC0, symSize: 0x2C }
  - { offsetInCU: 0x1534C, offset: 0x5C5F5, size: 0x8, addend: 0x0, symName: __ZNSt3__110shared_ptrI18CharwiseMoveActionE18__enable_weak_thisB8ue170006Ez, symObjAddr: 0x207C, symBinAddr: 0x10000EAEC, symSize: 0x10 }
  - { offsetInCU: 0x15372, offset: 0x5C61B, size: 0x8, addend: 0x0, symName: __ZNSt3__110shared_ptrI18CharwiseMoveActionEC2B8ue170006Ev, symObjAddr: 0x208C, symBinAddr: 0x10000EAFC, symSize: 0x1C }
  - { offsetInCU: 0x1539B, offset: 0x5C644, size: 0x8, addend: 0x0, symName: __ZNSt3__120__shared_ptr_emplaceI18CharwiseMoveActionNS_9allocatorIS1_EEE8_Storage10__get_elemB8ue170006Ev, symObjAddr: 0x20A8, symBinAddr: 0x10000EB18, symSize: 0x3C }
  - { offsetInCU: 0x153F0, offset: 0x5C699, size: 0x8, addend: 0x0, symName: __ZNSt3__117__compressed_pairINS_9allocatorI18CharwiseMoveActionEES2_E17__get_second_baseB8ue170006EPS4_, symObjAddr: 0x20E4, symBinAddr: 0x10000EB54, symSize: 0x14 }
  - { offsetInCU: 0x15413, offset: 0x5C6BC, size: 0x8, addend: 0x0, symName: __ZNSt3__118__allocation_guardINS_9allocatorINS_20__shared_ptr_emplaceI18CharwiseMoveActionNS1_IS3_EEEEEEED2B8ue170006Ev, symObjAddr: 0x20F8, symBinAddr: 0x10000EB68, symSize: 0x2C }
  - { offsetInCU: 0x1543B, offset: 0x5C6E4, size: 0x8, addend: 0x0, symName: __ZNSt3__118__allocation_guardINS_9allocatorINS_20__shared_ptr_emplaceI18CharwiseMoveActionNS1_IS3_EEEEEEE9__destroyB8ue170006Ev, symObjAddr: 0x2124, symBinAddr: 0x10000EB94, symSize: 0x4C }
  - { offsetInCU: 0x15460, offset: 0x5C709, size: 0x8, addend: 0x0, symName: __ZNSt3__19allocatorI18CharwiseMoveActionEC2B8ue170006Ev, symObjAddr: 0x2170, symBinAddr: 0x10000EBE0, symSize: 0x2C }
  - { offsetInCU: 0x15488, offset: 0x5C731, size: 0x8, addend: 0x0, symName: __ZNSt3__116__non_trivial_ifILb1ENS_9allocatorI18CharwiseMoveActionEEEC2B8ue170006Ev, symObjAddr: 0x219C, symBinAddr: 0x10000EC0C, symSize: 0x14 }
  - { offsetInCU: 0x154B1, offset: 0x5C75A, size: 0x8, addend: 0x0, symName: __ZNSt3__110shared_ptrI18CharwiseMoveActionED2B8ue170006Ev, symObjAddr: 0x21B0, symBinAddr: 0x10000EC20, symSize: 0x54 }
  - { offsetInCU: 0x154D9, offset: 0x5C782, size: 0x8, addend: 0x0, symName: __ZNSt3__19allocatorI12IndentActionEC1B8ue170006Ev, symObjAddr: 0x238C, symBinAddr: 0x10000ED14, symSize: 0x2C }
  - { offsetInCU: 0x1552E, offset: 0x5C7D7, size: 0x8, addend: 0x0, symName: __ZNSt3__118__allocation_guardINS_9allocatorINS_20__shared_ptr_emplaceI12IndentActionNS1_IS3_EEEEEEEC1B8ue170006IS4_EET_m, symObjAddr: 0x23B8, symBinAddr: 0x10000ED40, symSize: 0x34 }
  - { offsetInCU: 0x1557B, offset: 0x5C824, size: 0x8, addend: 0x0, symName: __ZNKSt3__118__allocation_guardINS_9allocatorINS_20__shared_ptr_emplaceI12IndentActionNS1_IS3_EEEEEEE5__getB8ue170006Ev, symObjAddr: 0x23EC, symBinAddr: 0x10000ED74, symSize: 0x18 }
  - { offsetInCU: 0x155A5, offset: 0x5C84E, size: 0x8, addend: 0x0, symName: __ZNSt3__120__shared_ptr_emplaceI12IndentActionNS_9allocatorIS1_EEEC1B8ue170006IJiiEEES3_DpOT_, symObjAddr: 0x2404, symBinAddr: 0x10000ED8C, symSize: 0x3C }
  - { offsetInCU: 0x1560D, offset: 0x5C8B6, size: 0x8, addend: 0x0, symName: __ZNSt3__118__allocation_guardINS_9allocatorINS_20__shared_ptr_emplaceI12IndentActionNS1_IS3_EEEEEEE13__release_ptrB8ue170006Ev, symObjAddr: 0x2440, symBinAddr: 0x10000EDC8, symSize: 0x24 }
  - { offsetInCU: 0x15640, offset: 0x5C8E9, size: 0x8, addend: 0x0, symName: __ZNSt3__110shared_ptrI12IndentActionE27__create_with_control_blockB8ue170006IS1_NS_20__shared_ptr_emplaceIS1_NS_9allocatorIS1_EEEEEES2_PT_PT0_, symObjAddr: 0x2464, symBinAddr: 0x10000EDEC, symSize: 0xA4 }
  - { offsetInCU: 0x15698, offset: 0x5C941, size: 0x8, addend: 0x0, symName: __ZNSt3__120__shared_ptr_emplaceI12IndentActionNS_9allocatorIS1_EEE10__get_elemB8ue170006Ev, symObjAddr: 0x2508, symBinAddr: 0x10000EE90, symSize: 0x28 }
  - { offsetInCU: 0x156BD, offset: 0x5C966, size: 0x8, addend: 0x0, symName: __ZNSt3__118__allocation_guardINS_9allocatorINS_20__shared_ptr_emplaceI12IndentActionNS1_IS3_EEEEEEED1B8ue170006Ev, symObjAddr: 0x2530, symBinAddr: 0x10000EEB8, symSize: 0x2C }
  - { offsetInCU: 0x156E5, offset: 0x5C98E, size: 0x8, addend: 0x0, symName: __ZNSt3__118__allocation_guardINS_9allocatorINS_20__shared_ptr_emplaceI12IndentActionNS1_IS3_EEEEEEEC2B8ue170006IS4_EET_m, symObjAddr: 0x255C, symBinAddr: 0x10000EEE4, symSize: 0x50 }
  - { offsetInCU: 0x15732, offset: 0x5C9DB, size: 0x8, addend: 0x0, symName: __ZNSt3__19allocatorINS_20__shared_ptr_emplaceI12IndentActionNS0_IS2_EEEEEC1B8ue170006IS2_EERKNS0_IT_EE, symObjAddr: 0x25AC, symBinAddr: 0x10000EF34, symSize: 0x34 }
  - { offsetInCU: 0x1576E, offset: 0x5CA17, size: 0x8, addend: 0x0, symName: __ZNSt3__116allocator_traitsINS_9allocatorINS_20__shared_ptr_emplaceI12IndentActionNS1_IS3_EEEEEEE8allocateB8ue170006ERS6_m, symObjAddr: 0x25E0, symBinAddr: 0x10000EF68, symSize: 0x2C }
  - { offsetInCU: 0x157A3, offset: 0x5CA4C, size: 0x8, addend: 0x0, symName: __ZNSt3__19allocatorINS_20__shared_ptr_emplaceI12IndentActionNS0_IS2_EEEEEC2B8ue170006IS2_EERKNS0_IT_EE, symObjAddr: 0x260C, symBinAddr: 0x10000EF94, symSize: 0x30 }
  - { offsetInCU: 0x157DF, offset: 0x5CA88, size: 0x8, addend: 0x0, symName: __ZNSt3__116__non_trivial_ifILb1ENS_9allocatorINS_20__shared_ptr_emplaceI12IndentActionNS1_IS3_EEEEEEEC2B8ue170006Ev, symObjAddr: 0x263C, symBinAddr: 0x10000EFC4, symSize: 0x14 }
  - { offsetInCU: 0x15808, offset: 0x5CAB1, size: 0x8, addend: 0x0, symName: __ZNSt3__19allocatorINS_20__shared_ptr_emplaceI12IndentActionNS0_IS2_EEEEE8allocateB8ue170006Em, symObjAddr: 0x2650, symBinAddr: 0x10000EFD8, symSize: 0x5C }
  - { offsetInCU: 0x15845, offset: 0x5CAEE, size: 0x8, addend: 0x0, symName: __ZNSt3__116allocator_traitsINS_9allocatorINS_20__shared_ptr_emplaceI12IndentActionNS1_IS3_EEEEEEE8max_sizeB8ue170006IS6_vvEEmRKS6_, symObjAddr: 0x26AC, symBinAddr: 0x10000F034, symSize: 0x28 }
  - { offsetInCU: 0x15873, offset: 0x5CB1C, size: 0x8, addend: 0x0, symName: __ZNSt3__120__shared_ptr_emplaceI12IndentActionNS_9allocatorIS1_EEEC2B8ue170006IJiiEEES3_DpOT_, symObjAddr: 0x26D4, symBinAddr: 0x10000F05C, symSize: 0xD0 }
  - { offsetInCU: 0x158FD, offset: 0x5CBA6, size: 0x8, addend: 0x0, symName: __ZNSt3__120__shared_ptr_emplaceI12IndentActionNS_9allocatorIS1_EEE8_StorageC1B8ue170006EOS3_, symObjAddr: 0x27A4, symBinAddr: 0x10000F12C, symSize: 0x34 }
  - { offsetInCU: 0x15935, offset: 0x5CBDE, size: 0x8, addend: 0x0, symName: __ZNSt3__120__shared_ptr_emplaceI12IndentActionNS_9allocatorIS1_EEE11__get_allocB8ue170006Ev, symObjAddr: 0x27D8, symBinAddr: 0x10000F160, symSize: 0x28 }
  - { offsetInCU: 0x1595F, offset: 0x5CC08, size: 0x8, addend: 0x0, symName: __ZNSt3__116allocator_traitsINS_9allocatorI12IndentActionEEE9constructB8ue170006IS2_JiiEvvEEvRS3_PT_DpOT0_, symObjAddr: 0x2800, symBinAddr: 0x10000F188, symSize: 0x38 }
  - { offsetInCU: 0x159CD, offset: 0x5CC76, size: 0x8, addend: 0x0, symName: __ZNSt3__120__shared_ptr_emplaceI12IndentActionNS_9allocatorIS1_EEE8_StorageD1B8ue170006Ev, symObjAddr: 0x2838, symBinAddr: 0x10000F1C0, symSize: 0x2C }
  - { offsetInCU: 0x159F5, offset: 0x5CC9E, size: 0x8, addend: 0x0, symName: __ZNSt3__120__shared_ptr_emplaceI12IndentActionNS_9allocatorIS1_EEED1Ev, symObjAddr: 0x2864, symBinAddr: 0x10000F1EC, symSize: 0x2C }
  - { offsetInCU: 0x15A21, offset: 0x5CCCA, size: 0x8, addend: 0x0, symName: __ZNSt3__120__shared_ptr_emplaceI12IndentActionNS_9allocatorIS1_EEED0Ev, symObjAddr: 0x2890, symBinAddr: 0x10000F218, symSize: 0x30 }
  - { offsetInCU: 0x15A4D, offset: 0x5CCF6, size: 0x8, addend: 0x0, symName: __ZNSt3__120__shared_ptr_emplaceI12IndentActionNS_9allocatorIS1_EEE16__on_zero_sharedEv, symObjAddr: 0x28C0, symBinAddr: 0x10000F248, symSize: 0x44 }
  - { offsetInCU: 0x15A94, offset: 0x5CD3D, size: 0x8, addend: 0x0, symName: __ZNSt3__120__shared_ptr_emplaceI12IndentActionNS_9allocatorIS1_EEE21__on_zero_shared_weakEv, symObjAddr: 0x2904, symBinAddr: 0x10000F28C, symSize: 0x5C }
  - { offsetInCU: 0x15AD5, offset: 0x5CD7E, size: 0x8, addend: 0x0, symName: __ZNSt3__120__shared_ptr_emplaceI12IndentActionNS_9allocatorIS1_EEE8_StorageC2B8ue170006EOS3_, symObjAddr: 0x2960, symBinAddr: 0x10000F2E8, symSize: 0x30 }
  - { offsetInCU: 0x15B0D, offset: 0x5CDB6, size: 0x8, addend: 0x0, symName: __ZNSt3__120__shared_ptr_emplaceI12IndentActionNS_9allocatorIS1_EEE8_Storage11__get_allocB8ue170006Ev, symObjAddr: 0x2990, symBinAddr: 0x10000F318, symSize: 0x3C }
  - { offsetInCU: 0x15B62, offset: 0x5CE0B, size: 0x8, addend: 0x0, symName: __ZNSt3__117__compressed_pairINS_9allocatorI12IndentActionEES2_E16__get_first_baseB8ue170006EPS4_, symObjAddr: 0x29CC, symBinAddr: 0x10000F354, symSize: 0x14 }
  - { offsetInCU: 0x15B85, offset: 0x5CE2E, size: 0x8, addend: 0x0, symName: __ZNSt3__120__shared_ptr_emplaceI12IndentActionNS_9allocatorIS1_EEE8_StorageD2B8ue170006Ev, symObjAddr: 0x2A2C, symBinAddr: 0x10000F3B4, symSize: 0x2C }
  - { offsetInCU: 0x15BAD, offset: 0x5CE56, size: 0x8, addend: 0x0, symName: __ZNSt3__120__shared_ptr_emplaceI12IndentActionNS_9allocatorIS1_EEED2Ev, symObjAddr: 0x2A58, symBinAddr: 0x10000F3E0, symSize: 0x48 }
  - { offsetInCU: 0x15BD9, offset: 0x5CE82, size: 0x8, addend: 0x0, symName: __ZNSt3__116allocator_traitsINS_9allocatorI12IndentActionEEE7destroyB8ue170006IS2_vvEEvRS3_PT_, symObjAddr: 0x2AA0, symBinAddr: 0x10000F428, symSize: 0x28 }
  - { offsetInCU: 0x15C17, offset: 0x5CEC0, size: 0x8, addend: 0x0, symName: __ZNSt3__116allocator_traitsINS_9allocatorINS_20__shared_ptr_emplaceI12IndentActionNS1_IS3_EEEEEEE10deallocateB8ue170006ERS6_PS5_m, symObjAddr: 0x2B18, symBinAddr: 0x10000F4A0, symSize: 0x34 }
  - { offsetInCU: 0x15C61, offset: 0x5CF0A, size: 0x8, addend: 0x0, symName: __ZNSt3__114pointer_traitsIPNS_20__shared_ptr_emplaceI12IndentActionNS_9allocatorIS2_EEEEE10pointer_toB8ue170006ERS5_, symObjAddr: 0x2B4C, symBinAddr: 0x10000F4D4, symSize: 0x14 }
  - { offsetInCU: 0x15C84, offset: 0x5CF2D, size: 0x8, addend: 0x0, symName: __ZNSt3__19allocatorINS_20__shared_ptr_emplaceI12IndentActionNS0_IS2_EEEEE10deallocateB8ue170006EPS4_m, symObjAddr: 0x2B60, symBinAddr: 0x10000F4E8, symSize: 0x44 }
  - { offsetInCU: 0x15CC5, offset: 0x5CF6E, size: 0x8, addend: 0x0, symName: __ZNSt3__110shared_ptrI12IndentActionEC1B8ue170006Ev, symObjAddr: 0x2BA4, symBinAddr: 0x10000F52C, symSize: 0x2C }
  - { offsetInCU: 0x15CED, offset: 0x5CF96, size: 0x8, addend: 0x0, symName: __ZNSt3__110shared_ptrI12IndentActionE18__enable_weak_thisB8ue170006Ez, symObjAddr: 0x2BD0, symBinAddr: 0x10000F558, symSize: 0x10 }
  - { offsetInCU: 0x15D13, offset: 0x5CFBC, size: 0x8, addend: 0x0, symName: __ZNSt3__110shared_ptrI12IndentActionEC2B8ue170006Ev, symObjAddr: 0x2BE0, symBinAddr: 0x10000F568, symSize: 0x1C }
  - { offsetInCU: 0x15D3C, offset: 0x5CFE5, size: 0x8, addend: 0x0, symName: __ZNSt3__120__shared_ptr_emplaceI12IndentActionNS_9allocatorIS1_EEE8_Storage10__get_elemB8ue170006Ev, symObjAddr: 0x2BFC, symBinAddr: 0x10000F584, symSize: 0x3C }
  - { offsetInCU: 0x15D91, offset: 0x5D03A, size: 0x8, addend: 0x0, symName: __ZNSt3__117__compressed_pairINS_9allocatorI12IndentActionEES2_E17__get_second_baseB8ue170006EPS4_, symObjAddr: 0x2C38, symBinAddr: 0x10000F5C0, symSize: 0x14 }
  - { offsetInCU: 0x15DB4, offset: 0x5D05D, size: 0x8, addend: 0x0, symName: __ZNSt3__118__allocation_guardINS_9allocatorINS_20__shared_ptr_emplaceI12IndentActionNS1_IS3_EEEEEEED2B8ue170006Ev, symObjAddr: 0x2C4C, symBinAddr: 0x10000F5D4, symSize: 0x2C }
  - { offsetInCU: 0x15DDC, offset: 0x5D085, size: 0x8, addend: 0x0, symName: __ZNSt3__118__allocation_guardINS_9allocatorINS_20__shared_ptr_emplaceI12IndentActionNS1_IS3_EEEEEEE9__destroyB8ue170006Ev, symObjAddr: 0x2C78, symBinAddr: 0x10000F600, symSize: 0x4C }
  - { offsetInCU: 0x15E01, offset: 0x5D0AA, size: 0x8, addend: 0x0, symName: __ZNSt3__19allocatorI12IndentActionEC2B8ue170006Ev, symObjAddr: 0x2CC4, symBinAddr: 0x10000F64C, symSize: 0x2C }
  - { offsetInCU: 0x15E29, offset: 0x5D0D2, size: 0x8, addend: 0x0, symName: __ZNSt3__116__non_trivial_ifILb1ENS_9allocatorI12IndentActionEEEC2B8ue170006Ev, symObjAddr: 0x2CF0, symBinAddr: 0x10000F678, symSize: 0x14 }
  - { offsetInCU: 0x15E52, offset: 0x5D0FB, size: 0x8, addend: 0x0, symName: __ZNSt3__110shared_ptrI12IndentActionED2B8ue170006Ev, symObjAddr: 0x2D04, symBinAddr: 0x10000F68C, symSize: 0x54 }
  - { offsetInCU: 0x15E7A, offset: 0x5D123, size: 0x8, addend: 0x0, symName: __ZNSt3__19allocatorI14UnindentActionEC1B8ue170006Ev, symObjAddr: 0x2DF8, symBinAddr: 0x10000F780, symSize: 0x2C }
  - { offsetInCU: 0x15ECF, offset: 0x5D178, size: 0x8, addend: 0x0, symName: __ZNSt3__118__allocation_guardINS_9allocatorINS_20__shared_ptr_emplaceI14UnindentActionNS1_IS3_EEEEEEEC1B8ue170006IS4_EET_m, symObjAddr: 0x2E24, symBinAddr: 0x10000F7AC, symSize: 0x34 }
  - { offsetInCU: 0x15F1C, offset: 0x5D1C5, size: 0x8, addend: 0x0, symName: __ZNKSt3__118__allocation_guardINS_9allocatorINS_20__shared_ptr_emplaceI14UnindentActionNS1_IS3_EEEEEEE5__getB8ue170006Ev, symObjAddr: 0x2E58, symBinAddr: 0x10000F7E0, symSize: 0x18 }
  - { offsetInCU: 0x15F41, offset: 0x5D1EA, size: 0x8, addend: 0x0, symName: __ZNSt3__120__shared_ptr_emplaceI14UnindentActionNS_9allocatorIS1_EEEC1B8ue170006IJiiEEES3_DpOT_, symObjAddr: 0x2E70, symBinAddr: 0x10000F7F8, symSize: 0x3C }
  - { offsetInCU: 0x15FA9, offset: 0x5D252, size: 0x8, addend: 0x0, symName: __ZNSt3__118__allocation_guardINS_9allocatorINS_20__shared_ptr_emplaceI14UnindentActionNS1_IS3_EEEEEEE13__release_ptrB8ue170006Ev, symObjAddr: 0x2EAC, symBinAddr: 0x10000F834, symSize: 0x24 }
  - { offsetInCU: 0x15FDC, offset: 0x5D285, size: 0x8, addend: 0x0, symName: __ZNSt3__110shared_ptrI14UnindentActionE27__create_with_control_blockB8ue170006IS1_NS_20__shared_ptr_emplaceIS1_NS_9allocatorIS1_EEEEEES2_PT_PT0_, symObjAddr: 0x2ED0, symBinAddr: 0x10000F858, symSize: 0xA4 }
  - { offsetInCU: 0x16034, offset: 0x5D2DD, size: 0x8, addend: 0x0, symName: __ZNSt3__120__shared_ptr_emplaceI14UnindentActionNS_9allocatorIS1_EEE10__get_elemB8ue170006Ev, symObjAddr: 0x2F74, symBinAddr: 0x10000F8FC, symSize: 0x28 }
  - { offsetInCU: 0x16059, offset: 0x5D302, size: 0x8, addend: 0x0, symName: __ZNSt3__118__allocation_guardINS_9allocatorINS_20__shared_ptr_emplaceI14UnindentActionNS1_IS3_EEEEEEED1B8ue170006Ev, symObjAddr: 0x2F9C, symBinAddr: 0x10000F924, symSize: 0x2C }
  - { offsetInCU: 0x16081, offset: 0x5D32A, size: 0x8, addend: 0x0, symName: __ZNSt3__118__allocation_guardINS_9allocatorINS_20__shared_ptr_emplaceI14UnindentActionNS1_IS3_EEEEEEEC2B8ue170006IS4_EET_m, symObjAddr: 0x2FC8, symBinAddr: 0x10000F950, symSize: 0x50 }
  - { offsetInCU: 0x160CE, offset: 0x5D377, size: 0x8, addend: 0x0, symName: __ZNSt3__19allocatorINS_20__shared_ptr_emplaceI14UnindentActionNS0_IS2_EEEEEC1B8ue170006IS2_EERKNS0_IT_EE, symObjAddr: 0x3018, symBinAddr: 0x10000F9A0, symSize: 0x34 }
  - { offsetInCU: 0x1610A, offset: 0x5D3B3, size: 0x8, addend: 0x0, symName: __ZNSt3__116allocator_traitsINS_9allocatorINS_20__shared_ptr_emplaceI14UnindentActionNS1_IS3_EEEEEEE8allocateB8ue170006ERS6_m, symObjAddr: 0x304C, symBinAddr: 0x10000F9D4, symSize: 0x2C }
  - { offsetInCU: 0x1613F, offset: 0x5D3E8, size: 0x8, addend: 0x0, symName: __ZNSt3__19allocatorINS_20__shared_ptr_emplaceI14UnindentActionNS0_IS2_EEEEEC2B8ue170006IS2_EERKNS0_IT_EE, symObjAddr: 0x3078, symBinAddr: 0x10000FA00, symSize: 0x30 }
  - { offsetInCU: 0x1617B, offset: 0x5D424, size: 0x8, addend: 0x0, symName: __ZNSt3__116__non_trivial_ifILb1ENS_9allocatorINS_20__shared_ptr_emplaceI14UnindentActionNS1_IS3_EEEEEEEC2B8ue170006Ev, symObjAddr: 0x30A8, symBinAddr: 0x10000FA30, symSize: 0x14 }
  - { offsetInCU: 0x161A4, offset: 0x5D44D, size: 0x8, addend: 0x0, symName: __ZNSt3__19allocatorINS_20__shared_ptr_emplaceI14UnindentActionNS0_IS2_EEEEE8allocateB8ue170006Em, symObjAddr: 0x30BC, symBinAddr: 0x10000FA44, symSize: 0x5C }
  - { offsetInCU: 0x161E1, offset: 0x5D48A, size: 0x8, addend: 0x0, symName: __ZNSt3__116allocator_traitsINS_9allocatorINS_20__shared_ptr_emplaceI14UnindentActionNS1_IS3_EEEEEEE8max_sizeB8ue170006IS6_vvEEmRKS6_, symObjAddr: 0x3118, symBinAddr: 0x10000FAA0, symSize: 0x28 }
  - { offsetInCU: 0x1620F, offset: 0x5D4B8, size: 0x8, addend: 0x0, symName: __ZNSt3__120__shared_ptr_emplaceI14UnindentActionNS_9allocatorIS1_EEEC2B8ue170006IJiiEEES3_DpOT_, symObjAddr: 0x3140, symBinAddr: 0x10000FAC8, symSize: 0xD0 }
  - { offsetInCU: 0x16299, offset: 0x5D542, size: 0x8, addend: 0x0, symName: __ZNSt3__120__shared_ptr_emplaceI14UnindentActionNS_9allocatorIS1_EEE8_StorageC1B8ue170006EOS3_, symObjAddr: 0x3210, symBinAddr: 0x10000FB98, symSize: 0x34 }
  - { offsetInCU: 0x162D1, offset: 0x5D57A, size: 0x8, addend: 0x0, symName: __ZNSt3__120__shared_ptr_emplaceI14UnindentActionNS_9allocatorIS1_EEE11__get_allocB8ue170006Ev, symObjAddr: 0x3244, symBinAddr: 0x10000FBCC, symSize: 0x28 }
  - { offsetInCU: 0x162FB, offset: 0x5D5A4, size: 0x8, addend: 0x0, symName: __ZNSt3__116allocator_traitsINS_9allocatorI14UnindentActionEEE9constructB8ue170006IS2_JiiEvvEEvRS3_PT_DpOT0_, symObjAddr: 0x326C, symBinAddr: 0x10000FBF4, symSize: 0x38 }
  - { offsetInCU: 0x16369, offset: 0x5D612, size: 0x8, addend: 0x0, symName: __ZNSt3__120__shared_ptr_emplaceI14UnindentActionNS_9allocatorIS1_EEE8_StorageD1B8ue170006Ev, symObjAddr: 0x32A4, symBinAddr: 0x10000FC2C, symSize: 0x2C }
  - { offsetInCU: 0x16391, offset: 0x5D63A, size: 0x8, addend: 0x0, symName: __ZNSt3__120__shared_ptr_emplaceI14UnindentActionNS_9allocatorIS1_EEED1Ev, symObjAddr: 0x32D0, symBinAddr: 0x10000FC58, symSize: 0x2C }
  - { offsetInCU: 0x163BD, offset: 0x5D666, size: 0x8, addend: 0x0, symName: __ZNSt3__120__shared_ptr_emplaceI14UnindentActionNS_9allocatorIS1_EEED0Ev, symObjAddr: 0x32FC, symBinAddr: 0x10000FC84, symSize: 0x30 }
  - { offsetInCU: 0x163E9, offset: 0x5D692, size: 0x8, addend: 0x0, symName: __ZNSt3__120__shared_ptr_emplaceI14UnindentActionNS_9allocatorIS1_EEE16__on_zero_sharedEv, symObjAddr: 0x332C, symBinAddr: 0x10000FCB4, symSize: 0x44 }
  - { offsetInCU: 0x16430, offset: 0x5D6D9, size: 0x8, addend: 0x0, symName: __ZNSt3__120__shared_ptr_emplaceI14UnindentActionNS_9allocatorIS1_EEE21__on_zero_shared_weakEv, symObjAddr: 0x3370, symBinAddr: 0x10000FCF8, symSize: 0x5C }
  - { offsetInCU: 0x16471, offset: 0x5D71A, size: 0x8, addend: 0x0, symName: __ZNSt3__120__shared_ptr_emplaceI14UnindentActionNS_9allocatorIS1_EEE8_StorageC2B8ue170006EOS3_, symObjAddr: 0x33CC, symBinAddr: 0x10000FD54, symSize: 0x30 }
  - { offsetInCU: 0x164A9, offset: 0x5D752, size: 0x8, addend: 0x0, symName: __ZNSt3__120__shared_ptr_emplaceI14UnindentActionNS_9allocatorIS1_EEE8_Storage11__get_allocB8ue170006Ev, symObjAddr: 0x33FC, symBinAddr: 0x10000FD84, symSize: 0x3C }
  - { offsetInCU: 0x164FE, offset: 0x5D7A7, size: 0x8, addend: 0x0, symName: __ZNSt3__117__compressed_pairINS_9allocatorI14UnindentActionEES2_E16__get_first_baseB8ue170006EPS4_, symObjAddr: 0x3438, symBinAddr: 0x10000FDC0, symSize: 0x14 }
  - { offsetInCU: 0x16521, offset: 0x5D7CA, size: 0x8, addend: 0x0, symName: __ZNSt3__120__shared_ptr_emplaceI14UnindentActionNS_9allocatorIS1_EEE8_StorageD2B8ue170006Ev, symObjAddr: 0x3498, symBinAddr: 0x10000FE20, symSize: 0x2C }
  - { offsetInCU: 0x16549, offset: 0x5D7F2, size: 0x8, addend: 0x0, symName: __ZNSt3__120__shared_ptr_emplaceI14UnindentActionNS_9allocatorIS1_EEED2Ev, symObjAddr: 0x34C4, symBinAddr: 0x10000FE4C, symSize: 0x48 }
  - { offsetInCU: 0x16575, offset: 0x5D81E, size: 0x8, addend: 0x0, symName: __ZNSt3__116allocator_traitsINS_9allocatorI14UnindentActionEEE7destroyB8ue170006IS2_vvEEvRS3_PT_, symObjAddr: 0x350C, symBinAddr: 0x10000FE94, symSize: 0x28 }
  - { offsetInCU: 0x165B3, offset: 0x5D85C, size: 0x8, addend: 0x0, symName: __ZNSt3__116allocator_traitsINS_9allocatorINS_20__shared_ptr_emplaceI14UnindentActionNS1_IS3_EEEEEEE10deallocateB8ue170006ERS6_PS5_m, symObjAddr: 0x3584, symBinAddr: 0x10000FF0C, symSize: 0x34 }
  - { offsetInCU: 0x165FD, offset: 0x5D8A6, size: 0x8, addend: 0x0, symName: __ZNSt3__114pointer_traitsIPNS_20__shared_ptr_emplaceI14UnindentActionNS_9allocatorIS2_EEEEE10pointer_toB8ue170006ERS5_, symObjAddr: 0x35B8, symBinAddr: 0x10000FF40, symSize: 0x14 }
  - { offsetInCU: 0x16620, offset: 0x5D8C9, size: 0x8, addend: 0x0, symName: __ZNSt3__19allocatorINS_20__shared_ptr_emplaceI14UnindentActionNS0_IS2_EEEEE10deallocateB8ue170006EPS4_m, symObjAddr: 0x35CC, symBinAddr: 0x10000FF54, symSize: 0x44 }
  - { offsetInCU: 0x16661, offset: 0x5D90A, size: 0x8, addend: 0x0, symName: __ZNSt3__110shared_ptrI14UnindentActionEC1B8ue170006Ev, symObjAddr: 0x3610, symBinAddr: 0x10000FF98, symSize: 0x2C }
  - { offsetInCU: 0x16689, offset: 0x5D932, size: 0x8, addend: 0x0, symName: __ZNSt3__110shared_ptrI14UnindentActionE18__enable_weak_thisB8ue170006Ez, symObjAddr: 0x363C, symBinAddr: 0x10000FFC4, symSize: 0x10 }
  - { offsetInCU: 0x166AF, offset: 0x5D958, size: 0x8, addend: 0x0, symName: __ZNSt3__110shared_ptrI14UnindentActionEC2B8ue170006Ev, symObjAddr: 0x364C, symBinAddr: 0x10000FFD4, symSize: 0x1C }
  - { offsetInCU: 0x166D8, offset: 0x5D981, size: 0x8, addend: 0x0, symName: __ZNSt3__120__shared_ptr_emplaceI14UnindentActionNS_9allocatorIS1_EEE8_Storage10__get_elemB8ue170006Ev, symObjAddr: 0x3668, symBinAddr: 0x10000FFF0, symSize: 0x3C }
  - { offsetInCU: 0x1672D, offset: 0x5D9D6, size: 0x8, addend: 0x0, symName: __ZNSt3__117__compressed_pairINS_9allocatorI14UnindentActionEES2_E17__get_second_baseB8ue170006EPS4_, symObjAddr: 0x36A4, symBinAddr: 0x10001002C, symSize: 0x14 }
  - { offsetInCU: 0x16750, offset: 0x5D9F9, size: 0x8, addend: 0x0, symName: __ZNSt3__118__allocation_guardINS_9allocatorINS_20__shared_ptr_emplaceI14UnindentActionNS1_IS3_EEEEEEED2B8ue170006Ev, symObjAddr: 0x36B8, symBinAddr: 0x100010040, symSize: 0x2C }
  - { offsetInCU: 0x16778, offset: 0x5DA21, size: 0x8, addend: 0x0, symName: __ZNSt3__118__allocation_guardINS_9allocatorINS_20__shared_ptr_emplaceI14UnindentActionNS1_IS3_EEEEEEE9__destroyB8ue170006Ev, symObjAddr: 0x36E4, symBinAddr: 0x10001006C, symSize: 0x4C }
  - { offsetInCU: 0x1679D, offset: 0x5DA46, size: 0x8, addend: 0x0, symName: __ZNSt3__19allocatorI14UnindentActionEC2B8ue170006Ev, symObjAddr: 0x3730, symBinAddr: 0x1000100B8, symSize: 0x2C }
  - { offsetInCU: 0x167C5, offset: 0x5DA6E, size: 0x8, addend: 0x0, symName: __ZNSt3__116__non_trivial_ifILb1ENS_9allocatorI14UnindentActionEEEC2B8ue170006Ev, symObjAddr: 0x375C, symBinAddr: 0x1000100E4, symSize: 0x14 }
  - { offsetInCU: 0x167EE, offset: 0x5DA97, size: 0x8, addend: 0x0, symName: __ZNSt3__110shared_ptrI14UnindentActionED2B8ue170006Ev, symObjAddr: 0x3770, symBinAddr: 0x1000100F8, symSize: 0x54 }
  - { offsetInCU: 0x108FB, offset: 0x6E495, size: 0x8, addend: 0x0, symName: __ZNSt3__111make_sharedB8ue170006I8ToolModeJEvEENS_10shared_ptrIT_EEDpOT0_, symObjAddr: 0x2EC, symBinAddr: 0x100010438, symSize: 0x38 }
  - { offsetInCU: 0x10B48, offset: 0x6E6E2, size: 0x8, addend: 0x0, symName: __ZNSt3__111make_sharedB8ue170006I10TypingModeJEvEENS_10shared_ptrIT_EEDpOT0_, symObjAddr: 0x360, symBinAddr: 0x1000104AC, symSize: 0x38 }
  - { offsetInCU: 0x10D95, offset: 0x6E92F, size: 0x8, addend: 0x0, symName: __ZNSt3__1plB8ue170006IcNS_11char_traitsIcEENS_9allocatorIcEEEENS_12basic_stringIT_T0_T1_EEOS9_PKS6_, symObjAddr: 0x8B8, symBinAddr: 0x100010A04, symSize: 0x40 }
  - { offsetInCU: 0x10DF0, offset: 0x6E98A, size: 0x8, addend: 0x0, symName: __ZNSt3__1plB8ue170006IcNS_11char_traitsIcEENS_9allocatorIcEEEENS_12basic_stringIT_T0_T1_EEPKS6_OS9_, symObjAddr: 0x8F8, symBinAddr: 0x100010A44, symSize: 0x44 }
  - { offsetInCU: 0x10E72, offset: 0x6EA0C, size: 0x8, addend: 0x0, symName: __ZNSt3__112construct_atB8ue170006INS_10shared_ptrI6ActionEEJRKS3_EPS3_EEPT_S8_DpOT0_, symObjAddr: 0xD78, symBinAddr: 0x100010E7C, symSize: 0x3C }
  - { offsetInCU: 0x10EE4, offset: 0x6EA7E, size: 0x8, addend: 0x0, symName: __ZNSt3__134__libcpp_atomic_refcount_incrementB8ue170006IlEET_RS1_, symObjAddr: 0xEA4, symBinAddr: 0x100010FA8, symSize: 0x30 }
  - { offsetInCU: 0x10F4D, offset: 0x6EAE7, size: 0x8, addend: 0x0, symName: __ZNSt3__110destroy_atB8ue170006INS_4pairIK8ModeTypeNS_10shared_ptrI10EditorModeEEEELi0EEEvPT_, symObjAddr: 0x1C14, symBinAddr: 0x100011B28, symSize: 0x24 }
  - { offsetInCU: 0x10F85, offset: 0x6EB1F, size: 0x8, addend: 0x0, symName: __ZNSt3__112__destroy_atB8ue170006INS_4pairIK8ModeTypeNS_10shared_ptrI10EditorModeEEEELi0EEEvPT_, symObjAddr: 0x1C38, symBinAddr: 0x100011B4C, symSize: 0x24 }
  - { offsetInCU: 0x10FBD, offset: 0x6EB57, size: 0x8, addend: 0x0, symName: __ZNSt3__17launderB8ue170006INS_4pairIK8ModeTypeNS_10shared_ptrI10EditorModeEEEEEEPT_S9_, symObjAddr: 0x1C80, symBinAddr: 0x100011B94, symSize: 0x24 }
  - { offsetInCU: 0x10FF6, offset: 0x6EB90, size: 0x8, addend: 0x0, symName: __ZNSt3__19__launderB8ue170006INS_4pairIK8ModeTypeNS_10shared_ptrI10EditorModeEEEEEEPT_S9_, symObjAddr: 0x1CA4, symBinAddr: 0x100011BB8, symSize: 0x14 }
  - { offsetInCU: 0x1102F, offset: 0x6EBC9, size: 0x8, addend: 0x0, symName: __ZNSt3__115allocate_sharedB8ue170006I8ToolModeNS_9allocatorIS1_EEJEvEENS_10shared_ptrIT_EERKT0_DpOT1_, symObjAddr: 0x20CC, symBinAddr: 0x100011EB8, symSize: 0x90 }
  - { offsetInCU: 0x113C8, offset: 0x6EF62, size: 0x8, addend: 0x0, symName: __ZNSt3__112construct_atB8ue170006I8ToolModeJEPS1_EEPT_S4_DpOT0_, symObjAddr: 0x2904, symBinAddr: 0x10001256C, symSize: 0x44 }
  - { offsetInCU: 0x11427, offset: 0x6EFC1, size: 0x8, addend: 0x0, symName: __ZNSt3__110destroy_atB8ue170006I8ToolModeLi0EEEvPT_, symObjAddr: 0x2F18, symBinAddr: 0x100012990, symSize: 0x24 }
  - { offsetInCU: 0x1145F, offset: 0x6EFF9, size: 0x8, addend: 0x0, symName: __ZNSt3__112__destroy_atB8ue170006I8ToolModeLi0EEEvPT_, symObjAddr: 0x2F3C, symBinAddr: 0x1000129B4, symSize: 0x2C }
  - { offsetInCU: 0x114CA, offset: 0x6F064, size: 0x8, addend: 0x0, symName: __ZNSt3__115allocate_sharedB8ue170006I10TypingModeNS_9allocatorIS1_EEJEvEENS_10shared_ptrIT_EERKT0_DpOT1_, symObjAddr: 0x31A8, symBinAddr: 0x100012C20, symSize: 0x90 }
  - { offsetInCU: 0x11863, offset: 0x6F3FD, size: 0x8, addend: 0x0, symName: __ZNSt3__112construct_atB8ue170006I10TypingModeJEPS1_EEPT_S4_DpOT0_, symObjAddr: 0x3858, symBinAddr: 0x1000132D0, symSize: 0x38 }
  - { offsetInCU: 0x118C2, offset: 0x6F45C, size: 0x8, addend: 0x0, symName: __ZNSt3__110destroy_atB8ue170006I10TypingModeLi0EEEvPT_, symObjAddr: 0x399C, symBinAddr: 0x100013414, symSize: 0x24 }
  - { offsetInCU: 0x118FA, offset: 0x6F494, size: 0x8, addend: 0x0, symName: __ZNSt3__112__destroy_atB8ue170006I10TypingModeLi0EEEvPT_, symObjAddr: 0x39C0, symBinAddr: 0x100013438, symSize: 0x2C }
  - { offsetInCU: 0x119BD, offset: 0x6F557, size: 0x8, addend: 0x0, symName: __ZNSt3__17launderB8ue170006IKNS_4pairIK8ModeTypeNS_10shared_ptrI10EditorModeEEEEEEPT_SA_, symObjAddr: 0x4868, symBinAddr: 0x1000142E0, symSize: 0x24 }
  - { offsetInCU: 0x119F6, offset: 0x6F590, size: 0x8, addend: 0x0, symName: __ZNSt3__19__launderB8ue170006IKNS_4pairIK8ModeTypeNS_10shared_ptrI10EditorModeEEEEEEPT_SA_, symObjAddr: 0x488C, symBinAddr: 0x100014304, symSize: 0x14 }
  - { offsetInCU: 0x11A2F, offset: 0x6F5C9, size: 0x8, addend: 0x0, symName: __ZNSt3__116__constrain_hashB8ue170006Emm, symObjAddr: 0x48A0, symBinAddr: 0x100014318, symSize: 0x98 }
  - { offsetInCU: 0x11A6A, offset: 0x6F604, size: 0x8, addend: 0x0, symName: __ZNSt3__116__is_hash_power2B8ue170006Em, symObjAddr: 0x4A34, symBinAddr: 0x100014480, symSize: 0x50 }
  - { offsetInCU: 0x11A97, offset: 0x6F631, size: 0x8, addend: 0x0, symName: __ZNSt3__116__next_hash_pow2B8ue170006Em, symObjAddr: 0x4F70, symBinAddr: 0x1000149BC, symSize: 0x6C }
  - { offsetInCU: 0x11AC3, offset: 0x6F65D, size: 0x8, addend: 0x0, symName: __ZNSt3__112__libcpp_clzB8ue170006Em, symObjAddr: 0x5124, symBinAddr: 0x100014B70, symSize: 0x1C }
  - { offsetInCU: 0x11B35, offset: 0x6F6CF, size: 0x8, addend: 0x0, symName: __ZNSt3__112construct_atB8ue170006INS_4pairIK8ModeTypeNS_10shared_ptrI10EditorModeEEEEJRKS7_EPS7_EEPT_SC_DpOT0_, symObjAddr: 0x5C20, symBinAddr: 0x1000155E4, symSize: 0x3C }
  - { offsetInCU: 0x11BA7, offset: 0x6F741, size: 0x8, addend: 0x0, symName: __ZNSt3__1eqB8ue170006ERKNS_19__hash_map_iteratorINS_15__hash_iteratorIPNS_11__hash_nodeINS_17__hash_value_typeI8ModeTypeNS_10shared_ptrI10EditorModeEEEEPvEEEEEESF_, symObjAddr: 0x5FA8, symBinAddr: 0x10001596C, symSize: 0x30 }
  - { offsetInCU: 0x11BE7, offset: 0x6F781, size: 0x8, addend: 0x0, symName: __ZNSt3__1eqB8ue170006ERKNS_15__hash_iteratorIPNS_11__hash_nodeINS_17__hash_value_typeI8ModeTypeNS_10shared_ptrI10EditorModeEEEEPvEEEESD_, symObjAddr: 0x62D0, symBinAddr: 0x100015C30, symSize: 0x30 }
  - { offsetInCU: 0x11C8D, offset: 0x6F827, size: 0x8, addend: 0x0, symName: __ZNSt3__14swapB8ue170006IP10EditorModeEENS_9enable_ifIXaasr21is_move_constructibleIT_EE5valuesr18is_move_assignableIS4_EE5valueEvE4typeERS4_S7_, symObjAddr: 0x641C, symBinAddr: 0x100015CFC, symSize: 0x3C }
  - { offsetInCU: 0x11CDF, offset: 0x6F879, size: 0x8, addend: 0x0, symName: __ZNSt3__14swapB8ue170006IPNS_19__shared_weak_countEEENS_9enable_ifIXaasr21is_move_constructibleIT_EE5valuesr18is_move_assignableIS4_EE5valueEvE4typeERS4_S7_, symObjAddr: 0x6458, symBinAddr: 0x100015D38, symSize: 0x3C }
  - { offsetInCU: 0x138B5, offset: 0x7144F, size: 0x8, addend: 0x0, symName: __ZNKSt3__111__enum_hashI8ModeTypeLb1EEclB8ue170006ES1_, symObjAddr: 0x4800, symBinAddr: 0x100014278, symSize: 0x2C }
  - { offsetInCU: 0x15797, offset: 0x73331, size: 0x8, addend: 0x0, symName: __ZN11ModeManagerC2E8ModeType, symObjAddr: 0x0, symBinAddr: 0x10001014C, symSize: 0x294 }
  - { offsetInCU: 0x157D2, offset: 0x7336C, size: 0x8, addend: 0x0, symName: __ZNSt3__110shared_ptrI10EditorModeEC1B8ue170006Ev, symObjAddr: 0x294, symBinAddr: 0x1000103E0, symSize: 0x2C }
  - { offsetInCU: 0x157FA, offset: 0x73394, size: 0x8, addend: 0x0, symName: __ZNSt3__113unordered_mapI8ModeTypeNS_10shared_ptrI10EditorModeEENS_4hashIS1_EENS_8equal_toIS1_EENS_9allocatorINS_4pairIKS1_S4_EEEEEC1B8ue170006Ev, symObjAddr: 0x2C0, symBinAddr: 0x10001040C, symSize: 0x2C }
  - { offsetInCU: 0x1584A, offset: 0x733E4, size: 0x8, addend: 0x0, symName: __ZNSt3__14pairIK8ModeTypeNS_10shared_ptrI10EditorModeEEEC1B8ue170006IS1_NS3_I8ToolModeEELPv0EEEOT_OT0_, symObjAddr: 0x324, symBinAddr: 0x100010470, symSize: 0x3C }
  - { offsetInCU: 0x158C9, offset: 0x73463, size: 0x8, addend: 0x0, symName: __ZNSt3__14pairIK8ModeTypeNS_10shared_ptrI10EditorModeEEEC1B8ue170006IS1_NS3_I10TypingModeEELPv0EEEOT_OT0_, symObjAddr: 0x398, symBinAddr: 0x1000104E4, symSize: 0x3C }
  - { offsetInCU: 0x15925, offset: 0x734BF, size: 0x8, addend: 0x0, symName: __ZNSt3__113unordered_mapI8ModeTypeNS_10shared_ptrI10EditorModeEENS_4hashIS1_EENS_8equal_toIS1_EENS_9allocatorINS_4pairIKS1_S4_EEEEEaSESt16initializer_listISC_E, symObjAddr: 0x3D4, symBinAddr: 0x100010520, symSize: 0x60 }
  - { offsetInCU: 0x1595C, offset: 0x734F6, size: 0x8, addend: 0x0, symName: __ZNSt3__14pairIK8ModeTypeNS_10shared_ptrI10EditorModeEEED1Ev, symObjAddr: 0x434, symBinAddr: 0x100010580, symSize: 0x2C }
  - { offsetInCU: 0x15987, offset: 0x73521, size: 0x8, addend: 0x0, symName: __ZNSt3__110shared_ptrI10TypingModeED1B8ue170006Ev, symObjAddr: 0x460, symBinAddr: 0x1000105AC, symSize: 0x2C }
  - { offsetInCU: 0x159AF, offset: 0x73549, size: 0x8, addend: 0x0, symName: __ZNSt3__110shared_ptrI8ToolModeED1B8ue170006Ev, symObjAddr: 0x48C, symBinAddr: 0x1000105D8, symSize: 0x2C }
  - { offsetInCU: 0x159D7, offset: 0x73571, size: 0x8, addend: 0x0, symName: __ZN11ModeManager10changeModeE8ModeType, symObjAddr: 0x4B8, symBinAddr: 0x100010604, symSize: 0x44 }
  - { offsetInCU: 0x15A0C, offset: 0x735A6, size: 0x8, addend: 0x0, symName: __ZNSt3__113unordered_mapI8ModeTypeNS_10shared_ptrI10EditorModeEENS_4hashIS1_EENS_8equal_toIS1_EENS_9allocatorINS_4pairIKS1_S4_EEEEED1B8ue170006Ev, symObjAddr: 0x4FC, symBinAddr: 0x100010648, symSize: 0x2C }
  - { offsetInCU: 0x15A34, offset: 0x735CE, size: 0x8, addend: 0x0, symName: __ZNSt3__110shared_ptrI10EditorModeED1B8ue170006Ev, symObjAddr: 0x528, symBinAddr: 0x100010674, symSize: 0x2C }
  - { offsetInCU: 0x15A5C, offset: 0x735F6, size: 0x8, addend: 0x0, symName: __ZN11ModeManagerC1E8ModeType, symObjAddr: 0x554, symBinAddr: 0x1000106A0, symSize: 0x34 }
  - { offsetInCU: 0x15A95, offset: 0x7362F, size: 0x8, addend: 0x0, symName: __ZNSt3__113unordered_mapI8ModeTypeNS_10shared_ptrI10EditorModeEENS_4hashIS1_EENS_8equal_toIS1_EENS_9allocatorINS_4pairIKS1_S4_EEEEE2atERSB_, symObjAddr: 0x588, symBinAddr: 0x1000106D4, symSize: 0x7C }
  - { offsetInCU: 0x15ADC, offset: 0x73676, size: 0x8, addend: 0x0, symName: __ZNSt3__110shared_ptrI10EditorModeEaSB8ue170006ERKS2_, symObjAddr: 0x604, symBinAddr: 0x100010750, symSize: 0x50 }
  - { offsetInCU: 0x15B11, offset: 0x736AB, size: 0x8, addend: 0x0, symName: __ZN11ModeManager15convertToActionE5Input14ParsingContext, symObjAddr: 0x654, symBinAddr: 0x1000107A0, symSize: 0xF0 }
  - { offsetInCU: 0x15B64, offset: 0x736FE, size: 0x8, addend: 0x0, symName: __ZNKSt3__110shared_ptrI10EditorModeEptB8ue170006Ev, symObjAddr: 0x744, symBinAddr: 0x100010890, symSize: 0x18 }
  - { offsetInCU: 0x15B89, offset: 0x73723, size: 0x8, addend: 0x0, symName: __ZNKSt3__123__optional_storage_baseI8ModeTypeLb0EE9has_valueB8ue170006Ev, symObjAddr: 0x75C, symBinAddr: 0x1000108A8, symSize: 0x1C }
  - { offsetInCU: 0x15BAE, offset: 0x73748, size: 0x8, addend: 0x0, symName: __ZNRSt3__18optionalI8ModeTypeEdeB8ue170006Ev, symObjAddr: 0x778, symBinAddr: 0x1000108C4, symSize: 0x24 }
  - { offsetInCU: 0x15BD3, offset: 0x7376D, size: 0x8, addend: 0x0, symName: __ZNSt3__18optionalINS_10shared_ptrI6ActionEEEC1B8ue170006ERKS4_, symObjAddr: 0x79C, symBinAddr: 0x1000108E8, symSize: 0x34 }
  - { offsetInCU: 0x15C0C, offset: 0x737A6, size: 0x8, addend: 0x0, symName: __ZN11ParseResultD1Ev, symObjAddr: 0x7D0, symBinAddr: 0x10001091C, symSize: 0x2C }
  - { offsetInCU: 0x15C37, offset: 0x737D1, size: 0x8, addend: 0x0, symName: __ZNK11ModeManager12getModeLabelEv, symObjAddr: 0x7FC, symBinAddr: 0x100010948, symSize: 0xBC }
  - { offsetInCU: 0x15C5E, offset: 0x737F8, size: 0x8, addend: 0x0, symName: __ZNSt3__110shared_ptrI10EditorModeEC2B8ue170006Ev, symObjAddr: 0x93C, symBinAddr: 0x100010A88, symSize: 0x1C }
  - { offsetInCU: 0x15C87, offset: 0x73821, size: 0x8, addend: 0x0, symName: __ZNSt3__14pairIK8ModeTypeNS_10shared_ptrI10EditorModeEEEC2B8ue170006IS1_NS3_I8ToolModeEELPv0EEEOT_OT0_, symObjAddr: 0x958, symBinAddr: 0x100010AA4, symSize: 0x48 }
  - { offsetInCU: 0x15CE3, offset: 0x7387D, size: 0x8, addend: 0x0, symName: __ZNSt3__110shared_ptrI10EditorModeEC1B8ue170006I8ToolModevEEONS0_IT_EE, symObjAddr: 0x9A0, symBinAddr: 0x100010AEC, symSize: 0x34 }
  - { offsetInCU: 0x15D26, offset: 0x738C0, size: 0x8, addend: 0x0, symName: __ZNSt3__110shared_ptrI10EditorModeEC2B8ue170006I8ToolModevEEONS0_IT_EE, symObjAddr: 0x9D4, symBinAddr: 0x100010B20, symSize: 0x40 }
  - { offsetInCU: 0x15D6A, offset: 0x73904, size: 0x8, addend: 0x0, symName: __ZNSt3__14pairIK8ModeTypeNS_10shared_ptrI10EditorModeEEEC2B8ue170006IS1_NS3_I10TypingModeEELPv0EEEOT_OT0_, symObjAddr: 0xA14, symBinAddr: 0x100010B60, symSize: 0x48 }
  - { offsetInCU: 0x15DC6, offset: 0x73960, size: 0x8, addend: 0x0, symName: __ZNSt3__110shared_ptrI10EditorModeEC1B8ue170006I10TypingModevEEONS0_IT_EE, symObjAddr: 0xA5C, symBinAddr: 0x100010BA8, symSize: 0x34 }
  - { offsetInCU: 0x15E09, offset: 0x739A3, size: 0x8, addend: 0x0, symName: __ZNSt3__110shared_ptrI10EditorModeEC2B8ue170006I10TypingModevEEONS0_IT_EE, symObjAddr: 0xA90, symBinAddr: 0x100010BDC, symSize: 0x40 }
  - { offsetInCU: 0x15E4D, offset: 0x739E7, size: 0x8, addend: 0x0, symName: __ZNSt3__14pairIK8ModeTypeNS_10shared_ptrI10EditorModeEEED2Ev, symObjAddr: 0xAD0, symBinAddr: 0x100010C1C, symSize: 0x30 }
  - { offsetInCU: 0x15E78, offset: 0x73A12, size: 0x8, addend: 0x0, symName: __ZNRSt3__123__optional_storage_baseI8ModeTypeLb0EE5__getB8ue170006Ev, symObjAddr: 0xB00, symBinAddr: 0x100010C4C, symSize: 0x14 }
  - { offsetInCU: 0x15E9D, offset: 0x73A37, size: 0x8, addend: 0x0, symName: __ZNSt3__18optionalINS_10shared_ptrI6ActionEEEC2B8ue170006ERKS4_, symObjAddr: 0xB14, symBinAddr: 0x100010C60, symSize: 0x34 }
  - { offsetInCU: 0x15ED1, offset: 0x73A6B, size: 0x8, addend: 0x0, symName: __ZNSt3__127__optional_move_assign_baseINS_10shared_ptrI6ActionEELb0EEC2B8ue170006ERKS4_, symObjAddr: 0xB48, symBinAddr: 0x100010C94, symSize: 0x34 }
  - { offsetInCU: 0x15F09, offset: 0x73AA3, size: 0x8, addend: 0x0, symName: __ZNSt3__127__optional_copy_assign_baseINS_10shared_ptrI6ActionEELb0EEC2B8ue170006ERKS4_, symObjAddr: 0xB7C, symBinAddr: 0x100010CC8, symSize: 0x34 }
  - { offsetInCU: 0x15F3D, offset: 0x73AD7, size: 0x8, addend: 0x0, symName: __ZNSt3__120__optional_move_baseINS_10shared_ptrI6ActionEELb0EEC2B8ue170006ERKS4_, symObjAddr: 0xBB0, symBinAddr: 0x100010CFC, symSize: 0x34 }
  - { offsetInCU: 0x15F71, offset: 0x73B0B, size: 0x8, addend: 0x0, symName: __ZNSt3__120__optional_copy_baseINS_10shared_ptrI6ActionEELb0EEC2B8ue170006ERKS4_, symObjAddr: 0xBE4, symBinAddr: 0x100010D30, symSize: 0x64 }
  - { offsetInCU: 0x15FA9, offset: 0x73B43, size: 0x8, addend: 0x0, symName: __ZNSt3__123__optional_storage_baseINS_10shared_ptrI6ActionEELb0EE16__construct_fromB8ue170006IRKNS_20__optional_copy_baseIS3_Lb0EEEEEvOT_, symObjAddr: 0xC74, symBinAddr: 0x100010D94, symSize: 0x50 }
  - { offsetInCU: 0x15FE7, offset: 0x73B81, size: 0x8, addend: 0x0, symName: __ZNSt3__123__optional_storage_baseINS_10shared_ptrI6ActionEELb0EED2Ev, symObjAddr: 0xCC4, symBinAddr: 0x100010DE4, symSize: 0x2C }
  - { offsetInCU: 0x16013, offset: 0x73BAD, size: 0x8, addend: 0x0, symName: __ZNKSt3__123__optional_storage_baseINS_10shared_ptrI6ActionEELb0EE9has_valueB8ue170006Ev, symObjAddr: 0xD0C, symBinAddr: 0x100010E10, symSize: 0x1C }
  - { offsetInCU: 0x16038, offset: 0x73BD2, size: 0x8, addend: 0x0, symName: __ZNSt3__123__optional_storage_baseINS_10shared_ptrI6ActionEELb0EE11__constructB8ue170006IJRKS3_EEEvDpOT_, symObjAddr: 0xD28, symBinAddr: 0x100010E2C, symSize: 0x3C }
  - { offsetInCU: 0x16078, offset: 0x73C12, size: 0x8, addend: 0x0, symName: __ZNKRSt3__123__optional_storage_baseINS_10shared_ptrI6ActionEELb0EE5__getB8ue170006Ev, symObjAddr: 0xD64, symBinAddr: 0x100010E68, symSize: 0x14 }
  - { offsetInCU: 0x1609D, offset: 0x73C37, size: 0x8, addend: 0x0, symName: __ZNSt3__110shared_ptrI6ActionEC1B8ue170006ERKS2_, symObjAddr: 0xDB4, symBinAddr: 0x100010EB8, symSize: 0x34 }
  - { offsetInCU: 0x160D5, offset: 0x73C6F, size: 0x8, addend: 0x0, symName: __ZNSt3__110shared_ptrI6ActionEC2B8ue170006ERKS2_, symObjAddr: 0xDE8, symBinAddr: 0x100010EEC, symSize: 0x70 }
  - { offsetInCU: 0x1610D, offset: 0x73CA7, size: 0x8, addend: 0x0, symName: __ZNSt3__119__shared_weak_count12__add_sharedB8ue170006Ev, symObjAddr: 0xE58, symBinAddr: 0x100010F5C, symSize: 0x24 }
  - { offsetInCU: 0x16132, offset: 0x73CCC, size: 0x8, addend: 0x0, symName: __ZNSt3__114__shared_count12__add_sharedB8ue170006Ev, symObjAddr: 0xE7C, symBinAddr: 0x100010F80, symSize: 0x28 }
  - { offsetInCU: 0x16157, offset: 0x73CF1, size: 0x8, addend: 0x0, symName: __ZNSt3__124__optional_destruct_baseINS_10shared_ptrI6ActionEELb0EED2B8ue170006Ev, symObjAddr: 0xED4, symBinAddr: 0x100010FD8, symSize: 0x48 }
  - { offsetInCU: 0x1617F, offset: 0x73D19, size: 0x8, addend: 0x0, symName: __ZNSt3__110shared_ptrI6ActionED1B8ue170006Ev, symObjAddr: 0xF1C, symBinAddr: 0x100011020, symSize: 0x2C }
  - { offsetInCU: 0x161A7, offset: 0x73D41, size: 0x8, addend: 0x0, symName: __ZNSt3__110shared_ptrI6ActionED2B8ue170006Ev, symObjAddr: 0xF48, symBinAddr: 0x10001104C, symSize: 0x54 }
  - { offsetInCU: 0x161CF, offset: 0x73D69, size: 0x8, addend: 0x0, symName: __ZN11ParseResultD2Ev, symObjAddr: 0x1084, symBinAddr: 0x1000110A0, symSize: 0x30 }
  - { offsetInCU: 0x161FA, offset: 0x73D94, size: 0x8, addend: 0x0, symName: __ZNSt3__18optionalINS_10shared_ptrI6ActionEEED1Ev, symObjAddr: 0x10B4, symBinAddr: 0x1000110D0, symSize: 0x2C }
  - { offsetInCU: 0x16226, offset: 0x73DC0, size: 0x8, addend: 0x0, symName: __ZNSt3__18optionalINS_10shared_ptrI6ActionEEED2Ev, symObjAddr: 0x10E0, symBinAddr: 0x1000110FC, symSize: 0x2C }
  - { offsetInCU: 0x16252, offset: 0x73DEC, size: 0x8, addend: 0x0, symName: __ZNSt3__127__optional_move_assign_baseINS_10shared_ptrI6ActionEELb0EED2Ev, symObjAddr: 0x110C, symBinAddr: 0x100011128, symSize: 0x2C }
  - { offsetInCU: 0x1627E, offset: 0x73E18, size: 0x8, addend: 0x0, symName: __ZNSt3__127__optional_copy_assign_baseINS_10shared_ptrI6ActionEELb0EED2Ev, symObjAddr: 0x1138, symBinAddr: 0x100011154, symSize: 0x2C }
  - { offsetInCU: 0x162AA, offset: 0x73E44, size: 0x8, addend: 0x0, symName: __ZNSt3__120__optional_move_baseINS_10shared_ptrI6ActionEELb0EED2Ev, symObjAddr: 0x1164, symBinAddr: 0x100011180, symSize: 0x2C }
  - { offsetInCU: 0x162D6, offset: 0x73E70, size: 0x8, addend: 0x0, symName: __ZNSt3__120__optional_copy_baseINS_10shared_ptrI6ActionEELb0EED2Ev, symObjAddr: 0x1190, symBinAddr: 0x1000111AC, symSize: 0x2C }
  - { offsetInCU: 0x16302, offset: 0x73E9C, size: 0x8, addend: 0x0, symName: __ZNSt3__113unordered_mapI8ModeTypeNS_10shared_ptrI10EditorModeEENS_4hashIS1_EENS_8equal_toIS1_EENS_9allocatorINS_4pairIKS1_S4_EEEEEC2B8ue170006Ev, symObjAddr: 0x12C4, symBinAddr: 0x1000111D8, symSize: 0x2C }
  - { offsetInCU: 0x1632A, offset: 0x73EC4, size: 0x8, addend: 0x0, symName: __ZNSt3__112__hash_tableINS_17__hash_value_typeI8ModeTypeNS_10shared_ptrI10EditorModeEEEENS_22__unordered_map_hasherIS2_S6_NS_4hashIS2_EENS_8equal_toIS2_EELb1EEENS_21__unordered_map_equalIS2_S6_SB_S9_Lb1EEENS_9allocatorIS6_EEEC1Ev, symObjAddr: 0x12F0, symBinAddr: 0x100011204, symSize: 0x2C }
  - { offsetInCU: 0x16355, offset: 0x73EEF, size: 0x8, addend: 0x0, symName: __ZNSt3__112__hash_tableINS_17__hash_value_typeI8ModeTypeNS_10shared_ptrI10EditorModeEEEENS_22__unordered_map_hasherIS2_S6_NS_4hashIS2_EENS_8equal_toIS2_EELb1EEENS_21__unordered_map_equalIS2_S6_SB_S9_Lb1EEENS_9allocatorIS6_EEEC2Ev, symObjAddr: 0x131C, symBinAddr: 0x100011230, symSize: 0x7C }
  - { offsetInCU: 0x16380, offset: 0x73F1A, size: 0x8, addend: 0x0, symName: __ZNSt3__110unique_ptrIA_PNS_16__hash_node_baseIPNS_11__hash_nodeINS_17__hash_value_typeI8ModeTypeNS_10shared_ptrI10EditorModeEEEEPvEEEENS_25__bucket_list_deallocatorINS_9allocatorISD_EEEEEC1B8ue170006ILb1EvEEv, symObjAddr: 0x1398, symBinAddr: 0x1000112AC, symSize: 0x2C }
  - { offsetInCU: 0x163B4, offset: 0x73F4E, size: 0x8, addend: 0x0, symName: __ZNSt3__117__compressed_pairINS_16__hash_node_baseIPNS_11__hash_nodeINS_17__hash_value_typeI8ModeTypeNS_10shared_ptrI10EditorModeEEEEPvEEEENS_9allocatorISA_EEEC1B8ue170006ILb1EvEEv, symObjAddr: 0x13C4, symBinAddr: 0x1000112D8, symSize: 0x2C }
  - { offsetInCU: 0x163F2, offset: 0x73F8C, size: 0x8, addend: 0x0, symName: __ZNSt3__117__compressed_pairImNS_22__unordered_map_hasherI8ModeTypeNS_17__hash_value_typeIS2_NS_10shared_ptrI10EditorModeEEEENS_4hashIS2_EENS_8equal_toIS2_EELb1EEEEC1B8ue170006IiNS_18__default_init_tagEEEOT_OT0_, symObjAddr: 0x13F0, symBinAddr: 0x100011304, symSize: 0x3C }
  - { offsetInCU: 0x1644D, offset: 0x73FE7, size: 0x8, addend: 0x0, symName: __ZNSt3__117__compressed_pairIfNS_21__unordered_map_equalI8ModeTypeNS_17__hash_value_typeIS2_NS_10shared_ptrI10EditorModeEEEENS_8equal_toIS2_EENS_4hashIS2_EELb1EEEEC1B8ue170006IfNS_18__default_init_tagEEEOT_OT0_, symObjAddr: 0x142C, symBinAddr: 0x100011340, symSize: 0x3C }
  - { offsetInCU: 0x164A3, offset: 0x7403D, size: 0x8, addend: 0x0, symName: __ZNSt3__110unique_ptrIA_PNS_16__hash_node_baseIPNS_11__hash_nodeINS_17__hash_value_typeI8ModeTypeNS_10shared_ptrI10EditorModeEEEEPvEEEENS_25__bucket_list_deallocatorINS_9allocatorISD_EEEEEC2B8ue170006ILb1EvEEv, symObjAddr: 0x1468, symBinAddr: 0x10001137C, symSize: 0x3C }
  - { offsetInCU: 0x164DC, offset: 0x74076, size: 0x8, addend: 0x0, symName: __ZNSt3__117__compressed_pairIPPNS_16__hash_node_baseIPNS_11__hash_nodeINS_17__hash_value_typeI8ModeTypeNS_10shared_ptrI10EditorModeEEEEPvEEEENS_25__bucket_list_deallocatorINS_9allocatorISD_EEEEEC1B8ue170006INS_16__value_init_tagESL_EEOT_OT0_, symObjAddr: 0x14A4, symBinAddr: 0x1000113B8, symSize: 0x3C }
  - { offsetInCU: 0x16532, offset: 0x740CC, size: 0x8, addend: 0x0, symName: __ZNSt3__117__compressed_pairIPPNS_16__hash_node_baseIPNS_11__hash_nodeINS_17__hash_value_typeI8ModeTypeNS_10shared_ptrI10EditorModeEEEEPvEEEENS_25__bucket_list_deallocatorINS_9allocatorISD_EEEEEC2B8ue170006INS_16__value_init_tagESL_EEOT_OT0_, symObjAddr: 0x14E0, symBinAddr: 0x1000113F4, symSize: 0x40 }
  - { offsetInCU: 0x16588, offset: 0x74122, size: 0x8, addend: 0x0, symName: __ZNSt3__122__compressed_pair_elemIPPNS_16__hash_node_baseIPNS_11__hash_nodeINS_17__hash_value_typeI8ModeTypeNS_10shared_ptrI10EditorModeEEEEPvEEEELi0ELb0EEC2B8ue170006ENS_16__value_init_tagE, symObjAddr: 0x1520, symBinAddr: 0x100011434, symSize: 0x18 }
  - { offsetInCU: 0x165BC, offset: 0x74156, size: 0x8, addend: 0x0, symName: __ZNSt3__122__compressed_pair_elemINS_25__bucket_list_deallocatorINS_9allocatorIPNS_16__hash_node_baseIPNS_11__hash_nodeINS_17__hash_value_typeI8ModeTypeNS_10shared_ptrI10EditorModeEEEEPvEEEEEEEELi1ELb0EEC2B8ue170006ENS_16__value_init_tagE, symObjAddr: 0x1538, symBinAddr: 0x10001144C, symSize: 0x2C }
  - { offsetInCU: 0x165EF, offset: 0x74189, size: 0x8, addend: 0x0, symName: __ZNSt3__125__bucket_list_deallocatorINS_9allocatorIPNS_16__hash_node_baseIPNS_11__hash_nodeINS_17__hash_value_typeI8ModeTypeNS_10shared_ptrI10EditorModeEEEEPvEEEEEEEC1B8ue170006Ev, symObjAddr: 0x1564, symBinAddr: 0x100011478, symSize: 0x2C }
  - { offsetInCU: 0x16617, offset: 0x741B1, size: 0x8, addend: 0x0, symName: __ZNSt3__125__bucket_list_deallocatorINS_9allocatorIPNS_16__hash_node_baseIPNS_11__hash_nodeINS_17__hash_value_typeI8ModeTypeNS_10shared_ptrI10EditorModeEEEEPvEEEEEEEC2B8ue170006Ev, symObjAddr: 0x1590, symBinAddr: 0x1000114A4, symSize: 0x40 }
  - { offsetInCU: 0x1663F, offset: 0x741D9, size: 0x8, addend: 0x0, symName: __ZNSt3__117__compressed_pairImNS_9allocatorIPNS_16__hash_node_baseIPNS_11__hash_nodeINS_17__hash_value_typeI8ModeTypeNS_10shared_ptrI10EditorModeEEEEPvEEEEEEEC1B8ue170006IiNS_18__default_init_tagEEEOT_OT0_, symObjAddr: 0x15D0, symBinAddr: 0x1000114E4, symSize: 0x3C }
  - { offsetInCU: 0x16695, offset: 0x7422F, size: 0x8, addend: 0x0, symName: __ZNSt3__117__compressed_pairImNS_9allocatorIPNS_16__hash_node_baseIPNS_11__hash_nodeINS_17__hash_value_typeI8ModeTypeNS_10shared_ptrI10EditorModeEEEEPvEEEEEEEC2B8ue170006IiNS_18__default_init_tagEEEOT_OT0_, symObjAddr: 0x160C, symBinAddr: 0x100011520, symSize: 0x40 }
  - { offsetInCU: 0x166EB, offset: 0x74285, size: 0x8, addend: 0x0, symName: __ZNSt3__122__compressed_pair_elemImLi0ELb0EEC2B8ue170006IivEEOT_, symObjAddr: 0x164C, symBinAddr: 0x100011560, symSize: 0x24 }
  - { offsetInCU: 0x1672D, offset: 0x742C7, size: 0x8, addend: 0x0, symName: __ZNSt3__122__compressed_pair_elemINS_9allocatorIPNS_16__hash_node_baseIPNS_11__hash_nodeINS_17__hash_value_typeI8ModeTypeNS_10shared_ptrI10EditorModeEEEEPvEEEEEELi1ELb1EEC2B8ue170006ENS_18__default_init_tagE, symObjAddr: 0x1670, symBinAddr: 0x100011584, symSize: 0x2C }
  - { offsetInCU: 0x16760, offset: 0x742FA, size: 0x8, addend: 0x0, symName: __ZNSt3__19allocatorIPNS_16__hash_node_baseIPNS_11__hash_nodeINS_17__hash_value_typeI8ModeTypeNS_10shared_ptrI10EditorModeEEEEPvEEEEEC2B8ue170006Ev, symObjAddr: 0x169C, symBinAddr: 0x1000115B0, symSize: 0x2C }
  - { offsetInCU: 0x16788, offset: 0x74322, size: 0x8, addend: 0x0, symName: __ZNSt3__116__non_trivial_ifILb1ENS_9allocatorIPNS_16__hash_node_baseIPNS_11__hash_nodeINS_17__hash_value_typeI8ModeTypeNS_10shared_ptrI10EditorModeEEEEPvEEEEEEEC2B8ue170006Ev, symObjAddr: 0x16C8, symBinAddr: 0x1000115DC, symSize: 0x14 }
  - { offsetInCU: 0x167B1, offset: 0x7434B, size: 0x8, addend: 0x0, symName: __ZNSt3__117__compressed_pairINS_16__hash_node_baseIPNS_11__hash_nodeINS_17__hash_value_typeI8ModeTypeNS_10shared_ptrI10EditorModeEEEEPvEEEENS_9allocatorISA_EEEC2B8ue170006ILb1EvEEv, symObjAddr: 0x16DC, symBinAddr: 0x1000115F0, symSize: 0x34 }
  - { offsetInCU: 0x167E5, offset: 0x7437F, size: 0x8, addend: 0x0, symName: __ZNSt3__122__compressed_pair_elemINS_16__hash_node_baseIPNS_11__hash_nodeINS_17__hash_value_typeI8ModeTypeNS_10shared_ptrI10EditorModeEEEEPvEEEELi0ELb0EEC2B8ue170006ENS_16__value_init_tagE, symObjAddr: 0x1710, symBinAddr: 0x100011624, symSize: 0x2C }
  - { offsetInCU: 0x16818, offset: 0x743B2, size: 0x8, addend: 0x0, symName: __ZNSt3__122__compressed_pair_elemINS_9allocatorINS_11__hash_nodeINS_17__hash_value_typeI8ModeTypeNS_10shared_ptrI10EditorModeEEEEPvEEEELi1ELb1EEC2B8ue170006ENS_16__value_init_tagE, symObjAddr: 0x173C, symBinAddr: 0x100011650, symSize: 0x2C }
  - { offsetInCU: 0x1684B, offset: 0x743E5, size: 0x8, addend: 0x0, symName: __ZNSt3__116__hash_node_baseIPNS_11__hash_nodeINS_17__hash_value_typeI8ModeTypeNS_10shared_ptrI10EditorModeEEEEPvEEEC1B8ue170006Ev, symObjAddr: 0x1768, symBinAddr: 0x10001167C, symSize: 0x2C }
  - { offsetInCU: 0x16873, offset: 0x7440D, size: 0x8, addend: 0x0, symName: __ZNSt3__116__hash_node_baseIPNS_11__hash_nodeINS_17__hash_value_typeI8ModeTypeNS_10shared_ptrI10EditorModeEEEEPvEEEC2B8ue170006Ev, symObjAddr: 0x1794, symBinAddr: 0x1000116A8, symSize: 0x18 }
  - { offsetInCU: 0x1689C, offset: 0x74436, size: 0x8, addend: 0x0, symName: __ZNSt3__19allocatorINS_11__hash_nodeINS_17__hash_value_typeI8ModeTypeNS_10shared_ptrI10EditorModeEEEEPvEEEC2B8ue170006Ev, symObjAddr: 0x17AC, symBinAddr: 0x1000116C0, symSize: 0x2C }
  - { offsetInCU: 0x168C4, offset: 0x7445E, size: 0x8, addend: 0x0, symName: __ZNSt3__116__non_trivial_ifILb1ENS_9allocatorINS_11__hash_nodeINS_17__hash_value_typeI8ModeTypeNS_10shared_ptrI10EditorModeEEEEPvEEEEEC2B8ue170006Ev, symObjAddr: 0x17D8, symBinAddr: 0x1000116EC, symSize: 0x14 }
  - { offsetInCU: 0x168ED, offset: 0x74487, size: 0x8, addend: 0x0, symName: __ZNSt3__117__compressed_pairImNS_22__unordered_map_hasherI8ModeTypeNS_17__hash_value_typeIS2_NS_10shared_ptrI10EditorModeEEEENS_4hashIS2_EENS_8equal_toIS2_EELb1EEEEC2B8ue170006IiNS_18__default_init_tagEEEOT_OT0_, symObjAddr: 0x17EC, symBinAddr: 0x100011700, symSize: 0x40 }
  - { offsetInCU: 0x16943, offset: 0x744DD, size: 0x8, addend: 0x0, symName: __ZNSt3__122__compressed_pair_elemINS_22__unordered_map_hasherI8ModeTypeNS_17__hash_value_typeIS2_NS_10shared_ptrI10EditorModeEEEENS_4hashIS2_EENS_8equal_toIS2_EELb1EEELi1ELb1EEC2B8ue170006ENS_18__default_init_tagE, symObjAddr: 0x182C, symBinAddr: 0x100011740, symSize: 0x2C }
  - { offsetInCU: 0x16976, offset: 0x74510, size: 0x8, addend: 0x0, symName: __ZNSt3__122__unordered_map_hasherI8ModeTypeNS_17__hash_value_typeIS1_NS_10shared_ptrI10EditorModeEEEENS_4hashIS1_EENS_8equal_toIS1_EELb1EEC2B8ue170006Ev, symObjAddr: 0x1858, symBinAddr: 0x10001176C, symSize: 0x14 }
  - { offsetInCU: 0x1699F, offset: 0x74539, size: 0x8, addend: 0x0, symName: __ZNSt3__117__compressed_pairIfNS_21__unordered_map_equalI8ModeTypeNS_17__hash_value_typeIS2_NS_10shared_ptrI10EditorModeEEEENS_8equal_toIS2_EENS_4hashIS2_EELb1EEEEC2B8ue170006IfNS_18__default_init_tagEEEOT_OT0_, symObjAddr: 0x186C, symBinAddr: 0x100011780, symSize: 0x40 }
  - { offsetInCU: 0x169F5, offset: 0x7458F, size: 0x8, addend: 0x0, symName: __ZNSt3__122__compressed_pair_elemIfLi0ELb0EEC2B8ue170006IfvEEOT_, symObjAddr: 0x18AC, symBinAddr: 0x1000117C0, symSize: 0x24 }
  - { offsetInCU: 0x16A37, offset: 0x745D1, size: 0x8, addend: 0x0, symName: __ZNSt3__122__compressed_pair_elemINS_21__unordered_map_equalI8ModeTypeNS_17__hash_value_typeIS2_NS_10shared_ptrI10EditorModeEEEENS_8equal_toIS2_EENS_4hashIS2_EELb1EEELi1ELb1EEC2B8ue170006ENS_18__default_init_tagE, symObjAddr: 0x18D0, symBinAddr: 0x1000117E4, symSize: 0x2C }
  - { offsetInCU: 0x16A6A, offset: 0x74604, size: 0x8, addend: 0x0, symName: __ZNSt3__121__unordered_map_equalI8ModeTypeNS_17__hash_value_typeIS1_NS_10shared_ptrI10EditorModeEEEENS_8equal_toIS1_EENS_4hashIS1_EELb1EEC2B8ue170006Ev, symObjAddr: 0x18FC, symBinAddr: 0x100011810, symSize: 0x14 }
  - { offsetInCU: 0x16A93, offset: 0x7462D, size: 0x8, addend: 0x0, symName: __ZNSt3__110shared_ptrI10EditorModeED2B8ue170006Ev, symObjAddr: 0x1910, symBinAddr: 0x100011824, symSize: 0x54 }
  - { offsetInCU: 0x16ABB, offset: 0x74655, size: 0x8, addend: 0x0, symName: __ZNSt3__113unordered_mapI8ModeTypeNS_10shared_ptrI10EditorModeEENS_4hashIS1_EENS_8equal_toIS1_EENS_9allocatorINS_4pairIKS1_S4_EEEEED2B8ue170006Ev, symObjAddr: 0x1964, symBinAddr: 0x100011878, symSize: 0x2C }
  - { offsetInCU: 0x16AE3, offset: 0x7467D, size: 0x8, addend: 0x0, symName: __ZNSt3__112__hash_tableINS_17__hash_value_typeI8ModeTypeNS_10shared_ptrI10EditorModeEEEENS_22__unordered_map_hasherIS2_S6_NS_4hashIS2_EENS_8equal_toIS2_EELb1EEENS_21__unordered_map_equalIS2_S6_SB_S9_Lb1EEENS_9allocatorIS6_EEED1Ev, symObjAddr: 0x1990, symBinAddr: 0x1000118A4, symSize: 0x2C }
  - { offsetInCU: 0x16B0E, offset: 0x746A8, size: 0x8, addend: 0x0, symName: __ZNSt3__112__hash_tableINS_17__hash_value_typeI8ModeTypeNS_10shared_ptrI10EditorModeEEEENS_22__unordered_map_hasherIS2_S6_NS_4hashIS2_EENS_8equal_toIS2_EELb1EEENS_21__unordered_map_equalIS2_S6_SB_S9_Lb1EEENS_9allocatorIS6_EEED2Ev, symObjAddr: 0x19BC, symBinAddr: 0x1000118D0, symSize: 0x48 }
  - { offsetInCU: 0x16B39, offset: 0x746D3, size: 0x8, addend: 0x0, symName: __ZNSt3__112__hash_tableINS_17__hash_value_typeI8ModeTypeNS_10shared_ptrI10EditorModeEEEENS_22__unordered_map_hasherIS2_S6_NS_4hashIS2_EENS_8equal_toIS2_EELb1EEENS_21__unordered_map_equalIS2_S6_SB_S9_Lb1EEENS_9allocatorIS6_EEE17__deallocate_nodeEPNS_16__hash_node_baseIPNS_11__hash_nodeIS6_PvEEEE, symObjAddr: 0x1A04, symBinAddr: 0x100011918, symSize: 0xA8 }
  - { offsetInCU: 0x16BA6, offset: 0x74740, size: 0x8, addend: 0x0, symName: __ZNSt3__117__compressed_pairINS_16__hash_node_baseIPNS_11__hash_nodeINS_17__hash_value_typeI8ModeTypeNS_10shared_ptrI10EditorModeEEEEPvEEEENS_9allocatorISA_EEE5firstB8ue170006Ev, symObjAddr: 0x1AAC, symBinAddr: 0x1000119C0, symSize: 0x24 }
  - { offsetInCU: 0x16BCB, offset: 0x74765, size: 0x8, addend: 0x0, symName: __ZNSt3__110unique_ptrIA_PNS_16__hash_node_baseIPNS_11__hash_nodeINS_17__hash_value_typeI8ModeTypeNS_10shared_ptrI10EditorModeEEEEPvEEEENS_25__bucket_list_deallocatorINS_9allocatorISD_EEEEED1B8ue170006Ev, symObjAddr: 0x1AD0, symBinAddr: 0x1000119E4, symSize: 0x2C }
  - { offsetInCU: 0x16BF3, offset: 0x7478D, size: 0x8, addend: 0x0, symName: __ZNSt3__112__hash_tableINS_17__hash_value_typeI8ModeTypeNS_10shared_ptrI10EditorModeEEEENS_22__unordered_map_hasherIS2_S6_NS_4hashIS2_EENS_8equal_toIS2_EELb1EEENS_21__unordered_map_equalIS2_S6_SB_S9_Lb1EEENS_9allocatorIS6_EEE12__node_allocB8ue170006Ev, symObjAddr: 0x1AFC, symBinAddr: 0x100011A10, symSize: 0x28 }
  - { offsetInCU: 0x16C18, offset: 0x747B2, size: 0x8, addend: 0x0, symName: __ZNSt3__116__hash_node_baseIPNS_11__hash_nodeINS_17__hash_value_typeI8ModeTypeNS_10shared_ptrI10EditorModeEEEEPvEEE8__upcastB8ue170006Ev, symObjAddr: 0x1B24, symBinAddr: 0x100011A38, symSize: 0x24 }
  - { offsetInCU: 0x16C3D, offset: 0x747D7, size: 0x8, addend: 0x0, symName: __ZNSt3__116allocator_traitsINS_9allocatorINS_11__hash_nodeINS_17__hash_value_typeI8ModeTypeNS_10shared_ptrI10EditorModeEEEEPvEEEEE7destroyB8ue170006INS_4pairIKS4_S7_EEvvEEvRSB_PT_, symObjAddr: 0x1B48, symBinAddr: 0x100011A5C, symSize: 0x28 }
  - { offsetInCU: 0x16C7B, offset: 0x74815, size: 0x8, addend: 0x0, symName: __ZNSt3__122__hash_key_value_typesINS_17__hash_value_typeI8ModeTypeNS_10shared_ptrI10EditorModeEEEEE9__get_ptrB8ue170006ERS6_, symObjAddr: 0x1B70, symBinAddr: 0x100011A84, symSize: 0x24 }
  - { offsetInCU: 0x16C9E, offset: 0x74838, size: 0x8, addend: 0x0, symName: __ZNSt3__116allocator_traitsINS_9allocatorINS_11__hash_nodeINS_17__hash_value_typeI8ModeTypeNS_10shared_ptrI10EditorModeEEEEPvEEEEE10deallocateB8ue170006ERSB_PSA_m, symObjAddr: 0x1B94, symBinAddr: 0x100011AA8, symSize: 0x34 }
  - { offsetInCU: 0x16CE3, offset: 0x7487D, size: 0x8, addend: 0x0, symName: __ZNSt3__117__compressed_pairINS_16__hash_node_baseIPNS_11__hash_nodeINS_17__hash_value_typeI8ModeTypeNS_10shared_ptrI10EditorModeEEEEPvEEEENS_9allocatorISA_EEE6secondB8ue170006Ev, symObjAddr: 0x1BC8, symBinAddr: 0x100011ADC, symSize: 0x24 }
  - { offsetInCU: 0x16D08, offset: 0x748A2, size: 0x8, addend: 0x0, symName: __ZNSt3__122__compressed_pair_elemINS_9allocatorINS_11__hash_nodeINS_17__hash_value_typeI8ModeTypeNS_10shared_ptrI10EditorModeEEEEPvEEEELi1ELb1EE5__getB8ue170006Ev, symObjAddr: 0x1BEC, symBinAddr: 0x100011B00, symSize: 0x14 }
  - { offsetInCU: 0x16D2D, offset: 0x748C7, size: 0x8, addend: 0x0, symName: __ZNSt3__114pointer_traitsIPNS_16__hash_node_baseIPNS_11__hash_nodeINS_17__hash_value_typeI8ModeTypeNS_10shared_ptrI10EditorModeEEEEPvEEEEE10pointer_toB8ue170006ERSC_, symObjAddr: 0x1C00, symBinAddr: 0x100011B14, symSize: 0x14 }
  - { offsetInCU: 0x16D50, offset: 0x748EA, size: 0x8, addend: 0x0, symName: __ZNSt3__117__hash_value_typeI8ModeTypeNS_10shared_ptrI10EditorModeEEE11__get_valueB8ue170006Ev, symObjAddr: 0x1C5C, symBinAddr: 0x100011B70, symSize: 0x24 }
  - { offsetInCU: 0x16D75, offset: 0x7490F, size: 0x8, addend: 0x0, symName: __ZNSt3__19allocatorINS_11__hash_nodeINS_17__hash_value_typeI8ModeTypeNS_10shared_ptrI10EditorModeEEEEPvEEE10deallocateB8ue170006EPS9_m, symObjAddr: 0x1CB8, symBinAddr: 0x100011BCC, symSize: 0x44 }
  - { offsetInCU: 0x16DB6, offset: 0x74950, size: 0x8, addend: 0x0, symName: __ZNSt3__122__compressed_pair_elemINS_16__hash_node_baseIPNS_11__hash_nodeINS_17__hash_value_typeI8ModeTypeNS_10shared_ptrI10EditorModeEEEEPvEEEELi0ELb0EE5__getB8ue170006Ev, symObjAddr: 0x1E24, symBinAddr: 0x100011C10, symSize: 0x14 }
  - { offsetInCU: 0x16DDB, offset: 0x74975, size: 0x8, addend: 0x0, symName: __ZNSt3__110unique_ptrIA_PNS_16__hash_node_baseIPNS_11__hash_nodeINS_17__hash_value_typeI8ModeTypeNS_10shared_ptrI10EditorModeEEEEPvEEEENS_25__bucket_list_deallocatorINS_9allocatorISD_EEEEED2B8ue170006Ev, symObjAddr: 0x1E38, symBinAddr: 0x100011C24, symSize: 0x30 }
  - { offsetInCU: 0x16E03, offset: 0x7499D, size: 0x8, addend: 0x0, symName: __ZNSt3__110unique_ptrIA_PNS_16__hash_node_baseIPNS_11__hash_nodeINS_17__hash_value_typeI8ModeTypeNS_10shared_ptrI10EditorModeEEEEPvEEEENS_25__bucket_list_deallocatorINS_9allocatorISD_EEEEE5resetB8ue170006EDn, symObjAddr: 0x1E68, symBinAddr: 0x100011C54, symSize: 0x6C }
  - { offsetInCU: 0x16E44, offset: 0x749DE, size: 0x8, addend: 0x0, symName: __ZNSt3__117__compressed_pairIPPNS_16__hash_node_baseIPNS_11__hash_nodeINS_17__hash_value_typeI8ModeTypeNS_10shared_ptrI10EditorModeEEEEPvEEEENS_25__bucket_list_deallocatorINS_9allocatorISD_EEEEE5firstB8ue170006Ev, symObjAddr: 0x1ED4, symBinAddr: 0x100011CC0, symSize: 0x24 }
  - { offsetInCU: 0x16E69, offset: 0x74A03, size: 0x8, addend: 0x0, symName: __ZNSt3__117__compressed_pairIPPNS_16__hash_node_baseIPNS_11__hash_nodeINS_17__hash_value_typeI8ModeTypeNS_10shared_ptrI10EditorModeEEEEPvEEEENS_25__bucket_list_deallocatorINS_9allocatorISD_EEEEE6secondB8ue170006Ev, symObjAddr: 0x1EF8, symBinAddr: 0x100011CE4, symSize: 0x28 }
  - { offsetInCU: 0x16E8E, offset: 0x74A28, size: 0x8, addend: 0x0, symName: __ZNSt3__125__bucket_list_deallocatorINS_9allocatorIPNS_16__hash_node_baseIPNS_11__hash_nodeINS_17__hash_value_typeI8ModeTypeNS_10shared_ptrI10EditorModeEEEEPvEEEEEEEclB8ue170006EPSE_, symObjAddr: 0x1F20, symBinAddr: 0x100011D0C, symSize: 0x58 }
  - { offsetInCU: 0x16EC3, offset: 0x74A5D, size: 0x8, addend: 0x0, symName: __ZNSt3__122__compressed_pair_elemIPPNS_16__hash_node_baseIPNS_11__hash_nodeINS_17__hash_value_typeI8ModeTypeNS_10shared_ptrI10EditorModeEEEEPvEEEELi0ELb0EE5__getB8ue170006Ev, symObjAddr: 0x1F78, symBinAddr: 0x100011D64, symSize: 0x14 }
  - { offsetInCU: 0x16EE8, offset: 0x74A82, size: 0x8, addend: 0x0, symName: __ZNSt3__122__compressed_pair_elemINS_25__bucket_list_deallocatorINS_9allocatorIPNS_16__hash_node_baseIPNS_11__hash_nodeINS_17__hash_value_typeI8ModeTypeNS_10shared_ptrI10EditorModeEEEEPvEEEEEEEELi1ELb0EE5__getB8ue170006Ev, symObjAddr: 0x1F8C, symBinAddr: 0x100011D78, symSize: 0x14 }
  - { offsetInCU: 0x16F0D, offset: 0x74AA7, size: 0x8, addend: 0x0, symName: __ZNSt3__116allocator_traitsINS_9allocatorIPNS_16__hash_node_baseIPNS_11__hash_nodeINS_17__hash_value_typeI8ModeTypeNS_10shared_ptrI10EditorModeEEEEPvEEEEEEE10deallocateB8ue170006ERSF_PSE_m, symObjAddr: 0x1FA0, symBinAddr: 0x100011D8C, symSize: 0x34 }
  - { offsetInCU: 0x16F52, offset: 0x74AEC, size: 0x8, addend: 0x0, symName: __ZNSt3__125__bucket_list_deallocatorINS_9allocatorIPNS_16__hash_node_baseIPNS_11__hash_nodeINS_17__hash_value_typeI8ModeTypeNS_10shared_ptrI10EditorModeEEEEPvEEEEEEE7__allocB8ue170006Ev, symObjAddr: 0x1FD4, symBinAddr: 0x100011DC0, symSize: 0x24 }
  - { offsetInCU: 0x16F77, offset: 0x74B11, size: 0x8, addend: 0x0, symName: __ZNSt3__125__bucket_list_deallocatorINS_9allocatorIPNS_16__hash_node_baseIPNS_11__hash_nodeINS_17__hash_value_typeI8ModeTypeNS_10shared_ptrI10EditorModeEEEEPvEEEEEEE4sizeB8ue170006Ev, symObjAddr: 0x1FF8, symBinAddr: 0x100011DE4, symSize: 0x24 }
  - { offsetInCU: 0x16F9C, offset: 0x74B36, size: 0x8, addend: 0x0, symName: __ZNSt3__19allocatorIPNS_16__hash_node_baseIPNS_11__hash_nodeINS_17__hash_value_typeI8ModeTypeNS_10shared_ptrI10EditorModeEEEEPvEEEEE10deallocateB8ue170006EPSD_m, symObjAddr: 0x201C, symBinAddr: 0x100011E08, symSize: 0x40 }
  - { offsetInCU: 0x16FDD, offset: 0x74B77, size: 0x8, addend: 0x0, symName: __ZNSt3__117__compressed_pairImNS_9allocatorIPNS_16__hash_node_baseIPNS_11__hash_nodeINS_17__hash_value_typeI8ModeTypeNS_10shared_ptrI10EditorModeEEEEPvEEEEEEE6secondB8ue170006Ev, symObjAddr: 0x205C, symBinAddr: 0x100011E48, symSize: 0x24 }
  - { offsetInCU: 0x17002, offset: 0x74B9C, size: 0x8, addend: 0x0, symName: __ZNSt3__122__compressed_pair_elemINS_9allocatorIPNS_16__hash_node_baseIPNS_11__hash_nodeINS_17__hash_value_typeI8ModeTypeNS_10shared_ptrI10EditorModeEEEEPvEEEEEELi1ELb1EE5__getB8ue170006Ev, symObjAddr: 0x2080, symBinAddr: 0x100011E6C, symSize: 0x14 }
  - { offsetInCU: 0x17027, offset: 0x74BC1, size: 0x8, addend: 0x0, symName: __ZNSt3__117__compressed_pairImNS_9allocatorIPNS_16__hash_node_baseIPNS_11__hash_nodeINS_17__hash_value_typeI8ModeTypeNS_10shared_ptrI10EditorModeEEEEPvEEEEEEE5firstB8ue170006Ev, symObjAddr: 0x2094, symBinAddr: 0x100011E80, symSize: 0x24 }
  - { offsetInCU: 0x1704C, offset: 0x74BE6, size: 0x8, addend: 0x0, symName: __ZNSt3__122__compressed_pair_elemImLi0ELb0EE5__getB8ue170006Ev, symObjAddr: 0x20B8, symBinAddr: 0x100011EA4, symSize: 0x14 }
  - { offsetInCU: 0x17071, offset: 0x74C0B, size: 0x8, addend: 0x0, symName: __ZNSt3__19allocatorI8ToolModeEC1B8ue170006Ev, symObjAddr: 0x215C, symBinAddr: 0x100011F48, symSize: 0x2C }
  - { offsetInCU: 0x170C6, offset: 0x74C60, size: 0x8, addend: 0x0, symName: __ZNSt3__118__allocation_guardINS_9allocatorINS_20__shared_ptr_emplaceI8ToolModeNS1_IS3_EEEEEEEC1B8ue170006IS4_EET_m, symObjAddr: 0x2188, symBinAddr: 0x100011F74, symSize: 0x34 }
  - { offsetInCU: 0x17113, offset: 0x74CAD, size: 0x8, addend: 0x0, symName: __ZNKSt3__118__allocation_guardINS_9allocatorINS_20__shared_ptr_emplaceI8ToolModeNS1_IS3_EEEEEEE5__getB8ue170006Ev, symObjAddr: 0x21BC, symBinAddr: 0x100011FA8, symSize: 0x18 }
  - { offsetInCU: 0x17138, offset: 0x74CD2, size: 0x8, addend: 0x0, symName: __ZNSt3__120__shared_ptr_emplaceI8ToolModeNS_9allocatorIS1_EEEC1B8ue170006IJEEES3_DpOT_, symObjAddr: 0x21D4, symBinAddr: 0x100011FC0, symSize: 0x2C }
  - { offsetInCU: 0x17176, offset: 0x74D10, size: 0x8, addend: 0x0, symName: __ZNSt3__118__allocation_guardINS_9allocatorINS_20__shared_ptr_emplaceI8ToolModeNS1_IS3_EEEEEEE13__release_ptrB8ue170006Ev, symObjAddr: 0x2200, symBinAddr: 0x100011FEC, symSize: 0x24 }
  - { offsetInCU: 0x171A9, offset: 0x74D43, size: 0x8, addend: 0x0, symName: __ZNSt3__110shared_ptrI8ToolModeE27__create_with_control_blockB8ue170006IS1_NS_20__shared_ptr_emplaceIS1_NS_9allocatorIS1_EEEEEES2_PT_PT0_, symObjAddr: 0x2224, symBinAddr: 0x100012010, symSize: 0xA4 }
  - { offsetInCU: 0x17201, offset: 0x74D9B, size: 0x8, addend: 0x0, symName: __ZNSt3__120__shared_ptr_emplaceI8ToolModeNS_9allocatorIS1_EEE10__get_elemB8ue170006Ev, symObjAddr: 0x22C8, symBinAddr: 0x1000120B4, symSize: 0x28 }
  - { offsetInCU: 0x17226, offset: 0x74DC0, size: 0x8, addend: 0x0, symName: __ZNSt3__118__allocation_guardINS_9allocatorINS_20__shared_ptr_emplaceI8ToolModeNS1_IS3_EEEEEEED1B8ue170006Ev, symObjAddr: 0x22F0, symBinAddr: 0x1000120DC, symSize: 0x2C }
  - { offsetInCU: 0x1724E, offset: 0x74DE8, size: 0x8, addend: 0x0, symName: __ZNSt3__118__allocation_guardINS_9allocatorINS_20__shared_ptr_emplaceI8ToolModeNS1_IS3_EEEEEEEC2B8ue170006IS4_EET_m, symObjAddr: 0x231C, symBinAddr: 0x100012108, symSize: 0x50 }
  - { offsetInCU: 0x1729B, offset: 0x74E35, size: 0x8, addend: 0x0, symName: __ZNSt3__19allocatorINS_20__shared_ptr_emplaceI8ToolModeNS0_IS2_EEEEEC1B8ue170006IS2_EERKNS0_IT_EE, symObjAddr: 0x236C, symBinAddr: 0x100012158, symSize: 0x34 }
  - { offsetInCU: 0x172D7, offset: 0x74E71, size: 0x8, addend: 0x0, symName: __ZNSt3__116allocator_traitsINS_9allocatorINS_20__shared_ptr_emplaceI8ToolModeNS1_IS3_EEEEEEE8allocateB8ue170006ERS6_m, symObjAddr: 0x23A0, symBinAddr: 0x10001218C, symSize: 0x2C }
  - { offsetInCU: 0x1730C, offset: 0x74EA6, size: 0x8, addend: 0x0, symName: __ZNSt3__19allocatorINS_20__shared_ptr_emplaceI8ToolModeNS0_IS2_EEEEEC2B8ue170006IS2_EERKNS0_IT_EE, symObjAddr: 0x23CC, symBinAddr: 0x1000121B8, symSize: 0x30 }
  - { offsetInCU: 0x17348, offset: 0x74EE2, size: 0x8, addend: 0x0, symName: __ZNSt3__116__non_trivial_ifILb1ENS_9allocatorINS_20__shared_ptr_emplaceI8ToolModeNS1_IS3_EEEEEEEC2B8ue170006Ev, symObjAddr: 0x23FC, symBinAddr: 0x1000121E8, symSize: 0x14 }
  - { offsetInCU: 0x17371, offset: 0x74F0B, size: 0x8, addend: 0x0, symName: __ZNSt3__19allocatorINS_20__shared_ptr_emplaceI8ToolModeNS0_IS2_EEEEE8allocateB8ue170006Em, symObjAddr: 0x2410, symBinAddr: 0x1000121FC, symSize: 0x5C }
  - { offsetInCU: 0x173AE, offset: 0x74F48, size: 0x8, addend: 0x0, symName: __ZNSt3__116allocator_traitsINS_9allocatorINS_20__shared_ptr_emplaceI8ToolModeNS1_IS3_EEEEEEE8max_sizeB8ue170006IS6_vvEEmRKS6_, symObjAddr: 0x246C, symBinAddr: 0x100012258, symSize: 0x28 }
  - { offsetInCU: 0x173DC, offset: 0x74F76, size: 0x8, addend: 0x0, symName: __ZNSt3__120__shared_ptr_emplaceI8ToolModeNS_9allocatorIS1_EEEC2B8ue170006IJEEES3_DpOT_, symObjAddr: 0x2594, symBinAddr: 0x100012280, symSize: 0xC0 }
  - { offsetInCU: 0x1743C, offset: 0x74FD6, size: 0x8, addend: 0x0, symName: __ZNSt3__120__shared_ptr_emplaceI8ToolModeNS_9allocatorIS1_EEE8_StorageC1B8ue170006EOS3_, symObjAddr: 0x26A8, symBinAddr: 0x100012340, symSize: 0x34 }
  - { offsetInCU: 0x17474, offset: 0x7500E, size: 0x8, addend: 0x0, symName: __ZNSt3__120__shared_ptr_emplaceI8ToolModeNS_9allocatorIS1_EEE11__get_allocB8ue170006Ev, symObjAddr: 0x26DC, symBinAddr: 0x100012374, symSize: 0x28 }
  - { offsetInCU: 0x1749E, offset: 0x75038, size: 0x8, addend: 0x0, symName: __ZNSt3__116allocator_traitsINS_9allocatorI8ToolModeEEE9constructB8ue170006IS2_JEvvEEvRS3_PT_DpOT0_, symObjAddr: 0x2704, symBinAddr: 0x10001239C, symSize: 0x28 }
  - { offsetInCU: 0x174E2, offset: 0x7507C, size: 0x8, addend: 0x0, symName: __ZNSt3__120__shared_ptr_emplaceI8ToolModeNS_9allocatorIS1_EEE8_StorageD1B8ue170006Ev, symObjAddr: 0x272C, symBinAddr: 0x1000123C4, symSize: 0x2C }
  - { offsetInCU: 0x1750A, offset: 0x750A4, size: 0x8, addend: 0x0, symName: __ZNSt3__120__shared_ptr_emplaceI8ToolModeNS_9allocatorIS1_EEED1Ev, symObjAddr: 0x2758, symBinAddr: 0x1000123F0, symSize: 0x2C }
  - { offsetInCU: 0x17536, offset: 0x750D0, size: 0x8, addend: 0x0, symName: __ZNSt3__120__shared_ptr_emplaceI8ToolModeNS_9allocatorIS1_EEED0Ev, symObjAddr: 0x2784, symBinAddr: 0x10001241C, symSize: 0x30 }
  - { offsetInCU: 0x17562, offset: 0x750FC, size: 0x8, addend: 0x0, symName: __ZNSt3__120__shared_ptr_emplaceI8ToolModeNS_9allocatorIS1_EEE16__on_zero_sharedEv, symObjAddr: 0x27B4, symBinAddr: 0x10001244C, symSize: 0x44 }
  - { offsetInCU: 0x175A9, offset: 0x75143, size: 0x8, addend: 0x0, symName: __ZNSt3__120__shared_ptr_emplaceI8ToolModeNS_9allocatorIS1_EEE21__on_zero_shared_weakEv, symObjAddr: 0x27F8, symBinAddr: 0x100012490, symSize: 0x5C }
  - { offsetInCU: 0x175EA, offset: 0x75184, size: 0x8, addend: 0x0, symName: __ZNSt3__120__shared_ptr_emplaceI8ToolModeNS_9allocatorIS1_EEE8_StorageC2B8ue170006EOS3_, symObjAddr: 0x2884, symBinAddr: 0x1000124EC, symSize: 0x30 }
  - { offsetInCU: 0x17622, offset: 0x751BC, size: 0x8, addend: 0x0, symName: __ZNSt3__120__shared_ptr_emplaceI8ToolModeNS_9allocatorIS1_EEE8_Storage11__get_allocB8ue170006Ev, symObjAddr: 0x28B4, symBinAddr: 0x10001251C, symSize: 0x3C }
  - { offsetInCU: 0x17677, offset: 0x75211, size: 0x8, addend: 0x0, symName: __ZNSt3__117__compressed_pairINS_9allocatorI8ToolModeEES2_E16__get_first_baseB8ue170006EPS4_, symObjAddr: 0x28F0, symBinAddr: 0x100012558, symSize: 0x14 }
  - { offsetInCU: 0x1769A, offset: 0x75234, size: 0x8, addend: 0x0, symName: __ZN8ToolModeC1Ev, symObjAddr: 0x2948, symBinAddr: 0x1000125B0, symSize: 0x2C }
  - { offsetInCU: 0x176C2, offset: 0x7525C, size: 0x8, addend: 0x0, symName: __ZN8ToolModeC2Ev, symObjAddr: 0x2974, symBinAddr: 0x1000125DC, symSize: 0x78 }
  - { offsetInCU: 0x176EA, offset: 0x75284, size: 0x8, addend: 0x0, symName: __ZN10EditorModeC2Ev, symObjAddr: 0x29EC, symBinAddr: 0x100012654, symSize: 0x24 }
  - { offsetInCU: 0x17713, offset: 0x752AD, size: 0x8, addend: 0x0, symName: __ZN13CommandParserC1Ev, symObjAddr: 0x2A10, symBinAddr: 0x100012678, symSize: 0x2C }
  - { offsetInCU: 0x1773B, offset: 0x752D5, size: 0x8, addend: 0x0, symName: __ZN10EditorModeD1Ev, symObjAddr: 0x2A50, symBinAddr: 0x1000126A4, symSize: 0x14 }
  - { offsetInCU: 0x17764, offset: 0x752FE, size: 0x8, addend: 0x0, symName: __ZN10EditorModeD0Ev, symObjAddr: 0x2A64, symBinAddr: 0x1000126B8, symSize: 0xC }
  - { offsetInCU: 0x1778D, offset: 0x75327, size: 0x8, addend: 0x0, symName: __ZN13CommandParserC2Ev, symObjAddr: 0x2A70, symBinAddr: 0x1000126C4, symSize: 0x38 }
  - { offsetInCU: 0x177B5, offset: 0x7534F, size: 0x8, addend: 0x0, symName: __ZNSt3__18optionalI14CommandDetailsEC1B8ue170006Ev, symObjAddr: 0x2AA8, symBinAddr: 0x1000126FC, symSize: 0x2C }
  - { offsetInCU: 0x177DD, offset: 0x75377, size: 0x8, addend: 0x0, symName: __ZN14CommandCreatorC1Ev, symObjAddr: 0x2AD4, symBinAddr: 0x100012728, symSize: 0x2C }
  - { offsetInCU: 0x17805, offset: 0x7539F, size: 0x8, addend: 0x0, symName: __ZNSt3__18optionalI14CommandDetailsEC2B8ue170006Ev, symObjAddr: 0x2B00, symBinAddr: 0x100012754, symSize: 0x2C }
  - { offsetInCU: 0x17832, offset: 0x753CC, size: 0x8, addend: 0x0, symName: __ZNSt3__127__optional_move_assign_baseI14CommandDetailsLb1EEC2Ev, symObjAddr: 0x2B2C, symBinAddr: 0x100012780, symSize: 0x2C }
  - { offsetInCU: 0x17863, offset: 0x753FD, size: 0x8, addend: 0x0, symName: __ZNSt3__127__optional_copy_assign_baseI14CommandDetailsLb1EEC2Ev, symObjAddr: 0x2B58, symBinAddr: 0x1000127AC, symSize: 0x2C }
  - { offsetInCU: 0x17894, offset: 0x7542E, size: 0x8, addend: 0x0, symName: __ZNSt3__120__optional_move_baseI14CommandDetailsLb1EEC2Ev, symObjAddr: 0x2B84, symBinAddr: 0x1000127D8, symSize: 0x2C }
  - { offsetInCU: 0x178C5, offset: 0x7545F, size: 0x8, addend: 0x0, symName: __ZNSt3__120__optional_copy_baseI14CommandDetailsLb1EEC2Ev, symObjAddr: 0x2BB0, symBinAddr: 0x100012804, symSize: 0x2C }
  - { offsetInCU: 0x178F1, offset: 0x7548B, size: 0x8, addend: 0x0, symName: __ZNSt3__123__optional_storage_baseI14CommandDetailsLb0EEC2Ev, symObjAddr: 0x2BDC, symBinAddr: 0x100012830, symSize: 0x2C }
  - { offsetInCU: 0x1791D, offset: 0x754B7, size: 0x8, addend: 0x0, symName: __ZNSt3__124__optional_destruct_baseI14CommandDetailsLb1EEC2B8ue170006Ev, symObjAddr: 0x2C08, symBinAddr: 0x10001285C, symSize: 0x1C }
  - { offsetInCU: 0x17946, offset: 0x754E0, size: 0x8, addend: 0x0, symName: __ZN14CommandCreatorC2Ev, symObjAddr: 0x2C24, symBinAddr: 0x100012878, symSize: 0x7C }
  - { offsetInCU: 0x17973, offset: 0x7550D, size: 0x8, addend: 0x0, symName: __ZNSt3__120__shared_ptr_emplaceI8ToolModeNS_9allocatorIS1_EEE8_StorageD2B8ue170006Ev, symObjAddr: 0x2E7C, symBinAddr: 0x1000128F4, symSize: 0x2C }
  - { offsetInCU: 0x1799B, offset: 0x75535, size: 0x8, addend: 0x0, symName: __ZNSt3__120__shared_ptr_emplaceI8ToolModeNS_9allocatorIS1_EEED2Ev, symObjAddr: 0x2EA8, symBinAddr: 0x100012920, symSize: 0x48 }
  - { offsetInCU: 0x179C7, offset: 0x75561, size: 0x8, addend: 0x0, symName: __ZNSt3__116allocator_traitsINS_9allocatorI8ToolModeEEE7destroyB8ue170006IS2_vvEEvRS3_PT_, symObjAddr: 0x2EF0, symBinAddr: 0x100012968, symSize: 0x28 }
  - { offsetInCU: 0x17A05, offset: 0x7559F, size: 0x8, addend: 0x0, symName: __ZNSt3__116allocator_traitsINS_9allocatorINS_20__shared_ptr_emplaceI8ToolModeNS1_IS3_EEEEEEE10deallocateB8ue170006ERS6_PS5_m, symObjAddr: 0x2F68, symBinAddr: 0x1000129E0, symSize: 0x34 }
  - { offsetInCU: 0x17A4F, offset: 0x755E9, size: 0x8, addend: 0x0, symName: __ZNSt3__114pointer_traitsIPNS_20__shared_ptr_emplaceI8ToolModeNS_9allocatorIS2_EEEEE10pointer_toB8ue170006ERS5_, symObjAddr: 0x2F9C, symBinAddr: 0x100012A14, symSize: 0x14 }
  - { offsetInCU: 0x17A72, offset: 0x7560C, size: 0x8, addend: 0x0, symName: __ZNSt3__19allocatorINS_20__shared_ptr_emplaceI8ToolModeNS0_IS2_EEEEE10deallocateB8ue170006EPS4_m, symObjAddr: 0x2FB0, symBinAddr: 0x100012A28, symSize: 0x44 }
  - { offsetInCU: 0x17AB3, offset: 0x7564D, size: 0x8, addend: 0x0, symName: __ZNSt3__110shared_ptrI8ToolModeEC1B8ue170006Ev, symObjAddr: 0x2FF4, symBinAddr: 0x100012A6C, symSize: 0x2C }
  - { offsetInCU: 0x17ADB, offset: 0x75675, size: 0x8, addend: 0x0, symName: __ZNSt3__110shared_ptrI8ToolModeE18__enable_weak_thisB8ue170006Ez, symObjAddr: 0x3020, symBinAddr: 0x100012A98, symSize: 0x10 }
  - { offsetInCU: 0x17B01, offset: 0x7569B, size: 0x8, addend: 0x0, symName: __ZNSt3__110shared_ptrI8ToolModeEC2B8ue170006Ev, symObjAddr: 0x3030, symBinAddr: 0x100012AA8, symSize: 0x1C }
  - { offsetInCU: 0x17B2A, offset: 0x756C4, size: 0x8, addend: 0x0, symName: __ZNSt3__120__shared_ptr_emplaceI8ToolModeNS_9allocatorIS1_EEE8_Storage10__get_elemB8ue170006Ev, symObjAddr: 0x304C, symBinAddr: 0x100012AC4, symSize: 0x3C }
  - { offsetInCU: 0x17B7F, offset: 0x75719, size: 0x8, addend: 0x0, symName: __ZNSt3__117__compressed_pairINS_9allocatorI8ToolModeEES2_E17__get_second_baseB8ue170006EPS4_, symObjAddr: 0x3088, symBinAddr: 0x100012B00, symSize: 0x14 }
  - { offsetInCU: 0x17BA2, offset: 0x7573C, size: 0x8, addend: 0x0, symName: __ZNSt3__118__allocation_guardINS_9allocatorINS_20__shared_ptr_emplaceI8ToolModeNS1_IS3_EEEEEEED2B8ue170006Ev, symObjAddr: 0x309C, symBinAddr: 0x100012B14, symSize: 0x2C }
  - { offsetInCU: 0x17BCA, offset: 0x75764, size: 0x8, addend: 0x0, symName: __ZNSt3__118__allocation_guardINS_9allocatorINS_20__shared_ptr_emplaceI8ToolModeNS1_IS3_EEEEEEE9__destroyB8ue170006Ev, symObjAddr: 0x30C8, symBinAddr: 0x100012B40, symSize: 0x4C }
  - { offsetInCU: 0x17BEF, offset: 0x75789, size: 0x8, addend: 0x0, symName: __ZNSt3__19allocatorI8ToolModeEC2B8ue170006Ev, symObjAddr: 0x3114, symBinAddr: 0x100012B8C, symSize: 0x2C }
  - { offsetInCU: 0x17C17, offset: 0x757B1, size: 0x8, addend: 0x0, symName: __ZNSt3__116__non_trivial_ifILb1ENS_9allocatorI8ToolModeEEEC2B8ue170006Ev, symObjAddr: 0x3140, symBinAddr: 0x100012BB8, symSize: 0x14 }
  - { offsetInCU: 0x17C40, offset: 0x757DA, size: 0x8, addend: 0x0, symName: __ZNSt3__110shared_ptrI8ToolModeED2B8ue170006Ev, symObjAddr: 0x3154, symBinAddr: 0x100012BCC, symSize: 0x54 }
  - { offsetInCU: 0x17C68, offset: 0x75802, size: 0x8, addend: 0x0, symName: __ZNSt3__19allocatorI10TypingModeEC1B8ue170006Ev, symObjAddr: 0x3238, symBinAddr: 0x100012CB0, symSize: 0x2C }
  - { offsetInCU: 0x17CBD, offset: 0x75857, size: 0x8, addend: 0x0, symName: __ZNSt3__118__allocation_guardINS_9allocatorINS_20__shared_ptr_emplaceI10TypingModeNS1_IS3_EEEEEEEC1B8ue170006IS4_EET_m, symObjAddr: 0x3264, symBinAddr: 0x100012CDC, symSize: 0x34 }
  - { offsetInCU: 0x17D0A, offset: 0x758A4, size: 0x8, addend: 0x0, symName: __ZNKSt3__118__allocation_guardINS_9allocatorINS_20__shared_ptr_emplaceI10TypingModeNS1_IS3_EEEEEEE5__getB8ue170006Ev, symObjAddr: 0x3298, symBinAddr: 0x100012D10, symSize: 0x18 }
  - { offsetInCU: 0x17D2F, offset: 0x758C9, size: 0x8, addend: 0x0, symName: __ZNSt3__120__shared_ptr_emplaceI10TypingModeNS_9allocatorIS1_EEEC1B8ue170006IJEEES3_DpOT_, symObjAddr: 0x32B0, symBinAddr: 0x100012D28, symSize: 0x2C }
  - { offsetInCU: 0x17D6D, offset: 0x75907, size: 0x8, addend: 0x0, symName: __ZNSt3__118__allocation_guardINS_9allocatorINS_20__shared_ptr_emplaceI10TypingModeNS1_IS3_EEEEEEE13__release_ptrB8ue170006Ev, symObjAddr: 0x32DC, symBinAddr: 0x100012D54, symSize: 0x24 }
  - { offsetInCU: 0x17DA0, offset: 0x7593A, size: 0x8, addend: 0x0, symName: __ZNSt3__110shared_ptrI10TypingModeE27__create_with_control_blockB8ue170006IS1_NS_20__shared_ptr_emplaceIS1_NS_9allocatorIS1_EEEEEES2_PT_PT0_, symObjAddr: 0x3300, symBinAddr: 0x100012D78, symSize: 0xA4 }
  - { offsetInCU: 0x17DF8, offset: 0x75992, size: 0x8, addend: 0x0, symName: __ZNSt3__120__shared_ptr_emplaceI10TypingModeNS_9allocatorIS1_EEE10__get_elemB8ue170006Ev, symObjAddr: 0x33A4, symBinAddr: 0x100012E1C, symSize: 0x28 }
  - { offsetInCU: 0x17E1D, offset: 0x759B7, size: 0x8, addend: 0x0, symName: __ZNSt3__118__allocation_guardINS_9allocatorINS_20__shared_ptr_emplaceI10TypingModeNS1_IS3_EEEEEEED1B8ue170006Ev, symObjAddr: 0x33CC, symBinAddr: 0x100012E44, symSize: 0x2C }
  - { offsetInCU: 0x17E45, offset: 0x759DF, size: 0x8, addend: 0x0, symName: __ZNSt3__118__allocation_guardINS_9allocatorINS_20__shared_ptr_emplaceI10TypingModeNS1_IS3_EEEEEEEC2B8ue170006IS4_EET_m, symObjAddr: 0x33F8, symBinAddr: 0x100012E70, symSize: 0x50 }
  - { offsetInCU: 0x17E92, offset: 0x75A2C, size: 0x8, addend: 0x0, symName: __ZNSt3__19allocatorINS_20__shared_ptr_emplaceI10TypingModeNS0_IS2_EEEEEC1B8ue170006IS2_EERKNS0_IT_EE, symObjAddr: 0x3448, symBinAddr: 0x100012EC0, symSize: 0x34 }
  - { offsetInCU: 0x17ECE, offset: 0x75A68, size: 0x8, addend: 0x0, symName: __ZNSt3__116allocator_traitsINS_9allocatorINS_20__shared_ptr_emplaceI10TypingModeNS1_IS3_EEEEEEE8allocateB8ue170006ERS6_m, symObjAddr: 0x347C, symBinAddr: 0x100012EF4, symSize: 0x2C }
  - { offsetInCU: 0x17F03, offset: 0x75A9D, size: 0x8, addend: 0x0, symName: __ZNSt3__19allocatorINS_20__shared_ptr_emplaceI10TypingModeNS0_IS2_EEEEEC2B8ue170006IS2_EERKNS0_IT_EE, symObjAddr: 0x34A8, symBinAddr: 0x100012F20, symSize: 0x30 }
  - { offsetInCU: 0x17F3F, offset: 0x75AD9, size: 0x8, addend: 0x0, symName: __ZNSt3__116__non_trivial_ifILb1ENS_9allocatorINS_20__shared_ptr_emplaceI10TypingModeNS1_IS3_EEEEEEEC2B8ue170006Ev, symObjAddr: 0x34D8, symBinAddr: 0x100012F50, symSize: 0x14 }
  - { offsetInCU: 0x17F68, offset: 0x75B02, size: 0x8, addend: 0x0, symName: __ZNSt3__19allocatorINS_20__shared_ptr_emplaceI10TypingModeNS0_IS2_EEEEE8allocateB8ue170006Em, symObjAddr: 0x34EC, symBinAddr: 0x100012F64, symSize: 0x58 }
  - { offsetInCU: 0x17FA5, offset: 0x75B3F, size: 0x8, addend: 0x0, symName: __ZNSt3__116allocator_traitsINS_9allocatorINS_20__shared_ptr_emplaceI10TypingModeNS1_IS3_EEEEEEE8max_sizeB8ue170006IS6_vvEEmRKS6_, symObjAddr: 0x3544, symBinAddr: 0x100012FBC, symSize: 0x28 }
  - { offsetInCU: 0x17FD3, offset: 0x75B6D, size: 0x8, addend: 0x0, symName: __ZNSt3__120__shared_ptr_emplaceI10TypingModeNS_9allocatorIS1_EEEC2B8ue170006IJEEES3_DpOT_, symObjAddr: 0x356C, symBinAddr: 0x100012FE4, symSize: 0xC0 }
  - { offsetInCU: 0x18033, offset: 0x75BCD, size: 0x8, addend: 0x0, symName: __ZNSt3__120__shared_ptr_emplaceI10TypingModeNS_9allocatorIS1_EEE8_StorageC1B8ue170006EOS3_, symObjAddr: 0x362C, symBinAddr: 0x1000130A4, symSize: 0x34 }
  - { offsetInCU: 0x1806B, offset: 0x75C05, size: 0x8, addend: 0x0, symName: __ZNSt3__120__shared_ptr_emplaceI10TypingModeNS_9allocatorIS1_EEE11__get_allocB8ue170006Ev, symObjAddr: 0x3660, symBinAddr: 0x1000130D8, symSize: 0x28 }
  - { offsetInCU: 0x18095, offset: 0x75C2F, size: 0x8, addend: 0x0, symName: __ZNSt3__116allocator_traitsINS_9allocatorI10TypingModeEEE9constructB8ue170006IS2_JEvvEEvRS3_PT_DpOT0_, symObjAddr: 0x3688, symBinAddr: 0x100013100, symSize: 0x28 }
  - { offsetInCU: 0x180D9, offset: 0x75C73, size: 0x8, addend: 0x0, symName: __ZNSt3__120__shared_ptr_emplaceI10TypingModeNS_9allocatorIS1_EEE8_StorageD1B8ue170006Ev, symObjAddr: 0x36B0, symBinAddr: 0x100013128, symSize: 0x2C }
  - { offsetInCU: 0x18101, offset: 0x75C9B, size: 0x8, addend: 0x0, symName: __ZNSt3__120__shared_ptr_emplaceI10TypingModeNS_9allocatorIS1_EEED1Ev, symObjAddr: 0x36DC, symBinAddr: 0x100013154, symSize: 0x2C }
  - { offsetInCU: 0x1812D, offset: 0x75CC7, size: 0x8, addend: 0x0, symName: __ZNSt3__120__shared_ptr_emplaceI10TypingModeNS_9allocatorIS1_EEED0Ev, symObjAddr: 0x3708, symBinAddr: 0x100013180, symSize: 0x30 }
  - { offsetInCU: 0x18159, offset: 0x75CF3, size: 0x8, addend: 0x0, symName: __ZNSt3__120__shared_ptr_emplaceI10TypingModeNS_9allocatorIS1_EEE16__on_zero_sharedEv, symObjAddr: 0x3738, symBinAddr: 0x1000131B0, symSize: 0x44 }
  - { offsetInCU: 0x181A0, offset: 0x75D3A, size: 0x8, addend: 0x0, symName: __ZNSt3__120__shared_ptr_emplaceI10TypingModeNS_9allocatorIS1_EEE21__on_zero_shared_weakEv, symObjAddr: 0x377C, symBinAddr: 0x1000131F4, symSize: 0x5C }
  - { offsetInCU: 0x181E1, offset: 0x75D7B, size: 0x8, addend: 0x0, symName: __ZNSt3__120__shared_ptr_emplaceI10TypingModeNS_9allocatorIS1_EEE8_StorageC2B8ue170006EOS3_, symObjAddr: 0x37D8, symBinAddr: 0x100013250, symSize: 0x30 }
  - { offsetInCU: 0x18219, offset: 0x75DB3, size: 0x8, addend: 0x0, symName: __ZNSt3__120__shared_ptr_emplaceI10TypingModeNS_9allocatorIS1_EEE8_Storage11__get_allocB8ue170006Ev, symObjAddr: 0x3808, symBinAddr: 0x100013280, symSize: 0x3C }
  - { offsetInCU: 0x1826E, offset: 0x75E08, size: 0x8, addend: 0x0, symName: __ZNSt3__117__compressed_pairINS_9allocatorI10TypingModeEES2_E16__get_first_baseB8ue170006EPS4_, symObjAddr: 0x3844, symBinAddr: 0x1000132BC, symSize: 0x14 }
  - { offsetInCU: 0x18291, offset: 0x75E2B, size: 0x8, addend: 0x0, symName: __ZN10TypingModeC1Ev, symObjAddr: 0x3890, symBinAddr: 0x100013308, symSize: 0x2C }
  - { offsetInCU: 0x182B9, offset: 0x75E53, size: 0x8, addend: 0x0, symName: __ZN10TypingModeC2Ev, symObjAddr: 0x38BC, symBinAddr: 0x100013334, symSize: 0x44 }
  - { offsetInCU: 0x182E1, offset: 0x75E7B, size: 0x8, addend: 0x0, symName: __ZNSt3__120__shared_ptr_emplaceI10TypingModeNS_9allocatorIS1_EEE8_StorageD2B8ue170006Ev, symObjAddr: 0x3900, symBinAddr: 0x100013378, symSize: 0x2C }
  - { offsetInCU: 0x18309, offset: 0x75EA3, size: 0x8, addend: 0x0, symName: __ZNSt3__120__shared_ptr_emplaceI10TypingModeNS_9allocatorIS1_EEED2Ev, symObjAddr: 0x392C, symBinAddr: 0x1000133A4, symSize: 0x48 }
  - { offsetInCU: 0x18335, offset: 0x75ECF, size: 0x8, addend: 0x0, symName: __ZNSt3__116allocator_traitsINS_9allocatorI10TypingModeEEE7destroyB8ue170006IS2_vvEEvRS3_PT_, symObjAddr: 0x3974, symBinAddr: 0x1000133EC, symSize: 0x28 }
  - { offsetInCU: 0x18373, offset: 0x75F0D, size: 0x8, addend: 0x0, symName: __ZNSt3__116allocator_traitsINS_9allocatorINS_20__shared_ptr_emplaceI10TypingModeNS1_IS3_EEEEEEE10deallocateB8ue170006ERS6_PS5_m, symObjAddr: 0x39EC, symBinAddr: 0x100013464, symSize: 0x34 }
  - { offsetInCU: 0x183BD, offset: 0x75F57, size: 0x8, addend: 0x0, symName: __ZNSt3__114pointer_traitsIPNS_20__shared_ptr_emplaceI10TypingModeNS_9allocatorIS2_EEEEE10pointer_toB8ue170006ERS5_, symObjAddr: 0x3A20, symBinAddr: 0x100013498, symSize: 0x14 }
  - { offsetInCU: 0x183E0, offset: 0x75F7A, size: 0x8, addend: 0x0, symName: __ZNSt3__19allocatorINS_20__shared_ptr_emplaceI10TypingModeNS0_IS2_EEEEE10deallocateB8ue170006EPS4_m, symObjAddr: 0x3A34, symBinAddr: 0x1000134AC, symSize: 0x40 }
  - { offsetInCU: 0x18421, offset: 0x75FBB, size: 0x8, addend: 0x0, symName: __ZNSt3__110shared_ptrI10TypingModeEC1B8ue170006Ev, symObjAddr: 0x3A74, symBinAddr: 0x1000134EC, symSize: 0x2C }
  - { offsetInCU: 0x18449, offset: 0x75FE3, size: 0x8, addend: 0x0, symName: __ZNSt3__110shared_ptrI10TypingModeE18__enable_weak_thisB8ue170006Ez, symObjAddr: 0x3AA0, symBinAddr: 0x100013518, symSize: 0x10 }
  - { offsetInCU: 0x1846F, offset: 0x76009, size: 0x8, addend: 0x0, symName: __ZNSt3__110shared_ptrI10TypingModeEC2B8ue170006Ev, symObjAddr: 0x3AB0, symBinAddr: 0x100013528, symSize: 0x1C }
  - { offsetInCU: 0x18498, offset: 0x76032, size: 0x8, addend: 0x0, symName: __ZNSt3__120__shared_ptr_emplaceI10TypingModeNS_9allocatorIS1_EEE8_Storage10__get_elemB8ue170006Ev, symObjAddr: 0x3ACC, symBinAddr: 0x100013544, symSize: 0x3C }
  - { offsetInCU: 0x184ED, offset: 0x76087, size: 0x8, addend: 0x0, symName: __ZNSt3__117__compressed_pairINS_9allocatorI10TypingModeEES2_E17__get_second_baseB8ue170006EPS4_, symObjAddr: 0x3B08, symBinAddr: 0x100013580, symSize: 0x14 }
  - { offsetInCU: 0x18510, offset: 0x760AA, size: 0x8, addend: 0x0, symName: __ZNSt3__118__allocation_guardINS_9allocatorINS_20__shared_ptr_emplaceI10TypingModeNS1_IS3_EEEEEEED2B8ue170006Ev, symObjAddr: 0x3B1C, symBinAddr: 0x100013594, symSize: 0x2C }
  - { offsetInCU: 0x18538, offset: 0x760D2, size: 0x8, addend: 0x0, symName: __ZNSt3__118__allocation_guardINS_9allocatorINS_20__shared_ptr_emplaceI10TypingModeNS1_IS3_EEEEEEE9__destroyB8ue170006Ev, symObjAddr: 0x3B48, symBinAddr: 0x1000135C0, symSize: 0x4C }
  - { offsetInCU: 0x1855D, offset: 0x760F7, size: 0x8, addend: 0x0, symName: __ZNSt3__19allocatorI10TypingModeEC2B8ue170006Ev, symObjAddr: 0x3B94, symBinAddr: 0x10001360C, symSize: 0x2C }
  - { offsetInCU: 0x18585, offset: 0x7611F, size: 0x8, addend: 0x0, symName: __ZNSt3__116__non_trivial_ifILb1ENS_9allocatorI10TypingModeEEEC2B8ue170006Ev, symObjAddr: 0x3BC0, symBinAddr: 0x100013638, symSize: 0x14 }
  - { offsetInCU: 0x185AE, offset: 0x76148, size: 0x8, addend: 0x0, symName: __ZNSt3__110shared_ptrI10TypingModeED2B8ue170006Ev, symObjAddr: 0x3BD4, symBinAddr: 0x10001364C, symSize: 0x54 }
  - { offsetInCU: 0x185D6, offset: 0x76170, size: 0x8, addend: 0x0, symName: __ZNSt3__112__hash_tableINS_17__hash_value_typeI8ModeTypeNS_10shared_ptrI10EditorModeEEEENS_22__unordered_map_hasherIS2_S6_NS_4hashIS2_EENS_8equal_toIS2_EELb1EEENS_21__unordered_map_equalIS2_S6_SB_S9_Lb1EEENS_9allocatorIS6_EEE15__assign_uniqueIPKNS_4pairIKS2_S5_EEEEvT_SO_, symObjAddr: 0x3C28, symBinAddr: 0x1000136A0, symSize: 0x1B4 }
  - { offsetInCU: 0x18652, offset: 0x761EC, size: 0x8, addend: 0x0, symName: __ZNKSt16initializer_listINSt3__14pairIK8ModeTypeNS0_10shared_ptrI10EditorModeEEEEE5beginB8ue170006Ev, symObjAddr: 0x3DDC, symBinAddr: 0x100013854, symSize: 0x18 }
  - { offsetInCU: 0x18677, offset: 0x76211, size: 0x8, addend: 0x0, symName: __ZNKSt16initializer_listINSt3__14pairIK8ModeTypeNS0_10shared_ptrI10EditorModeEEEEE3endB8ue170006Ev, symObjAddr: 0x3DF4, symBinAddr: 0x10001386C, symSize: 0x28 }
  - { offsetInCU: 0x1869C, offset: 0x76236, size: 0x8, addend: 0x0, symName: __ZNKSt3__112__hash_tableINS_17__hash_value_typeI8ModeTypeNS_10shared_ptrI10EditorModeEEEENS_22__unordered_map_hasherIS2_S6_NS_4hashIS2_EENS_8equal_toIS2_EELb1EEENS_21__unordered_map_equalIS2_S6_SB_S9_Lb1EEENS_9allocatorIS6_EEE12bucket_countB8ue170006Ev, symObjAddr: 0x3E1C, symBinAddr: 0x100013894, symSize: 0x28 }
  - { offsetInCU: 0x186C1, offset: 0x7625B, size: 0x8, addend: 0x0, symName: __ZNSt3__112__hash_tableINS_17__hash_value_typeI8ModeTypeNS_10shared_ptrI10EditorModeEEEENS_22__unordered_map_hasherIS2_S6_NS_4hashIS2_EENS_8equal_toIS2_EELb1EEENS_21__unordered_map_equalIS2_S6_SB_S9_Lb1EEENS_9allocatorIS6_EEE8__detachEv, symObjAddr: 0x3E44, symBinAddr: 0x1000138BC, symSize: 0xB4 }
  - { offsetInCU: 0x1871E, offset: 0x762B8, size: 0x8, addend: 0x0, symName: __ZNSt3__117__hash_value_typeI8ModeTypeNS_10shared_ptrI10EditorModeEEEaSB8ue170006IRKNS_4pairIKS1_S4_EEvEERS5_OT_, symObjAddr: 0x3EF8, symBinAddr: 0x100013970, symSize: 0x54 }
  - { offsetInCU: 0x1875E, offset: 0x762F8, size: 0x8, addend: 0x0, symName: __ZNSt3__112__hash_tableINS_17__hash_value_typeI8ModeTypeNS_10shared_ptrI10EditorModeEEEENS_22__unordered_map_hasherIS2_S6_NS_4hashIS2_EENS_8equal_toIS2_EELb1EEENS_21__unordered_map_equalIS2_S6_SB_S9_Lb1EEENS_9allocatorIS6_EEE20__node_insert_uniqueEPNS_11__hash_nodeIS6_PvEE, symObjAddr: 0x3F4C, symBinAddr: 0x1000139C4, symSize: 0xC4 }
  - { offsetInCU: 0x187B5, offset: 0x7634F, size: 0x8, addend: 0x0, symName: __ZNSt3__112__hash_tableINS_17__hash_value_typeI8ModeTypeNS_10shared_ptrI10EditorModeEEEENS_22__unordered_map_hasherIS2_S6_NS_4hashIS2_EENS_8equal_toIS2_EELb1EEENS_21__unordered_map_equalIS2_S6_SB_S9_Lb1EEENS_9allocatorIS6_EEE15__insert_uniqueB8ue170006ERKNS_4pairIKS2_S5_EE, symObjAddr: 0x4010, symBinAddr: 0x100013A88, symSize: 0x50 }
  - { offsetInCU: 0x187EA, offset: 0x76384, size: 0x8, addend: 0x0, symName: __ZNKSt3__110unique_ptrIA_PNS_16__hash_node_baseIPNS_11__hash_nodeINS_17__hash_value_typeI8ModeTypeNS_10shared_ptrI10EditorModeEEEEPvEEEENS_25__bucket_list_deallocatorINS_9allocatorISD_EEEEE11get_deleterB8ue170006Ev, symObjAddr: 0x4060, symBinAddr: 0x100013AD8, symSize: 0x24 }
  - { offsetInCU: 0x1880F, offset: 0x763A9, size: 0x8, addend: 0x0, symName: __ZNKSt3__125__bucket_list_deallocatorINS_9allocatorIPNS_16__hash_node_baseIPNS_11__hash_nodeINS_17__hash_value_typeI8ModeTypeNS_10shared_ptrI10EditorModeEEEEPvEEEEEEE4sizeB8ue170006Ev, symObjAddr: 0x4084, symBinAddr: 0x100013AFC, symSize: 0x28 }
  - { offsetInCU: 0x18834, offset: 0x763CE, size: 0x8, addend: 0x0, symName: __ZNKSt3__117__compressed_pairIPPNS_16__hash_node_baseIPNS_11__hash_nodeINS_17__hash_value_typeI8ModeTypeNS_10shared_ptrI10EditorModeEEEEPvEEEENS_25__bucket_list_deallocatorINS_9allocatorISD_EEEEE6secondB8ue170006Ev, symObjAddr: 0x40AC, symBinAddr: 0x100013B24, symSize: 0x28 }
  - { offsetInCU: 0x18859, offset: 0x763F3, size: 0x8, addend: 0x0, symName: __ZNKSt3__122__compressed_pair_elemINS_25__bucket_list_deallocatorINS_9allocatorIPNS_16__hash_node_baseIPNS_11__hash_nodeINS_17__hash_value_typeI8ModeTypeNS_10shared_ptrI10EditorModeEEEEPvEEEEEEEELi1ELb0EE5__getB8ue170006Ev, symObjAddr: 0x40D4, symBinAddr: 0x100013B4C, symSize: 0x14 }
  - { offsetInCU: 0x1887E, offset: 0x76418, size: 0x8, addend: 0x0, symName: __ZNKSt3__117__compressed_pairImNS_9allocatorIPNS_16__hash_node_baseIPNS_11__hash_nodeINS_17__hash_value_typeI8ModeTypeNS_10shared_ptrI10EditorModeEEEEPvEEEEEEE5firstB8ue170006Ev, symObjAddr: 0x40E8, symBinAddr: 0x100013B60, symSize: 0x24 }
  - { offsetInCU: 0x188A3, offset: 0x7643D, size: 0x8, addend: 0x0, symName: __ZNKSt3__122__compressed_pair_elemImLi0ELb0EE5__getB8ue170006Ev, symObjAddr: 0x410C, symBinAddr: 0x100013B84, symSize: 0x14 }
  - { offsetInCU: 0x188C8, offset: 0x76462, size: 0x8, addend: 0x0, symName: __ZNKSt3__110unique_ptrIA_PNS_16__hash_node_baseIPNS_11__hash_nodeINS_17__hash_value_typeI8ModeTypeNS_10shared_ptrI10EditorModeEEEEPvEEEENS_25__bucket_list_deallocatorINS_9allocatorISD_EEEEEixB8ue170006Em, symObjAddr: 0x4120, symBinAddr: 0x100013B98, symSize: 0x34 }
  - { offsetInCU: 0x188FD, offset: 0x76497, size: 0x8, addend: 0x0, symName: __ZNSt3__112__hash_tableINS_17__hash_value_typeI8ModeTypeNS_10shared_ptrI10EditorModeEEEENS_22__unordered_map_hasherIS2_S6_NS_4hashIS2_EENS_8equal_toIS2_EELb1EEENS_21__unordered_map_equalIS2_S6_SB_S9_Lb1EEENS_9allocatorIS6_EEE4sizeB8ue170006Ev, symObjAddr: 0x4154, symBinAddr: 0x100013BCC, symSize: 0x28 }
  - { offsetInCU: 0x18922, offset: 0x764BC, size: 0x8, addend: 0x0, symName: __ZNKSt3__117__compressed_pairIPPNS_16__hash_node_baseIPNS_11__hash_nodeINS_17__hash_value_typeI8ModeTypeNS_10shared_ptrI10EditorModeEEEEPvEEEENS_25__bucket_list_deallocatorINS_9allocatorISD_EEEEE5firstB8ue170006Ev, symObjAddr: 0x417C, symBinAddr: 0x100013BF4, symSize: 0x24 }
  - { offsetInCU: 0x18947, offset: 0x764E1, size: 0x8, addend: 0x0, symName: __ZNKSt3__122__compressed_pair_elemIPPNS_16__hash_node_baseIPNS_11__hash_nodeINS_17__hash_value_typeI8ModeTypeNS_10shared_ptrI10EditorModeEEEEPvEEEELi0ELb0EE5__getB8ue170006Ev, symObjAddr: 0x41A0, symBinAddr: 0x100013C18, symSize: 0x14 }
  - { offsetInCU: 0x1896C, offset: 0x76506, size: 0x8, addend: 0x0, symName: __ZNSt3__117__compressed_pairImNS_22__unordered_map_hasherI8ModeTypeNS_17__hash_value_typeIS2_NS_10shared_ptrI10EditorModeEEEENS_4hashIS2_EENS_8equal_toIS2_EELb1EEEE5firstB8ue170006Ev, symObjAddr: 0x41B4, symBinAddr: 0x100013C2C, symSize: 0x24 }
  - { offsetInCU: 0x18991, offset: 0x7652B, size: 0x8, addend: 0x0, symName: __ZNSt3__117__hash_value_typeI8ModeTypeNS_10shared_ptrI10EditorModeEEE5__refB8ue170006Ev, symObjAddr: 0x41D8, symBinAddr: 0x100013C50, symSize: 0x44 }
  - { offsetInCU: 0x189C6, offset: 0x76560, size: 0x8, addend: 0x0, symName: __ZNSt3__14pairIR8ModeTypeRNS_10shared_ptrI10EditorModeEEEaSB8ue170006IKS1_S5_LPv0EEERS7_RKNS0_IT_T0_EE, symObjAddr: 0x421C, symBinAddr: 0x100013C94, symSize: 0x4C }
  - { offsetInCU: 0x18A13, offset: 0x765AD, size: 0x8, addend: 0x0, symName: __ZNSt3__14pairIR8ModeTypeRNS_10shared_ptrI10EditorModeEEEC1B8ue170006ILb1ELPv0EEES2_S6_, symObjAddr: 0x4268, symBinAddr: 0x100013CE0, symSize: 0x3C }
  - { offsetInCU: 0x18A67, offset: 0x76601, size: 0x8, addend: 0x0, symName: __ZNSt3__14pairIR8ModeTypeRNS_10shared_ptrI10EditorModeEEEC2B8ue170006ILb1ELPv0EEES2_S6_, symObjAddr: 0x42A4, symBinAddr: 0x100013D1C, symSize: 0x2C }
  - { offsetInCU: 0x18ABC, offset: 0x76656, size: 0x8, addend: 0x0, symName: __ZNSt3__112__hash_tableINS_17__hash_value_typeI8ModeTypeNS_10shared_ptrI10EditorModeEEEENS_22__unordered_map_hasherIS2_S6_NS_4hashIS2_EENS_8equal_toIS2_EELb1EEENS_21__unordered_map_equalIS2_S6_SB_S9_Lb1EEENS_9allocatorIS6_EEE13hash_functionB8ue170006Ev, symObjAddr: 0x42D0, symBinAddr: 0x100013D48, symSize: 0x28 }
  - { offsetInCU: 0x18AE1, offset: 0x7667B, size: 0x8, addend: 0x0, symName: __ZNKSt3__122__unordered_map_hasherI8ModeTypeNS_17__hash_value_typeIS1_NS_10shared_ptrI10EditorModeEEEENS_4hashIS1_EENS_8equal_toIS1_EELb1EEclB8ue170006ERKS6_, symObjAddr: 0x42F8, symBinAddr: 0x100013D70, symSize: 0x40 }
  - { offsetInCU: 0x18B16, offset: 0x766B0, size: 0x8, addend: 0x0, symName: __ZNSt3__112__hash_tableINS_17__hash_value_typeI8ModeTypeNS_10shared_ptrI10EditorModeEEEENS_22__unordered_map_hasherIS2_S6_NS_4hashIS2_EENS_8equal_toIS2_EELb1EEENS_21__unordered_map_equalIS2_S6_SB_S9_Lb1EEENS_9allocatorIS6_EEE28__node_insert_unique_prepareB8ue170006EmRS6_, symObjAddr: 0x4338, symBinAddr: 0x100013DB0, symSize: 0x290 }
  - { offsetInCU: 0x18B9C, offset: 0x76736, size: 0x8, addend: 0x0, symName: __ZNKSt3__116__hash_node_baseIPNS_11__hash_nodeINS_17__hash_value_typeI8ModeTypeNS_10shared_ptrI10EditorModeEEEEPvEEE6__hashB8ue170006Ev, symObjAddr: 0x45C8, symBinAddr: 0x100014040, symSize: 0x18 }
  - { offsetInCU: 0x18BC1, offset: 0x7675B, size: 0x8, addend: 0x0, symName: __ZNSt3__112__hash_tableINS_17__hash_value_typeI8ModeTypeNS_10shared_ptrI10EditorModeEEEENS_22__unordered_map_hasherIS2_S6_NS_4hashIS2_EENS_8equal_toIS2_EELb1EEENS_21__unordered_map_equalIS2_S6_SB_S9_Lb1EEENS_9allocatorIS6_EEE28__node_insert_unique_performB8ue170006EPNS_11__hash_nodeIS6_PvEE, symObjAddr: 0x45E0, symBinAddr: 0x100014058, symSize: 0x154 }
  - { offsetInCU: 0x18C28, offset: 0x767C2, size: 0x8, addend: 0x0, symName: __ZNSt3__116__hash_node_baseIPNS_11__hash_nodeINS_17__hash_value_typeI8ModeTypeNS_10shared_ptrI10EditorModeEEEEPvEEE5__ptrB8ue170006Ev, symObjAddr: 0x4734, symBinAddr: 0x1000141AC, symSize: 0x24 }
  - { offsetInCU: 0x18C4D, offset: 0x767E7, size: 0x8, addend: 0x0, symName: __ZNSt3__115__hash_iteratorIPNS_11__hash_nodeINS_17__hash_value_typeI8ModeTypeNS_10shared_ptrI10EditorModeEEEEPvEEEC1B8ue170006EPNS_16__hash_node_baseISA_EE, symObjAddr: 0x4758, symBinAddr: 0x1000141D0, symSize: 0x34 }
  - { offsetInCU: 0x18C8A, offset: 0x76824, size: 0x8, addend: 0x0, symName: __ZNSt3__14pairINS_15__hash_iteratorIPNS_11__hash_nodeINS_17__hash_value_typeI8ModeTypeNS_10shared_ptrI10EditorModeEEEEPvEEEEbEC1B8ue170006ISC_RbLS9_0EEEOT_OT0_, symObjAddr: 0x478C, symBinAddr: 0x100014204, symSize: 0x3C }
  - { offsetInCU: 0x18CE6, offset: 0x76880, size: 0x8, addend: 0x0, symName: __ZNSt3__117__compressed_pairImNS_22__unordered_map_hasherI8ModeTypeNS_17__hash_value_typeIS2_NS_10shared_ptrI10EditorModeEEEENS_4hashIS2_EENS_8equal_toIS2_EELb1EEEE6secondB8ue170006Ev, symObjAddr: 0x47C8, symBinAddr: 0x100014240, symSize: 0x24 }
  - { offsetInCU: 0x18D0B, offset: 0x768A5, size: 0x8, addend: 0x0, symName: __ZNSt3__122__compressed_pair_elemINS_22__unordered_map_hasherI8ModeTypeNS_17__hash_value_typeIS2_NS_10shared_ptrI10EditorModeEEEENS_4hashIS2_EENS_8equal_toIS2_EELb1EEELi1ELb1EE5__getB8ue170006Ev, symObjAddr: 0x47EC, symBinAddr: 0x100014264, symSize: 0x14 }
  - { offsetInCU: 0x18D30, offset: 0x768CA, size: 0x8, addend: 0x0, symName: __ZNKSt3__117__hash_value_typeI8ModeTypeNS_10shared_ptrI10EditorModeEEE11__get_valueB8ue170006Ev, symObjAddr: 0x482C, symBinAddr: 0x1000142A4, symSize: 0x24 }
  - { offsetInCU: 0x18D5F, offset: 0x768F9, size: 0x8, addend: 0x0, symName: __ZNKSt3__14hashIiEclB8ue170006Ei, symObjAddr: 0x4850, symBinAddr: 0x1000142C8, symSize: 0x18 }
  - { offsetInCU: 0x18D94, offset: 0x7692E, size: 0x8, addend: 0x0, symName: __ZNSt3__112__hash_tableINS_17__hash_value_typeI8ModeTypeNS_10shared_ptrI10EditorModeEEEENS_22__unordered_map_hasherIS2_S6_NS_4hashIS2_EENS_8equal_toIS2_EELb1EEENS_21__unordered_map_equalIS2_S6_SB_S9_Lb1EEENS_9allocatorIS6_EEE6key_eqB8ue170006Ev, symObjAddr: 0x4938, symBinAddr: 0x1000143B0, symSize: 0x28 }
  - { offsetInCU: 0x18DB9, offset: 0x76953, size: 0x8, addend: 0x0, symName: __ZNKSt3__121__unordered_map_equalI8ModeTypeNS_17__hash_value_typeIS1_NS_10shared_ptrI10EditorModeEEEENS_8equal_toIS1_EENS_4hashIS1_EELb1EEclB8ue170006ERKS6_SD_, symObjAddr: 0x4960, symBinAddr: 0x1000143D8, symSize: 0x54 }
  - { offsetInCU: 0x18DFE, offset: 0x76998, size: 0x8, addend: 0x0, symName: __ZNSt3__112__hash_tableINS_17__hash_value_typeI8ModeTypeNS_10shared_ptrI10EditorModeEEEENS_22__unordered_map_hasherIS2_S6_NS_4hashIS2_EENS_8equal_toIS2_EELb1EEENS_21__unordered_map_equalIS2_S6_SB_S9_Lb1EEENS_9allocatorIS6_EEE15max_load_factorB8ue170006Ev, symObjAddr: 0x49B4, symBinAddr: 0x10001442C, symSize: 0x28 }
  - { offsetInCU: 0x18E23, offset: 0x769BD, size: 0x8, addend: 0x0, symName: __ZNSt3__112__hash_tableINS_17__hash_value_typeI8ModeTypeNS_10shared_ptrI10EditorModeEEEENS_22__unordered_map_hasherIS2_S6_NS_4hashIS2_EENS_8equal_toIS2_EELb1EEENS_21__unordered_map_equalIS2_S6_SB_S9_Lb1EEENS_9allocatorIS6_EEE15__rehash_uniqueB8ue170006Em, symObjAddr: 0x49DC, symBinAddr: 0x100014454, symSize: 0x2C }
  - { offsetInCU: 0x18E57, offset: 0x769F1, size: 0x8, addend: 0x0, symName: __Z4ceilB8ue170006f, symObjAddr: 0x4A84, symBinAddr: 0x1000144D0, symSize: 0x18 }
  - { offsetInCU: 0x18E88, offset: 0x76A22, size: 0x8, addend: 0x0, symName: __ZNSt3__117__compressed_pairIfNS_21__unordered_map_equalI8ModeTypeNS_17__hash_value_typeIS2_NS_10shared_ptrI10EditorModeEEEENS_8equal_toIS2_EENS_4hashIS2_EELb1EEEE6secondB8ue170006Ev, symObjAddr: 0x4A9C, symBinAddr: 0x1000144E8, symSize: 0x24 }
  - { offsetInCU: 0x18EAD, offset: 0x76A47, size: 0x8, addend: 0x0, symName: __ZNSt3__122__compressed_pair_elemINS_21__unordered_map_equalI8ModeTypeNS_17__hash_value_typeIS2_NS_10shared_ptrI10EditorModeEEEENS_8equal_toIS2_EENS_4hashIS2_EELb1EEELi1ELb1EE5__getB8ue170006Ev, symObjAddr: 0x4AC0, symBinAddr: 0x10001450C, symSize: 0x14 }
  - { offsetInCU: 0x18ED2, offset: 0x76A6C, size: 0x8, addend: 0x0, symName: __ZNKSt3__18equal_toI8ModeTypeEclB8ue170006ERKS1_S4_, symObjAddr: 0x4AD4, symBinAddr: 0x100014520, symSize: 0x34 }
  - { offsetInCU: 0x18F17, offset: 0x76AB1, size: 0x8, addend: 0x0, symName: __ZNSt3__117__compressed_pairIfNS_21__unordered_map_equalI8ModeTypeNS_17__hash_value_typeIS2_NS_10shared_ptrI10EditorModeEEEENS_8equal_toIS2_EENS_4hashIS2_EELb1EEEE5firstB8ue170006Ev, symObjAddr: 0x4B08, symBinAddr: 0x100014554, symSize: 0x24 }
  - { offsetInCU: 0x18F3C, offset: 0x76AD6, size: 0x8, addend: 0x0, symName: __ZNSt3__122__compressed_pair_elemIfLi0ELb0EE5__getB8ue170006Ev, symObjAddr: 0x4B2C, symBinAddr: 0x100014578, symSize: 0x14 }
  - { offsetInCU: 0x18F61, offset: 0x76AFB, size: 0x8, addend: 0x0, symName: __ZNSt3__112__hash_tableINS_17__hash_value_typeI8ModeTypeNS_10shared_ptrI10EditorModeEEEENS_22__unordered_map_hasherIS2_S6_NS_4hashIS2_EENS_8equal_toIS2_EELb1EEENS_21__unordered_map_equalIS2_S6_SB_S9_Lb1EEENS_9allocatorIS6_EEE8__rehashILb1EEEvm, symObjAddr: 0x4B40, symBinAddr: 0x10001458C, symSize: 0x1A8 }
  - { offsetInCU: 0x18FB2, offset: 0x76B4C, size: 0x8, addend: 0x0, symName: __ZNSt3__112__hash_tableINS_17__hash_value_typeI8ModeTypeNS_10shared_ptrI10EditorModeEEEENS_22__unordered_map_hasherIS2_S6_NS_4hashIS2_EENS_8equal_toIS2_EELb1EEENS_21__unordered_map_equalIS2_S6_SB_S9_Lb1EEENS_9allocatorIS6_EEE11__do_rehashILb1EEEvm, symObjAddr: 0x4CE8, symBinAddr: 0x100014734, symSize: 0x288 }
  - { offsetInCU: 0x190A0, offset: 0x76C3A, size: 0x8, addend: 0x0, symName: __ZNSt3__110unique_ptrIA_PNS_16__hash_node_baseIPNS_11__hash_nodeINS_17__hash_value_typeI8ModeTypeNS_10shared_ptrI10EditorModeEEEEPvEEEENS_25__bucket_list_deallocatorINS_9allocatorISD_EEEEE11get_deleterB8ue170006Ev, symObjAddr: 0x4FDC, symBinAddr: 0x100014A28, symSize: 0x24 }
  - { offsetInCU: 0x190C5, offset: 0x76C5F, size: 0x8, addend: 0x0, symName: __ZNSt3__110unique_ptrIA_PNS_16__hash_node_baseIPNS_11__hash_nodeINS_17__hash_value_typeI8ModeTypeNS_10shared_ptrI10EditorModeEEEEPvEEEENS_25__bucket_list_deallocatorINS_9allocatorISD_EEEEE5resetB8ue170006IPSD_EENS_9enable_ifIXsr28_CheckArrayPointerConversionIT_EE5valueEvE4typeESN_, symObjAddr: 0x5000, symBinAddr: 0x100014A4C, symSize: 0x78 }
  - { offsetInCU: 0x19113, offset: 0x76CAD, size: 0x8, addend: 0x0, symName: __ZNSt3__116allocator_traitsINS_9allocatorIPNS_16__hash_node_baseIPNS_11__hash_nodeINS_17__hash_value_typeI8ModeTypeNS_10shared_ptrI10EditorModeEEEEPvEEEEEEE8allocateB8ue170006ERSF_m, symObjAddr: 0x5078, symBinAddr: 0x100014AC4, symSize: 0x2C }
  - { offsetInCU: 0x19148, offset: 0x76CE2, size: 0x8, addend: 0x0, symName: __ZNSt3__19allocatorIPNS_16__hash_node_baseIPNS_11__hash_nodeINS_17__hash_value_typeI8ModeTypeNS_10shared_ptrI10EditorModeEEEEPvEEEEE8allocateB8ue170006Em, symObjAddr: 0x50A4, symBinAddr: 0x100014AF0, symSize: 0x58 }
  - { offsetInCU: 0x19185, offset: 0x76D1F, size: 0x8, addend: 0x0, symName: __ZNSt3__116allocator_traitsINS_9allocatorIPNS_16__hash_node_baseIPNS_11__hash_nodeINS_17__hash_value_typeI8ModeTypeNS_10shared_ptrI10EditorModeEEEEPvEEEEEEE8max_sizeB8ue170006ISF_vvEEmRKSF_, symObjAddr: 0x50FC, symBinAddr: 0x100014B48, symSize: 0x28 }
  - { offsetInCU: 0x191B3, offset: 0x76D4D, size: 0x8, addend: 0x0, symName: __ZNSt3__115__hash_iteratorIPNS_11__hash_nodeINS_17__hash_value_typeI8ModeTypeNS_10shared_ptrI10EditorModeEEEEPvEEEC2B8ue170006EPNS_16__hash_node_baseISA_EE, symObjAddr: 0x51C8, symBinAddr: 0x100014B8C, symSize: 0x20 }
  - { offsetInCU: 0x191EC, offset: 0x76D86, size: 0x8, addend: 0x0, symName: __ZNSt3__14pairINS_15__hash_iteratorIPNS_11__hash_nodeINS_17__hash_value_typeI8ModeTypeNS_10shared_ptrI10EditorModeEEEEPvEEEEbEC2B8ue170006ISC_RbLS9_0EEEOT_OT0_, symObjAddr: 0x51E8, symBinAddr: 0x100014BAC, symSize: 0x38 }
  - { offsetInCU: 0x19249, offset: 0x76DE3, size: 0x8, addend: 0x0, symName: __ZNSt3__112__hash_tableINS_17__hash_value_typeI8ModeTypeNS_10shared_ptrI10EditorModeEEEENS_22__unordered_map_hasherIS2_S6_NS_4hashIS2_EENS_8equal_toIS2_EELb1EEENS_21__unordered_map_equalIS2_S6_SB_S9_Lb1EEENS_9allocatorIS6_EEE25__emplace_unique_key_argsIS2_JRKNS_4pairIKS2_S5_EEEEENSJ_INS_15__hash_iteratorIPNS_11__hash_nodeIS6_PvEEEEbEERKT_DpOT0_, symObjAddr: 0x5220, symBinAddr: 0x100014BE4, symSize: 0x4A0 }
  - { offsetInCU: 0x19331, offset: 0x76ECB, size: 0x8, addend: 0x0, symName: __ZNSt3__122__hash_key_value_typesINS_17__hash_value_typeI8ModeTypeNS_10shared_ptrI10EditorModeEEEEE9__get_keyB8ue170006ERKNS_4pairIKS2_S5_EE, symObjAddr: 0x56C0, symBinAddr: 0x100015084, symSize: 0x14 }
  - { offsetInCU: 0x19354, offset: 0x76EEE, size: 0x8, addend: 0x0, symName: __ZNKSt3__122__unordered_map_hasherI8ModeTypeNS_17__hash_value_typeIS1_NS_10shared_ptrI10EditorModeEEEENS_4hashIS1_EENS_8equal_toIS1_EELb1EEclB8ue170006ERKS1_, symObjAddr: 0x56D4, symBinAddr: 0x100015098, symSize: 0x30 }
  - { offsetInCU: 0x19389, offset: 0x76F23, size: 0x8, addend: 0x0, symName: __ZNKSt3__121__unordered_map_equalI8ModeTypeNS_17__hash_value_typeIS1_NS_10shared_ptrI10EditorModeEEEENS_8equal_toIS1_EENS_4hashIS1_EELb1EEclB8ue170006ERKS6_RKS1_, symObjAddr: 0x5704, symBinAddr: 0x1000150C8, symSize: 0x48 }
  - { offsetInCU: 0x193CE, offset: 0x76F68, size: 0x8, addend: 0x0, symName: __ZNSt3__112__hash_tableINS_17__hash_value_typeI8ModeTypeNS_10shared_ptrI10EditorModeEEEENS_22__unordered_map_hasherIS2_S6_NS_4hashIS2_EENS_8equal_toIS2_EELb1EEENS_21__unordered_map_equalIS2_S6_SB_S9_Lb1EEENS_9allocatorIS6_EEE21__construct_node_hashIRKNS_4pairIKS2_S5_EEJEEENS_10unique_ptrINS_11__hash_nodeIS6_PvEENS_22__hash_node_destructorINSF_ISR_EEEEEEmOT_DpOT0_, symObjAddr: 0x574C, symBinAddr: 0x100015110, symSize: 0x140 }
  - { offsetInCU: 0x19445, offset: 0x76FDF, size: 0x8, addend: 0x0, symName: __ZNKSt3__110unique_ptrINS_11__hash_nodeINS_17__hash_value_typeI8ModeTypeNS_10shared_ptrI10EditorModeEEEEPvEENS_22__hash_node_destructorINS_9allocatorIS9_EEEEEptB8ue170006Ev, symObjAddr: 0x588C, symBinAddr: 0x100015250, symSize: 0x28 }
  - { offsetInCU: 0x1946A, offset: 0x77004, size: 0x8, addend: 0x0, symName: __ZNKSt3__110unique_ptrINS_11__hash_nodeINS_17__hash_value_typeI8ModeTypeNS_10shared_ptrI10EditorModeEEEEPvEENS_22__hash_node_destructorINS_9allocatorIS9_EEEEE3getB8ue170006Ev, symObjAddr: 0x58B4, symBinAddr: 0x100015278, symSize: 0x28 }
  - { offsetInCU: 0x1948F, offset: 0x77029, size: 0x8, addend: 0x0, symName: __ZNSt3__110unique_ptrINS_11__hash_nodeINS_17__hash_value_typeI8ModeTypeNS_10shared_ptrI10EditorModeEEEEPvEENS_22__hash_node_destructorINS_9allocatorIS9_EEEEE7releaseB8ue170006Ev, symObjAddr: 0x58DC, symBinAddr: 0x1000152A0, symSize: 0x44 }
  - { offsetInCU: 0x194C4, offset: 0x7705E, size: 0x8, addend: 0x0, symName: __ZNSt3__110unique_ptrINS_11__hash_nodeINS_17__hash_value_typeI8ModeTypeNS_10shared_ptrI10EditorModeEEEEPvEENS_22__hash_node_destructorINS_9allocatorIS9_EEEEED1B8ue170006Ev, symObjAddr: 0x5920, symBinAddr: 0x1000152E4, symSize: 0x2C }
  - { offsetInCU: 0x194EC, offset: 0x77086, size: 0x8, addend: 0x0, symName: __ZNSt3__116allocator_traitsINS_9allocatorINS_11__hash_nodeINS_17__hash_value_typeI8ModeTypeNS_10shared_ptrI10EditorModeEEEEPvEEEEE8allocateB8ue170006ERSB_m, symObjAddr: 0x594C, symBinAddr: 0x100015310, symSize: 0x2C }
  - { offsetInCU: 0x19521, offset: 0x770BB, size: 0x8, addend: 0x0, symName: __ZNSt3__122__hash_node_destructorINS_9allocatorINS_11__hash_nodeINS_17__hash_value_typeI8ModeTypeNS_10shared_ptrI10EditorModeEEEEPvEEEEEC1B8ue170006ERSB_b, symObjAddr: 0x5978, symBinAddr: 0x10001533C, symSize: 0x48 }
  - { offsetInCU: 0x1956E, offset: 0x77108, size: 0x8, addend: 0x0, symName: __ZNSt3__110unique_ptrINS_11__hash_nodeINS_17__hash_value_typeI8ModeTypeNS_10shared_ptrI10EditorModeEEEEPvEENS_22__hash_node_destructorINS_9allocatorIS9_EEEEEC1B8ue170006ILb1EvEEPS9_NS_16__dependent_typeINS_27__unique_ptr_deleter_sfinaeISD_EEXT_EE20__good_rval_ref_typeE, symObjAddr: 0x59C0, symBinAddr: 0x100015384, symSize: 0x3C }
  - { offsetInCU: 0x195BE, offset: 0x77158, size: 0x8, addend: 0x0, symName: __ZNSt3__116allocator_traitsINS_9allocatorINS_11__hash_nodeINS_17__hash_value_typeI8ModeTypeNS_10shared_ptrI10EditorModeEEEEPvEEEEE9constructB8ue170006INS_4pairIKS4_S7_EEJRKSG_EvvEEvRSB_PT_DpOT0_, symObjAddr: 0x59FC, symBinAddr: 0x1000153C0, symSize: 0x30 }
  - { offsetInCU: 0x19617, offset: 0x771B1, size: 0x8, addend: 0x0, symName: __ZNSt3__110unique_ptrINS_11__hash_nodeINS_17__hash_value_typeI8ModeTypeNS_10shared_ptrI10EditorModeEEEEPvEENS_22__hash_node_destructorINS_9allocatorIS9_EEEEE11get_deleterB8ue170006Ev, symObjAddr: 0x5A2C, symBinAddr: 0x1000153F0, symSize: 0x24 }
  - { offsetInCU: 0x1963C, offset: 0x771D6, size: 0x8, addend: 0x0, symName: __ZNSt3__19allocatorINS_11__hash_nodeINS_17__hash_value_typeI8ModeTypeNS_10shared_ptrI10EditorModeEEEEPvEEE8allocateB8ue170006Em, symObjAddr: 0x5A50, symBinAddr: 0x100015414, symSize: 0x5C }
  - { offsetInCU: 0x19679, offset: 0x77213, size: 0x8, addend: 0x0, symName: __ZNSt3__116allocator_traitsINS_9allocatorINS_11__hash_nodeINS_17__hash_value_typeI8ModeTypeNS_10shared_ptrI10EditorModeEEEEPvEEEEE8max_sizeB8ue170006ISB_vvEEmRKSB_, symObjAddr: 0x5AAC, symBinAddr: 0x100015470, symSize: 0x28 }
  - { offsetInCU: 0x196A7, offset: 0x77241, size: 0x8, addend: 0x0, symName: __ZNSt3__122__hash_node_destructorINS_9allocatorINS_11__hash_nodeINS_17__hash_value_typeI8ModeTypeNS_10shared_ptrI10EditorModeEEEEPvEEEEEC2B8ue170006ERSB_b, symObjAddr: 0x5AD4, symBinAddr: 0x100015498, symSize: 0x38 }
  - { offsetInCU: 0x196F0, offset: 0x7728A, size: 0x8, addend: 0x0, symName: __ZNSt3__110unique_ptrINS_11__hash_nodeINS_17__hash_value_typeI8ModeTypeNS_10shared_ptrI10EditorModeEEEEPvEENS_22__hash_node_destructorINS_9allocatorIS9_EEEEEC2B8ue170006ILb1EvEEPS9_NS_16__dependent_typeINS_27__unique_ptr_deleter_sfinaeISD_EEXT_EE20__good_rval_ref_typeE, symObjAddr: 0x5B0C, symBinAddr: 0x1000154D0, symSize: 0x48 }
  - { offsetInCU: 0x19740, offset: 0x772DA, size: 0x8, addend: 0x0, symName: __ZNSt3__117__compressed_pairIPNS_11__hash_nodeINS_17__hash_value_typeI8ModeTypeNS_10shared_ptrI10EditorModeEEEEPvEENS_22__hash_node_destructorINS_9allocatorIS9_EEEEEC1B8ue170006IRSA_SE_EEOT_OT0_, symObjAddr: 0x5B54, symBinAddr: 0x100015518, symSize: 0x3C }
  - { offsetInCU: 0x19796, offset: 0x77330, size: 0x8, addend: 0x0, symName: __ZNSt3__117__compressed_pairIPNS_11__hash_nodeINS_17__hash_value_typeI8ModeTypeNS_10shared_ptrI10EditorModeEEEEPvEENS_22__hash_node_destructorINS_9allocatorIS9_EEEEEC2B8ue170006IRSA_SE_EEOT_OT0_, symObjAddr: 0x5B90, symBinAddr: 0x100015554, symSize: 0x48 }
  - { offsetInCU: 0x197EC, offset: 0x77386, size: 0x8, addend: 0x0, symName: __ZNSt3__122__compressed_pair_elemIPNS_11__hash_nodeINS_17__hash_value_typeI8ModeTypeNS_10shared_ptrI10EditorModeEEEEPvEELi0ELb0EEC2B8ue170006IRSA_vEEOT_, symObjAddr: 0x5BD8, symBinAddr: 0x10001559C, symSize: 0x24 }
  - { offsetInCU: 0x1982E, offset: 0x773C8, size: 0x8, addend: 0x0, symName: __ZNSt3__122__compressed_pair_elemINS_22__hash_node_destructorINS_9allocatorINS_11__hash_nodeINS_17__hash_value_typeI8ModeTypeNS_10shared_ptrI10EditorModeEEEEPvEEEEEELi1ELb0EEC2B8ue170006ISD_vEEOT_, symObjAddr: 0x5BFC, symBinAddr: 0x1000155C0, symSize: 0x24 }
  - { offsetInCU: 0x19870, offset: 0x7740A, size: 0x8, addend: 0x0, symName: __ZNSt3__14pairIK8ModeTypeNS_10shared_ptrI10EditorModeEEEC1B8ue170006ERKS6_, symObjAddr: 0x5C5C, symBinAddr: 0x100015620, symSize: 0x34 }
  - { offsetInCU: 0x198A3, offset: 0x7743D, size: 0x8, addend: 0x0, symName: __ZNSt3__14pairIK8ModeTypeNS_10shared_ptrI10EditorModeEEEC2B8ue170006ERKS6_, symObjAddr: 0x5C90, symBinAddr: 0x100015654, symSize: 0x48 }
  - { offsetInCU: 0x198D6, offset: 0x77470, size: 0x8, addend: 0x0, symName: __ZNSt3__110shared_ptrI10EditorModeEC1B8ue170006ERKS2_, symObjAddr: 0x5CD8, symBinAddr: 0x10001569C, symSize: 0x34 }
  - { offsetInCU: 0x1990E, offset: 0x774A8, size: 0x8, addend: 0x0, symName: __ZNSt3__110shared_ptrI10EditorModeEC2B8ue170006ERKS2_, symObjAddr: 0x5D0C, symBinAddr: 0x1000156D0, symSize: 0x70 }
  - { offsetInCU: 0x19946, offset: 0x774E0, size: 0x8, addend: 0x0, symName: __ZNSt3__117__compressed_pairIPNS_11__hash_nodeINS_17__hash_value_typeI8ModeTypeNS_10shared_ptrI10EditorModeEEEEPvEENS_22__hash_node_destructorINS_9allocatorIS9_EEEEE6secondB8ue170006Ev, symObjAddr: 0x5D7C, symBinAddr: 0x100015740, symSize: 0x28 }
  - { offsetInCU: 0x1996B, offset: 0x77505, size: 0x8, addend: 0x0, symName: __ZNSt3__122__compressed_pair_elemINS_22__hash_node_destructorINS_9allocatorINS_11__hash_nodeINS_17__hash_value_typeI8ModeTypeNS_10shared_ptrI10EditorModeEEEEPvEEEEEELi1ELb0EE5__getB8ue170006Ev, symObjAddr: 0x5DA4, symBinAddr: 0x100015768, symSize: 0x14 }
  - { offsetInCU: 0x19990, offset: 0x7752A, size: 0x8, addend: 0x0, symName: __ZNKSt3__117__compressed_pairIPNS_11__hash_nodeINS_17__hash_value_typeI8ModeTypeNS_10shared_ptrI10EditorModeEEEEPvEENS_22__hash_node_destructorINS_9allocatorIS9_EEEEE5firstB8ue170006Ev, symObjAddr: 0x5DB8, symBinAddr: 0x10001577C, symSize: 0x24 }
  - { offsetInCU: 0x199B5, offset: 0x7754F, size: 0x8, addend: 0x0, symName: __ZNKSt3__122__compressed_pair_elemIPNS_11__hash_nodeINS_17__hash_value_typeI8ModeTypeNS_10shared_ptrI10EditorModeEEEEPvEELi0ELb0EE5__getB8ue170006Ev, symObjAddr: 0x5DDC, symBinAddr: 0x1000157A0, symSize: 0x14 }
  - { offsetInCU: 0x199DA, offset: 0x77574, size: 0x8, addend: 0x0, symName: __ZNSt3__117__compressed_pairIPNS_11__hash_nodeINS_17__hash_value_typeI8ModeTypeNS_10shared_ptrI10EditorModeEEEEPvEENS_22__hash_node_destructorINS_9allocatorIS9_EEEEE5firstB8ue170006Ev, symObjAddr: 0x5DF0, symBinAddr: 0x1000157B4, symSize: 0x24 }
  - { offsetInCU: 0x199FF, offset: 0x77599, size: 0x8, addend: 0x0, symName: __ZNSt3__122__compressed_pair_elemIPNS_11__hash_nodeINS_17__hash_value_typeI8ModeTypeNS_10shared_ptrI10EditorModeEEEEPvEELi0ELb0EE5__getB8ue170006Ev, symObjAddr: 0x5E14, symBinAddr: 0x1000157D8, symSize: 0x14 }
  - { offsetInCU: 0x19A24, offset: 0x775BE, size: 0x8, addend: 0x0, symName: __ZNSt3__110unique_ptrINS_11__hash_nodeINS_17__hash_value_typeI8ModeTypeNS_10shared_ptrI10EditorModeEEEEPvEENS_22__hash_node_destructorINS_9allocatorIS9_EEEEED2B8ue170006Ev, symObjAddr: 0x5E28, symBinAddr: 0x1000157EC, symSize: 0x30 }
  - { offsetInCU: 0x19A4C, offset: 0x775E6, size: 0x8, addend: 0x0, symName: __ZNSt3__110unique_ptrINS_11__hash_nodeINS_17__hash_value_typeI8ModeTypeNS_10shared_ptrI10EditorModeEEEEPvEENS_22__hash_node_destructorINS_9allocatorIS9_EEEEE5resetB8ue170006EPS9_, symObjAddr: 0x5E58, symBinAddr: 0x10001581C, symSize: 0x78 }
  - { offsetInCU: 0x19A91, offset: 0x7762B, size: 0x8, addend: 0x0, symName: __ZNSt3__122__hash_node_destructorINS_9allocatorINS_11__hash_nodeINS_17__hash_value_typeI8ModeTypeNS_10shared_ptrI10EditorModeEEEEPvEEEEEclB8ue170006EPSA_, symObjAddr: 0x5ED0, symBinAddr: 0x100015894, symSize: 0x98 }
  - { offsetInCU: 0x19AC6, offset: 0x77660, size: 0x8, addend: 0x0, symName: __ZNSt3__113unordered_mapI8ModeTypeNS_10shared_ptrI10EditorModeEENS_4hashIS1_EENS_8equal_toIS1_EENS_9allocatorINS_4pairIKS1_S4_EEEEE4findB8ue170006ERSB_, symObjAddr: 0x5F68, symBinAddr: 0x10001592C, symSize: 0x40 }
  - { offsetInCU: 0x19AFB, offset: 0x77695, size: 0x8, addend: 0x0, symName: __ZNSt3__113unordered_mapI8ModeTypeNS_10shared_ptrI10EditorModeEENS_4hashIS1_EENS_8equal_toIS1_EENS_9allocatorINS_4pairIKS1_S4_EEEEE3endB8ue170006Ev, symObjAddr: 0x5FD8, symBinAddr: 0x10001599C, symSize: 0x38 }
  - { offsetInCU: 0x19B20, offset: 0x776BA, size: 0x8, addend: 0x0, symName: __ZNKSt3__119__hash_map_iteratorINS_15__hash_iteratorIPNS_11__hash_nodeINS_17__hash_value_typeI8ModeTypeNS_10shared_ptrI10EditorModeEEEEPvEEEEEptB8ue170006Ev, symObjAddr: 0x6074, symBinAddr: 0x1000159D4, symSize: 0x2C }
  - { offsetInCU: 0x19B45, offset: 0x776DF, size: 0x8, addend: 0x0, symName: __ZNSt3__112__hash_tableINS_17__hash_value_typeI8ModeTypeNS_10shared_ptrI10EditorModeEEEENS_22__unordered_map_hasherIS2_S6_NS_4hashIS2_EENS_8equal_toIS2_EELb1EEENS_21__unordered_map_equalIS2_S6_SB_S9_Lb1EEENS_9allocatorIS6_EEE4findIS2_EENS_15__hash_iteratorIPNS_11__hash_nodeIS6_PvEEEERKT_, symObjAddr: 0x60A0, symBinAddr: 0x100015A00, symSize: 0x1B0 }
  - { offsetInCU: 0x19BD4, offset: 0x7776E, size: 0x8, addend: 0x0, symName: __ZNSt3__119__hash_map_iteratorINS_15__hash_iteratorIPNS_11__hash_nodeINS_17__hash_value_typeI8ModeTypeNS_10shared_ptrI10EditorModeEEEEPvEEEEEC1B8ue170006ESC_, symObjAddr: 0x6250, symBinAddr: 0x100015BB0, symSize: 0x34 }
  - { offsetInCU: 0x19C0C, offset: 0x777A6, size: 0x8, addend: 0x0, symName: __ZNSt3__112__hash_tableINS_17__hash_value_typeI8ModeTypeNS_10shared_ptrI10EditorModeEEEENS_22__unordered_map_hasherIS2_S6_NS_4hashIS2_EENS_8equal_toIS2_EELb1EEENS_21__unordered_map_equalIS2_S6_SB_S9_Lb1EEENS_9allocatorIS6_EEE3endEv, symObjAddr: 0x6284, symBinAddr: 0x100015BE4, symSize: 0x2C }
  - { offsetInCU: 0x19C33, offset: 0x777CD, size: 0x8, addend: 0x0, symName: __ZNSt3__119__hash_map_iteratorINS_15__hash_iteratorIPNS_11__hash_nodeINS_17__hash_value_typeI8ModeTypeNS_10shared_ptrI10EditorModeEEEEPvEEEEEC2B8ue170006ESC_, symObjAddr: 0x62B0, symBinAddr: 0x100015C10, symSize: 0x20 }
  - { offsetInCU: 0x19C6C, offset: 0x77806, size: 0x8, addend: 0x0, symName: __ZNSt3__114pointer_traitsIPNS_4pairIK8ModeTypeNS_10shared_ptrI10EditorModeEEEEE10pointer_toB8ue170006ERS7_, symObjAddr: 0x6380, symBinAddr: 0x100015C60, symSize: 0x14 }
  - { offsetInCU: 0x19C8F, offset: 0x77829, size: 0x8, addend: 0x0, symName: __ZNKSt3__115__hash_iteratorIPNS_11__hash_nodeINS_17__hash_value_typeI8ModeTypeNS_10shared_ptrI10EditorModeEEEEPvEEEptB8ue170006Ev, symObjAddr: 0x6394, symBinAddr: 0x100015C74, symSize: 0x30 }
  - { offsetInCU: 0x19CB4, offset: 0x7784E, size: 0x8, addend: 0x0, symName: __ZNSt3__114pointer_traitsIPNS_17__hash_value_typeI8ModeTypeNS_10shared_ptrI10EditorModeEEEEE10pointer_toB8ue170006ERS6_, symObjAddr: 0x63C4, symBinAddr: 0x100015CA4, symSize: 0x14 }
  - { offsetInCU: 0x19CD7, offset: 0x77871, size: 0x8, addend: 0x0, symName: __ZNSt3__110shared_ptrI10EditorModeE4swapB8ue170006ERS2_, symObjAddr: 0x63D8, symBinAddr: 0x100015CB8, symSize: 0x44 }
  - { offsetInCU: 0xC93F, offset: 0x8438D, size: 0x8, addend: 0x0, symName: __ZNSt3__17advanceB8ue170006IPNS_10shared_ptrI6ActionEEllvEEvRT_T0_, symObjAddr: 0x3058, symBinAddr: 0x100018018, symSize: 0x38 }
  - { offsetInCU: 0x10728, offset: 0x88176, size: 0x8, addend: 0x0, symName: __ZNSt3__111make_sharedB8ue170006I12DeleteActionJR8PositionS3_S3_EvEENS_10shared_ptrIT_EEDpOT0_, symObjAddr: 0x8F8, symBinAddr: 0x100016578, symSize: 0x50 }
  - { offsetInCU: 0x10798, offset: 0x881E6, size: 0x8, addend: 0x0, symName: __ZNSt3__111make_sharedB8ue170006I14CompoundActionJNS_6vectorINS_10shared_ptrI6ActionEENS_9allocatorIS5_EEEEEvEENS3_IT_EEDpOT0_, symObjAddr: 0x9A8, symBinAddr: 0x100016628, symSize: 0x40 }
  - { offsetInCU: 0x107DE, offset: 0x8822C, size: 0x8, addend: 0x0, symName: __ZNSt3__111make_sharedB8ue170006I24ParagraphSplittingActionJ8PositionEvEENS_10shared_ptrIT_EEDpOT0_, symObjAddr: 0x9E8, symBinAddr: 0x100016668, symSize: 0x40 }
  - { offsetInCU: 0x10C5C, offset: 0x886AA, size: 0x8, addend: 0x0, symName: __ZNSt3__111make_sharedB8ue170006I12IndentActionJRiiEvEENS_10shared_ptrIT_EEDpOT0_, symObjAddr: 0xC58, symBinAddr: 0x1000167D0, symSize: 0x48 }
  - { offsetInCU: 0x10CB7, offset: 0x88705, size: 0x8, addend: 0x0, symName: __ZNSt3__111make_sharedB8ue170006I12InsertActionJRNS_6vectorINS_12basic_stringIcNS_11char_traitsIcEENS_9allocatorIcEEEENS6_IS8_EEEE8PositionEvEENS_10shared_ptrIT_EEDpOT0_, symObjAddr: 0x1258, symBinAddr: 0x100016B78, symSize: 0x48 }
  - { offsetInCU: 0x10F2E, offset: 0x8897C, size: 0x8, addend: 0x0, symName: __ZNSt3__122__make_exception_guardB8ue170006INS_6vectorINS_10shared_ptrI6ActionEENS_9allocatorIS4_EEE16__destroy_vectorEEENS_28__exception_guard_exceptionsIT_EESA_, symObjAddr: 0x1C00, symBinAddr: 0x100016FFC, symSize: 0x40 }
  - { offsetInCU: 0x10F63, offset: 0x889B1, size: 0x8, addend: 0x0, symName: __ZNSt3__119__allocate_at_leastB8ue170006INS_9allocatorINS_10shared_ptrI6ActionEEEEEENS_19__allocation_resultINS_16allocator_traitsIT_E7pointerEEERS8_m, symObjAddr: 0x2000, symBinAddr: 0x1000173FC, symSize: 0x40 }
  - { offsetInCU: 0x10FA6, offset: 0x889F4, size: 0x8, addend: 0x0, symName: __ZNSt3__112__to_addressB8ue170006INS_10shared_ptrI6ActionEEEEPT_S5_, symObjAddr: 0x25F4, symBinAddr: 0x100017710, symSize: 0x14 }
  - { offsetInCU: 0x10FDC, offset: 0x88A2A, size: 0x8, addend: 0x0, symName: __ZNSt3__130__uninitialized_allocator_copyB8ue170006INS_9allocatorINS_10shared_ptrI6ActionEEEEPKS4_S7_PS4_EET2_RT_T0_T1_S9_, symObjAddr: 0x26A4, symBinAddr: 0x1000177C0, symSize: 0x80 }
  - { offsetInCU: 0x11080, offset: 0x88ACE, size: 0x8, addend: 0x0, symName: __ZNSt3__114__unwrap_rangeB8ue170006IPKNS_10shared_ptrI6ActionEES5_EEDaT_T0_, symObjAddr: 0x2794, symBinAddr: 0x1000178B0, symSize: 0x3C }
  - { offsetInCU: 0x110CC, offset: 0x88B1A, size: 0x8, addend: 0x0, symName: __ZNSt3__135__uninitialized_allocator_copy_implB8ue170006INS_9allocatorINS_10shared_ptrI6ActionEEEEPKS4_S7_PS4_EET2_RT_T0_T1_S9_, symObjAddr: 0x27D0, symBinAddr: 0x1000178EC, symSize: 0xF4 }
  - { offsetInCU: 0x11171, offset: 0x88BBF, size: 0x8, addend: 0x0, symName: __ZNSt3__113__unwrap_iterB8ue170006IPNS_10shared_ptrI6ActionEENS_18__unwrap_iter_implIS4_Lb1EEELi0EEEDTclsrT0_8__unwrapclsr3stdE7declvalIT_EEEES8_, symObjAddr: 0x28C4, symBinAddr: 0x1000179E0, symSize: 0x24 }
  - { offsetInCU: 0x111B5, offset: 0x88C03, size: 0x8, addend: 0x0, symName: __ZNSt3__113__rewrap_iterB8ue170006IPNS_10shared_ptrI6ActionEES4_NS_18__unwrap_iter_implIS4_Lb1EEEEET_S7_T0_, symObjAddr: 0x28E8, symBinAddr: 0x100017A04, symSize: 0x3C }
  - { offsetInCU: 0x1130C, offset: 0x88D5A, size: 0x8, addend: 0x0, symName: __ZNSt3__113__unwrap_iterB8ue170006IPKNS_10shared_ptrI6ActionEENS_18__unwrap_iter_implIS5_Lb1EEELi0EEEDTclsrT0_8__unwrapclsr3stdE7declvalIT_EEEES9_, symObjAddr: 0x297C, symBinAddr: 0x100017A98, symSize: 0x24 }
  - { offsetInCU: 0x113A3, offset: 0x88DF1, size: 0x8, addend: 0x0, symName: __ZNSt3__112__to_addressB8ue170006IKNS_10shared_ptrI6ActionEEEEPT_S6_, symObjAddr: 0x2A00, symBinAddr: 0x100017B1C, symSize: 0x14 }
  - { offsetInCU: 0x113D9, offset: 0x88E27, size: 0x8, addend: 0x0, symName: __ZNSt3__122__make_exception_guardB8ue170006INS_29_AllocatorDestroyRangeReverseINS_9allocatorINS_10shared_ptrI6ActionEEEEPS5_EEEENS_28__exception_guard_exceptionsIT_EESA_, symObjAddr: 0x2A48, symBinAddr: 0x100017B64, symSize: 0x4C }
  - { offsetInCU: 0x1140F, offset: 0x88E5D, size: 0x8, addend: 0x0, symName: __ZNSt3__119__allocator_destroyB8ue170006INS_9allocatorINS_10shared_ptrI6ActionEEEENS_16reverse_iteratorIPS4_EES8_EEvRT_T0_T1_, symObjAddr: 0x2E00, symBinAddr: 0x100017DC0, symSize: 0x70 }
  - { offsetInCU: 0x11476, offset: 0x88EC4, size: 0x8, addend: 0x0, symName: __ZNSt3__1neB8ue170006IPNS_10shared_ptrI6ActionEES4_EEbRKNS_16reverse_iteratorIT_EERKNS5_IT0_EE, symObjAddr: 0x2EA4, symBinAddr: 0x100017E64, symSize: 0x48 }
  - { offsetInCU: 0x114C2, offset: 0x88F10, size: 0x8, addend: 0x0, symName: __ZNSt3__112__to_addressB8ue170006INS_16reverse_iteratorIPNS_10shared_ptrI6ActionEEEEvEEu7__decayIDTclsr19__to_address_helperIT_EE6__callclsr3stdE7declvalIRKS7_EEEEES9_, symObjAddr: 0x2F14, symBinAddr: 0x100017ED4, symSize: 0x24 }
  - { offsetInCU: 0x114F9, offset: 0x88F47, size: 0x8, addend: 0x0, symName: __ZNSt3__110destroy_atB8ue170006INS_10shared_ptrI6ActionEELi0EEEvPT_, symObjAddr: 0x2F70, symBinAddr: 0x100017F30, symSize: 0x24 }
  - { offsetInCU: 0x11531, offset: 0x88F7F, size: 0x8, addend: 0x0, symName: __ZNSt3__112__destroy_atB8ue170006INS_10shared_ptrI6ActionEELi0EEEvPT_, symObjAddr: 0x2F94, symBinAddr: 0x100017F54, symSize: 0x24 }
  - { offsetInCU: 0x11593, offset: 0x88FE1, size: 0x8, addend: 0x0, symName: __ZNSt3__14prevB8ue170006IPNS_10shared_ptrI6ActionEEEENS_9enable_ifIXsr29__has_input_iterator_categoryIT_EE5valueES6_E4typeES6_NS_15iterator_traitsIS6_E15difference_typeE, symObjAddr: 0x301C, symBinAddr: 0x100017FDC, symSize: 0x3C }
  - { offsetInCU: 0x115D6, offset: 0x89024, size: 0x8, addend: 0x0, symName: __ZNSt3__19__advanceB8ue170006IPNS_10shared_ptrI6ActionEEEEvRT_NS_15iterator_traitsIS5_E15difference_typeENS_26random_access_iterator_tagE, symObjAddr: 0x30A4, symBinAddr: 0x100018050, symSize: 0x28 }
  - { offsetInCU: 0x1169B, offset: 0x890E9, size: 0x8, addend: 0x0, symName: __ZNSt3__115allocate_sharedB8ue170006I12DeleteActionNS_9allocatorIS1_EEJR8PositionS5_S5_EvEENS_10shared_ptrIT_EERKT0_DpOT1_, symObjAddr: 0x5938, symBinAddr: 0x100018858, symSize: 0xA8 }
  - { offsetInCU: 0x11A92, offset: 0x894E0, size: 0x8, addend: 0x0, symName: __ZNSt3__112construct_atB8ue170006I12DeleteActionJR8PositionS3_S3_EPS1_EEPT_S6_DpOT0_, symObjAddr: 0x60D0, symBinAddr: 0x100018F6C, symSize: 0x70 }
  - { offsetInCU: 0x11B2A, offset: 0x89578, size: 0x8, addend: 0x0, symName: __ZNSt3__110destroy_atB8ue170006I12DeleteActionLi0EEEvPT_, symObjAddr: 0x61DC, symBinAddr: 0x100019078, symSize: 0x24 }
  - { offsetInCU: 0x11B62, offset: 0x895B0, size: 0x8, addend: 0x0, symName: __ZNSt3__112__destroy_atB8ue170006I12DeleteActionLi0EEEvPT_, symObjAddr: 0x6200, symBinAddr: 0x10001909C, symSize: 0x2C }
  - { offsetInCU: 0x11BCD, offset: 0x8961B, size: 0x8, addend: 0x0, symName: __ZNSt3__115allocate_sharedB8ue170006I24ParagraphSplittingActionNS_9allocatorIS1_EEJ8PositionEvEENS_10shared_ptrIT_EERKT0_DpOT1_, symObjAddr: 0x646C, symBinAddr: 0x100019308, symSize: 0x98 }
  - { offsetInCU: 0x11F85, offset: 0x899D3, size: 0x8, addend: 0x0, symName: __ZNSt3__112construct_atB8ue170006I24ParagraphSplittingActionJ8PositionEPS1_EEPT_S5_DpOT0_, symObjAddr: 0x6B40, symBinAddr: 0x1000199DC, symSize: 0x48 }
  - { offsetInCU: 0x11FF7, offset: 0x89A45, size: 0x8, addend: 0x0, symName: __ZNSt3__110destroy_atB8ue170006I24ParagraphSplittingActionLi0EEEvPT_, symObjAddr: 0x6C24, symBinAddr: 0x100019AC0, symSize: 0x24 }
  - { offsetInCU: 0x1202F, offset: 0x89A7D, size: 0x8, addend: 0x0, symName: __ZNSt3__112__destroy_atB8ue170006I24ParagraphSplittingActionLi0EEEvPT_, symObjAddr: 0x6C48, symBinAddr: 0x100019AE4, symSize: 0x2C }
  - { offsetInCU: 0x1209A, offset: 0x89AE8, size: 0x8, addend: 0x0, symName: __ZNSt3__115allocate_sharedB8ue170006I14CompoundActionNS_9allocatorIS1_EEJNS_6vectorINS_10shared_ptrI6ActionEENS2_IS7_EEEEEvEENS5_IT_EERKT0_DpOT1_, symObjAddr: 0x79A8, symBinAddr: 0x100019D90, symSize: 0x98 }
  - { offsetInCU: 0x12452, offset: 0x89EA0, size: 0x8, addend: 0x0, symName: __ZNSt3__112construct_atB8ue170006I14CompoundActionJNS_6vectorINS_10shared_ptrI6ActionEENS_9allocatorIS5_EEEEEPS1_EEPT_SB_DpOT0_, symObjAddr: 0x807C, symBinAddr: 0x10001A464, symSize: 0x7C }
  - { offsetInCU: 0x124C4, offset: 0x89F12, size: 0x8, addend: 0x0, symName: __ZNSt3__110destroy_atB8ue170006I14CompoundActionLi0EEEvPT_, symObjAddr: 0x8324, symBinAddr: 0x10001A70C, symSize: 0x24 }
  - { offsetInCU: 0x124FC, offset: 0x89F4A, size: 0x8, addend: 0x0, symName: __ZNSt3__112__destroy_atB8ue170006I14CompoundActionLi0EEEvPT_, symObjAddr: 0x8348, symBinAddr: 0x10001A730, symSize: 0x2C }
  - { offsetInCU: 0x12567, offset: 0x89FB5, size: 0x8, addend: 0x0, symName: __ZNSt3__115allocate_sharedB8ue170006I12IndentActionNS_9allocatorIS1_EEJRiiEvEENS_10shared_ptrIT_EERKT0_DpOT1_, symObjAddr: 0x85B4, symBinAddr: 0x10001A99C, symSize: 0xA0 }
  - { offsetInCU: 0x126EF, offset: 0x8A13D, size: 0x8, addend: 0x0, symName: __ZNSt3__112construct_atB8ue170006I12IndentActionJRiiEPS1_EEPT_S5_DpOT0_, symObjAddr: 0x8CA8, symBinAddr: 0x10001AB80, symSize: 0x4C }
  - { offsetInCU: 0x12774, offset: 0x8A1C2, size: 0x8, addend: 0x0, symName: __ZNSt3__115allocate_sharedB8ue170006I12InsertActionNS_9allocatorIS1_EEJRNS_6vectorINS_12basic_stringIcNS_11char_traitsIcEENS2_IcEEEENS2_IS9_EEEE8PositionEvEENS_10shared_ptrIT_EERKT0_DpOT1_, symObjAddr: 0x9A8C, symBinAddr: 0x10001ABCC, symSize: 0xA0 }
  - { offsetInCU: 0x12B4B, offset: 0x8A599, size: 0x8, addend: 0x0, symName: __ZNSt3__112construct_atB8ue170006I12InsertActionJRNS_6vectorINS_12basic_stringIcNS_11char_traitsIcEENS_9allocatorIcEEEENS6_IS8_EEEE8PositionEPS1_EEPT_SF_DpOT0_, symObjAddr: 0xA180, symBinAddr: 0x10001B2C0, symSize: 0x98 }
  - { offsetInCU: 0x12BD0, offset: 0x8A61E, size: 0x8, addend: 0x0, symName: __ZNSt3__130__uninitialized_allocator_copyB8ue170006INS_9allocatorINS_12basic_stringIcNS_11char_traitsIcEENS1_IcEEEEEEPS6_S8_S8_EET2_RT_T0_T1_S9_, symObjAddr: 0xA4CC, symBinAddr: 0x10001B60C, symSize: 0x80 }
  - { offsetInCU: 0x12C74, offset: 0x8A6C2, size: 0x8, addend: 0x0, symName: __ZNSt3__114__unwrap_rangeB8ue170006IPNS_12basic_stringIcNS_11char_traitsIcEENS_9allocatorIcEEEES7_EEDaT_T0_, symObjAddr: 0xA54C, symBinAddr: 0x10001B68C, symSize: 0x3C }
  - { offsetInCU: 0x12CC0, offset: 0x8A70E, size: 0x8, addend: 0x0, symName: __ZNSt3__135__uninitialized_allocator_copy_implB8ue170006INS_9allocatorINS_12basic_stringIcNS_11char_traitsIcEENS1_IcEEEEEEPS6_S8_S8_EET2_RT_T0_T1_S9_, symObjAddr: 0xA588, symBinAddr: 0x10001B6C8, symSize: 0xF4 }
  - { offsetInCU: 0x12E67, offset: 0x8A8B5, size: 0x8, addend: 0x0, symName: __ZNSt3__112construct_atB8ue170006INS_12basic_stringIcNS_11char_traitsIcEENS_9allocatorIcEEEEJRS6_EPS6_EEPT_SA_DpOT0_, symObjAddr: 0xA774, symBinAddr: 0x10001B8B4, symSize: 0x3C }
  - { offsetInCU: 0x12ED9, offset: 0x8A927, size: 0x8, addend: 0x0, symName: __ZNSt3__110destroy_atB8ue170006I12InsertActionLi0EEEvPT_, symObjAddr: 0xA84C, symBinAddr: 0x10001B98C, symSize: 0x24 }
  - { offsetInCU: 0x12F11, offset: 0x8A95F, size: 0x8, addend: 0x0, symName: __ZNSt3__112__destroy_atB8ue170006I12InsertActionLi0EEEvPT_, symObjAddr: 0xA870, symBinAddr: 0x10001B9B0, symSize: 0x2C }
  - { offsetInCU: 0x16716, offset: 0x8E164, size: 0x8, addend: 0x0, symName: __ZN10TypingMode15parseSpecialKeyE10SpecialKey14ParsingContext, symObjAddr: 0x0, symBinAddr: 0x100015D74, symSize: 0x7C0 }
  - { offsetInCU: 0x16790, offset: 0x8E1DE, size: 0x8, addend: 0x0, symName: __ZNK6Cursor11getPositionEv, symObjAddr: 0x7FC, symBinAddr: 0x100016558, symSize: 0x20 }
  - { offsetInCU: 0x167B5, offset: 0x8E203, size: 0x8, addend: 0x0, symName: __ZNSt3__18optionalINS_10shared_ptrI6ActionEEEC1B8ue170006INS1_I12DeleteActionEELi0EEEOT_, symObjAddr: 0x948, symBinAddr: 0x1000165C8, symSize: 0x34 }
  - { offsetInCU: 0x167FC, offset: 0x8E24A, size: 0x8, addend: 0x0, symName: __ZNSt3__110shared_ptrI12DeleteActionED1B8ue170006Ev, symObjAddr: 0x97C, symBinAddr: 0x1000165FC, symSize: 0x2C }
  - { offsetInCU: 0x16847, offset: 0x8E295, size: 0x8, addend: 0x0, symName: __ZNSt3__110shared_ptrI6ActionEC1B8ue170006I24ParagraphSplittingActionvEEONS0_IT_EE, symObjAddr: 0xA28, symBinAddr: 0x1000166A8, symSize: 0x34 }
  - { offsetInCU: 0x1688F, offset: 0x8E2DD, size: 0x8, addend: 0x0, symName: __ZNSt3__16vectorINS_10shared_ptrI6ActionEENS_9allocatorIS3_EEEC1B8ue170006ESt16initializer_listIS3_E, symObjAddr: 0xAD8, symBinAddr: 0x1000166DC, symSize: 0x3C }
  - { offsetInCU: 0x168ED, offset: 0x8E33B, size: 0x8, addend: 0x0, symName: __ZNSt3__18optionalINS_10shared_ptrI6ActionEEEC1B8ue170006INS1_I14CompoundActionEELi0EEEOT_, symObjAddr: 0xB14, symBinAddr: 0x100016718, symSize: 0x34 }
  - { offsetInCU: 0x16934, offset: 0x8E382, size: 0x8, addend: 0x0, symName: __ZNSt3__110shared_ptrI14CompoundActionED1B8ue170006Ev, symObjAddr: 0xB48, symBinAddr: 0x10001674C, symSize: 0x2C }
  - { offsetInCU: 0x1695C, offset: 0x8E3AA, size: 0x8, addend: 0x0, symName: __ZNSt3__16vectorINS_10shared_ptrI6ActionEENS_9allocatorIS3_EEED1B8ue170006Ev, symObjAddr: 0xB74, symBinAddr: 0x100016778, symSize: 0x2C }
  - { offsetInCU: 0x16984, offset: 0x8E3D2, size: 0x8, addend: 0x0, symName: __ZNSt3__110shared_ptrI24ParagraphSplittingActionED1B8ue170006Ev, symObjAddr: 0xBF8, symBinAddr: 0x1000167A4, symSize: 0x2C }
  - { offsetInCU: 0x169B6, offset: 0x8E404, size: 0x8, addend: 0x0, symName: __ZN10TypingMode10parseInputE5Input14ParsingContext, symObjAddr: 0xDC0, symBinAddr: 0x100016818, symSize: 0x360 }
  - { offsetInCU: 0x16A35, offset: 0x8E483, size: 0x8, addend: 0x0, symName: __ZNSt3__18optionalINS_10shared_ptrI6ActionEEEC1B8ue170006INS1_I12InsertActionEELi0EEEOT_, symObjAddr: 0x12A0, symBinAddr: 0x100016BC0, symSize: 0x34 }
  - { offsetInCU: 0x16A7C, offset: 0x8E4CA, size: 0x8, addend: 0x0, symName: __ZNSt3__110shared_ptrI12InsertActionED1B8ue170006Ev, symObjAddr: 0x12D4, symBinAddr: 0x100016BF4, symSize: 0x2C }
  - { offsetInCU: 0x16AA4, offset: 0x8E4F2, size: 0x8, addend: 0x0, symName: __ZN10TypingModeD1Ev, symObjAddr: 0x1358, symBinAddr: 0x100016C20, symSize: 0x2C }
  - { offsetInCU: 0x16ACC, offset: 0x8E51A, size: 0x8, addend: 0x0, symName: __ZN10TypingModeD0Ev, symObjAddr: 0x1384, symBinAddr: 0x100016C4C, symSize: 0x30 }
  - { offsetInCU: 0x16AF4, offset: 0x8E542, size: 0x8, addend: 0x0, symName: __ZNK10TypingMode12getModeLabelEv, symObjAddr: 0x13B4, symBinAddr: 0x100016C7C, symSize: 0x3C }
  - { offsetInCU: 0x16B19, offset: 0x8E567, size: 0x8, addend: 0x0, symName: __ZNSt3__18optionalINS_10shared_ptrI6ActionEEEC2B8ue170006INS1_I12DeleteActionEELi0EEEOT_, symObjAddr: 0x18BC, symBinAddr: 0x100016CB8, symSize: 0x34 }
  - { offsetInCU: 0x16B60, offset: 0x8E5AE, size: 0x8, addend: 0x0, symName: __ZNSt3__127__optional_move_assign_baseINS_10shared_ptrI6ActionEELb0EECI2NS_24__optional_destruct_baseIS3_Lb0EEEIJNS1_I12DeleteActionEEEEENS_10in_place_tEDpOT_, symObjAddr: 0x18F0, symBinAddr: 0x100016CEC, symSize: 0x34 }
  - { offsetInCU: 0x16B9E, offset: 0x8E5EC, size: 0x8, addend: 0x0, symName: __ZNSt3__127__optional_copy_assign_baseINS_10shared_ptrI6ActionEELb0EECI2NS_24__optional_destruct_baseIS3_Lb0EEEIJNS1_I12DeleteActionEEEEENS_10in_place_tEDpOT_, symObjAddr: 0x1924, symBinAddr: 0x100016D20, symSize: 0x34 }
  - { offsetInCU: 0x16BDC, offset: 0x8E62A, size: 0x8, addend: 0x0, symName: __ZNSt3__120__optional_move_baseINS_10shared_ptrI6ActionEELb0EECI2NS_24__optional_destruct_baseIS3_Lb0EEEIJNS1_I12DeleteActionEEEEENS_10in_place_tEDpOT_, symObjAddr: 0x1958, symBinAddr: 0x100016D54, symSize: 0x34 }
  - { offsetInCU: 0x16C1A, offset: 0x8E668, size: 0x8, addend: 0x0, symName: __ZNSt3__120__optional_copy_baseINS_10shared_ptrI6ActionEELb0EECI2NS_24__optional_destruct_baseIS3_Lb0EEEIJNS1_I12DeleteActionEEEEENS_10in_place_tEDpOT_, symObjAddr: 0x198C, symBinAddr: 0x100016D88, symSize: 0x34 }
  - { offsetInCU: 0x16C58, offset: 0x8E6A6, size: 0x8, addend: 0x0, symName: __ZNSt3__123__optional_storage_baseINS_10shared_ptrI6ActionEELb0EECI2NS_24__optional_destruct_baseIS3_Lb0EEEIJNS1_I12DeleteActionEEEEENS_10in_place_tEDpOT_, symObjAddr: 0x19C0, symBinAddr: 0x100016DBC, symSize: 0x34 }
  - { offsetInCU: 0x16C96, offset: 0x8E6E4, size: 0x8, addend: 0x0, symName: __ZNSt3__124__optional_destruct_baseINS_10shared_ptrI6ActionEELb0EEC2B8ue170006IJNS1_I12DeleteActionEEEEENS_10in_place_tEDpOT_, symObjAddr: 0x19F4, symBinAddr: 0x100016DF0, symSize: 0x3C }
  - { offsetInCU: 0x16CE5, offset: 0x8E733, size: 0x8, addend: 0x0, symName: __ZNSt3__110shared_ptrI6ActionEC1B8ue170006I12DeleteActionvEEONS0_IT_EE, symObjAddr: 0x1A30, symBinAddr: 0x100016E2C, symSize: 0x34 }
  - { offsetInCU: 0x16D28, offset: 0x8E776, size: 0x8, addend: 0x0, symName: __ZNSt3__110shared_ptrI6ActionEC2B8ue170006I12DeleteActionvEEONS0_IT_EE, symObjAddr: 0x1A64, symBinAddr: 0x100016E60, symSize: 0x40 }
  - { offsetInCU: 0x16D6C, offset: 0x8E7BA, size: 0x8, addend: 0x0, symName: __ZNSt3__16vectorINS_10shared_ptrI6ActionEENS_9allocatorIS3_EEEC2B8ue170006ESt16initializer_listIS3_E, symObjAddr: 0x1AA4, symBinAddr: 0x100016EA0, symSize: 0x120 }
  - { offsetInCU: 0x16DC7, offset: 0x8E815, size: 0x8, addend: 0x0, symName: __ZNSt3__117__compressed_pairIPNS_10shared_ptrI6ActionEENS_9allocatorIS3_EEEC1B8ue170006IDnNS_18__default_init_tagEEEOT_OT0_, symObjAddr: 0x1BC4, symBinAddr: 0x100016FC0, symSize: 0x3C }
  - { offsetInCU: 0x16E1D, offset: 0x8E86B, size: 0x8, addend: 0x0, symName: __ZNSt3__16vectorINS_10shared_ptrI6ActionEENS_9allocatorIS3_EEE16__destroy_vectorC1B8ue170006ERS6_, symObjAddr: 0x1C40, symBinAddr: 0x10001703C, symSize: 0x34 }
  - { offsetInCU: 0x16E55, offset: 0x8E8A3, size: 0x8, addend: 0x0, symName: __ZNKSt16initializer_listINSt3__110shared_ptrI6ActionEEE4sizeB8ue170006Ev, symObjAddr: 0x1C74, symBinAddr: 0x100017070, symSize: 0x18 }
  - { offsetInCU: 0x16E7A, offset: 0x8E8C8, size: 0x8, addend: 0x0, symName: __ZNSt3__16vectorINS_10shared_ptrI6ActionEENS_9allocatorIS3_EEE11__vallocateB8ue170006Em, symObjAddr: 0x1C8C, symBinAddr: 0x100017088, symSize: 0xAC }
  - { offsetInCU: 0x16EBF, offset: 0x8E90D, size: 0x8, addend: 0x0, symName: __ZNSt3__16vectorINS_10shared_ptrI6ActionEENS_9allocatorIS3_EEE18__construct_at_endIPKS3_S9_EEvT_T0_m, symObjAddr: 0x1D38, symBinAddr: 0x100017134, symSize: 0x8C }
  - { offsetInCU: 0x16F38, offset: 0x8E986, size: 0x8, addend: 0x0, symName: __ZNKSt16initializer_listINSt3__110shared_ptrI6ActionEEE5beginB8ue170006Ev, symObjAddr: 0x1DC4, symBinAddr: 0x1000171C0, symSize: 0x18 }
  - { offsetInCU: 0x16F5D, offset: 0x8E9AB, size: 0x8, addend: 0x0, symName: __ZNKSt16initializer_listINSt3__110shared_ptrI6ActionEEE3endB8ue170006Ev, symObjAddr: 0x1DDC, symBinAddr: 0x1000171D8, symSize: 0x20 }
  - { offsetInCU: 0x16F82, offset: 0x8E9D0, size: 0x8, addend: 0x0, symName: __ZNSt3__128__exception_guard_exceptionsINS_6vectorINS_10shared_ptrI6ActionEENS_9allocatorIS4_EEE16__destroy_vectorEE10__completeB8ue170006Ev, symObjAddr: 0x1DFC, symBinAddr: 0x1000171F8, symSize: 0x1C }
  - { offsetInCU: 0x16FA7, offset: 0x8E9F5, size: 0x8, addend: 0x0, symName: __ZNSt3__128__exception_guard_exceptionsINS_6vectorINS_10shared_ptrI6ActionEENS_9allocatorIS4_EEE16__destroy_vectorEED1B8ue170006Ev, symObjAddr: 0x1E18, symBinAddr: 0x100017214, symSize: 0x2C }
  - { offsetInCU: 0x16FCF, offset: 0x8EA1D, size: 0x8, addend: 0x0, symName: __ZNSt3__117__compressed_pairIPNS_10shared_ptrI6ActionEENS_9allocatorIS3_EEEC2B8ue170006IDnNS_18__default_init_tagEEEOT_OT0_, symObjAddr: 0x1E44, symBinAddr: 0x100017240, symSize: 0x40 }
  - { offsetInCU: 0x17025, offset: 0x8EA73, size: 0x8, addend: 0x0, symName: __ZNSt3__122__compressed_pair_elemIPNS_10shared_ptrI6ActionEELi0ELb0EEC2B8ue170006IDnvEEOT_, symObjAddr: 0x1E84, symBinAddr: 0x100017280, symSize: 0x1C }
  - { offsetInCU: 0x17067, offset: 0x8EAB5, size: 0x8, addend: 0x0, symName: __ZNSt3__122__compressed_pair_elemINS_9allocatorINS_10shared_ptrI6ActionEEEELi1ELb1EEC2B8ue170006ENS_18__default_init_tagE, symObjAddr: 0x1EA0, symBinAddr: 0x10001729C, symSize: 0x2C }
  - { offsetInCU: 0x1709A, offset: 0x8EAE8, size: 0x8, addend: 0x0, symName: __ZNSt3__19allocatorINS_10shared_ptrI6ActionEEEC2B8ue170006Ev, symObjAddr: 0x1ECC, symBinAddr: 0x1000172C8, symSize: 0x2C }
  - { offsetInCU: 0x170C2, offset: 0x8EB10, size: 0x8, addend: 0x0, symName: __ZNSt3__116__non_trivial_ifILb1ENS_9allocatorINS_10shared_ptrI6ActionEEEEEC2B8ue170006Ev, symObjAddr: 0x1EF8, symBinAddr: 0x1000172F4, symSize: 0x14 }
  - { offsetInCU: 0x170EB, offset: 0x8EB39, size: 0x8, addend: 0x0, symName: __ZNSt3__128__exception_guard_exceptionsINS_6vectorINS_10shared_ptrI6ActionEENS_9allocatorIS4_EEE16__destroy_vectorEEC1B8ue170006ES8_, symObjAddr: 0x1F0C, symBinAddr: 0x100017308, symSize: 0x34 }
  - { offsetInCU: 0x17121, offset: 0x8EB6F, size: 0x8, addend: 0x0, symName: __ZNSt3__128__exception_guard_exceptionsINS_6vectorINS_10shared_ptrI6ActionEENS_9allocatorIS4_EEE16__destroy_vectorEEC2B8ue170006ES8_, symObjAddr: 0x1F40, symBinAddr: 0x10001733C, symSize: 0x24 }
  - { offsetInCU: 0x17158, offset: 0x8EBA6, size: 0x8, addend: 0x0, symName: __ZNSt3__16vectorINS_10shared_ptrI6ActionEENS_9allocatorIS3_EEE16__destroy_vectorC2B8ue170006ERS6_, symObjAddr: 0x1F64, symBinAddr: 0x100017360, symSize: 0x20 }
  - { offsetInCU: 0x17191, offset: 0x8EBDF, size: 0x8, addend: 0x0, symName: __ZNKSt3__16vectorINS_10shared_ptrI6ActionEENS_9allocatorIS3_EEE8max_sizeEv, symObjAddr: 0x1F84, symBinAddr: 0x100017380, symSize: 0x60 }
  - { offsetInCU: 0x171B8, offset: 0x8EC06, size: 0x8, addend: 0x0, symName: __ZNKSt3__16vectorINS_10shared_ptrI6ActionEENS_9allocatorIS3_EEE20__throw_length_errorB8ue170006Ev, symObjAddr: 0x1FE4, symBinAddr: 0x1000173E0, symSize: 0x1C }
  - { offsetInCU: 0x171DD, offset: 0x8EC2B, size: 0x8, addend: 0x0, symName: __ZNSt3__16vectorINS_10shared_ptrI6ActionEENS_9allocatorIS3_EEE7__allocB8ue170006Ev, symObjAddr: 0x2040, symBinAddr: 0x10001743C, symSize: 0x28 }
  - { offsetInCU: 0x17202, offset: 0x8EC50, size: 0x8, addend: 0x0, symName: __ZNSt3__16vectorINS_10shared_ptrI6ActionEENS_9allocatorIS3_EEE9__end_capB8ue170006Ev, symObjAddr: 0x2068, symBinAddr: 0x100017464, symSize: 0x28 }
  - { offsetInCU: 0x17227, offset: 0x8EC75, size: 0x8, addend: 0x0, symName: __ZNKSt3__16vectorINS_10shared_ptrI6ActionEENS_9allocatorIS3_EEE14__annotate_newB8ue170006Em, symObjAddr: 0x2090, symBinAddr: 0x10001748C, symSize: 0xAC }
  - { offsetInCU: 0x17266, offset: 0x8ECB4, size: 0x8, addend: 0x0, symName: __ZNSt3__116allocator_traitsINS_9allocatorINS_10shared_ptrI6ActionEEEEE8max_sizeB8ue170006IS5_vvEEmRKS5_, symObjAddr: 0x2168, symBinAddr: 0x100017538, symSize: 0x28 }
  - { offsetInCU: 0x17294, offset: 0x8ECE2, size: 0x8, addend: 0x0, symName: __ZNKSt3__16vectorINS_10shared_ptrI6ActionEENS_9allocatorIS3_EEE7__allocB8ue170006Ev, symObjAddr: 0x2190, symBinAddr: 0x100017560, symSize: 0x28 }
  - { offsetInCU: 0x172B9, offset: 0x8ED07, size: 0x8, addend: 0x0, symName: __ZNKSt3__117__compressed_pairIPNS_10shared_ptrI6ActionEENS_9allocatorIS3_EEE6secondB8ue170006Ev, symObjAddr: 0x227C, symBinAddr: 0x100017588, symSize: 0x24 }
  - { offsetInCU: 0x172DE, offset: 0x8ED2C, size: 0x8, addend: 0x0, symName: __ZNKSt3__122__compressed_pair_elemINS_9allocatorINS_10shared_ptrI6ActionEEEELi1ELb1EE5__getB8ue170006Ev, symObjAddr: 0x22A0, symBinAddr: 0x1000175AC, symSize: 0x14 }
  - { offsetInCU: 0x17303, offset: 0x8ED51, size: 0x8, addend: 0x0, symName: __ZNSt3__19allocatorINS_10shared_ptrI6ActionEEE8allocateB8ue170006Em, symObjAddr: 0x23A0, symBinAddr: 0x1000175C0, symSize: 0x58 }
  - { offsetInCU: 0x17336, offset: 0x8ED84, size: 0x8, addend: 0x0, symName: __ZNSt3__117__compressed_pairIPNS_10shared_ptrI6ActionEENS_9allocatorIS3_EEE6secondB8ue170006Ev, symObjAddr: 0x24FC, symBinAddr: 0x100017618, symSize: 0x24 }
  - { offsetInCU: 0x1735B, offset: 0x8EDA9, size: 0x8, addend: 0x0, symName: __ZNSt3__122__compressed_pair_elemINS_9allocatorINS_10shared_ptrI6ActionEEEELi1ELb1EE5__getB8ue170006Ev, symObjAddr: 0x2520, symBinAddr: 0x10001763C, symSize: 0x14 }
  - { offsetInCU: 0x17380, offset: 0x8EDCE, size: 0x8, addend: 0x0, symName: __ZNSt3__117__compressed_pairIPNS_10shared_ptrI6ActionEENS_9allocatorIS3_EEE5firstB8ue170006Ev, symObjAddr: 0x2534, symBinAddr: 0x100017650, symSize: 0x24 }
  - { offsetInCU: 0x173A5, offset: 0x8EDF3, size: 0x8, addend: 0x0, symName: __ZNSt3__122__compressed_pair_elemIPNS_10shared_ptrI6ActionEELi0ELb0EE5__getB8ue170006Ev, symObjAddr: 0x2558, symBinAddr: 0x100017674, symSize: 0x14 }
  - { offsetInCU: 0x173CA, offset: 0x8EE18, size: 0x8, addend: 0x0, symName: __ZNKSt3__16vectorINS_10shared_ptrI6ActionEENS_9allocatorIS3_EEE31__annotate_contiguous_containerB8ue170006EPKvS8_S8_S8_, symObjAddr: 0x256C, symBinAddr: 0x100017688, symSize: 0x20 }
  - { offsetInCU: 0x1741F, offset: 0x8EE6D, size: 0x8, addend: 0x0, symName: __ZNKSt3__16vectorINS_10shared_ptrI6ActionEENS_9allocatorIS3_EEE4dataB8ue170006Ev, symObjAddr: 0x258C, symBinAddr: 0x1000176A8, symSize: 0x28 }
  - { offsetInCU: 0x17444, offset: 0x8EE92, size: 0x8, addend: 0x0, symName: __ZNKSt3__16vectorINS_10shared_ptrI6ActionEENS_9allocatorIS3_EEE8capacityB8ue170006Ev, symObjAddr: 0x25B4, symBinAddr: 0x1000176D0, symSize: 0x40 }
  - { offsetInCU: 0x17469, offset: 0x8EEB7, size: 0x8, addend: 0x0, symName: __ZNKSt3__16vectorINS_10shared_ptrI6ActionEENS_9allocatorIS3_EEE9__end_capB8ue170006Ev, symObjAddr: 0x2608, symBinAddr: 0x100017724, symSize: 0x28 }
  - { offsetInCU: 0x1748E, offset: 0x8EEDC, size: 0x8, addend: 0x0, symName: __ZNKSt3__117__compressed_pairIPNS_10shared_ptrI6ActionEENS_9allocatorIS3_EEE5firstB8ue170006Ev, symObjAddr: 0x2630, symBinAddr: 0x10001774C, symSize: 0x24 }
  - { offsetInCU: 0x174B3, offset: 0x8EF01, size: 0x8, addend: 0x0, symName: __ZNKSt3__122__compressed_pair_elemIPNS_10shared_ptrI6ActionEELi0ELb0EE5__getB8ue170006Ev, symObjAddr: 0x2654, symBinAddr: 0x100017770, symSize: 0x14 }
  - { offsetInCU: 0x174F1, offset: 0x8EF3F, size: 0x8, addend: 0x0, symName: __ZNSt3__16vectorINS_10shared_ptrI6ActionEENS_9allocatorIS3_EEE21_ConstructTransactionC1B8ue170006ERS6_m, symObjAddr: 0x2668, symBinAddr: 0x100017784, symSize: 0x3C }
  - { offsetInCU: 0x17539, offset: 0x8EF87, size: 0x8, addend: 0x0, symName: __ZNSt3__16vectorINS_10shared_ptrI6ActionEENS_9allocatorIS3_EEE21_ConstructTransactionD1B8ue170006Ev, symObjAddr: 0x2724, symBinAddr: 0x100017840, symSize: 0x2C }
  - { offsetInCU: 0x17561, offset: 0x8EFAF, size: 0x8, addend: 0x0, symName: __ZNSt3__16vectorINS_10shared_ptrI6ActionEENS_9allocatorIS3_EEE21_ConstructTransactionC2B8ue170006ERS6_m, symObjAddr: 0x2750, symBinAddr: 0x10001786C, symSize: 0x44 }
  - { offsetInCU: 0x175C3, offset: 0x8F011, size: 0x8, addend: 0x0, symName: __ZNSt3__119__unwrap_range_implIPKNS_10shared_ptrI6ActionEES5_E8__unwrapB8ue170006ES5_S5_, symObjAddr: 0x2924, symBinAddr: 0x100017A40, symSize: 0x58 }
  - { offsetInCU: 0x175F9, offset: 0x8F047, size: 0x8, addend: 0x0, symName: __ZNSt3__14pairIPKNS_10shared_ptrI6ActionEES5_EC1B8ue170006IS5_S5_LPv0EEEOT_OT0_, symObjAddr: 0x29A0, symBinAddr: 0x100017ABC, symSize: 0x3C }
  - { offsetInCU: 0x17655, offset: 0x8F0A3, size: 0x8, addend: 0x0, symName: __ZNSt3__118__unwrap_iter_implIPKNS_10shared_ptrI6ActionEELb1EE8__unwrapB8ue170006ES5_, symObjAddr: 0x29DC, symBinAddr: 0x100017AF8, symSize: 0x24 }
  - { offsetInCU: 0x17678, offset: 0x8F0C6, size: 0x8, addend: 0x0, symName: __ZNSt3__14pairIPKNS_10shared_ptrI6ActionEES5_EC2B8ue170006IS5_S5_LPv0EEEOT_OT0_, symObjAddr: 0x2A14, symBinAddr: 0x100017B30, symSize: 0x34 }
  - { offsetInCU: 0x176D5, offset: 0x8F123, size: 0x8, addend: 0x0, symName: __ZNSt3__129_AllocatorDestroyRangeReverseINS_9allocatorINS_10shared_ptrI6ActionEEEEPS4_EC1B8ue170006ERS5_RS6_S9_, symObjAddr: 0x2A94, symBinAddr: 0x100017BB0, symSize: 0x44 }
  - { offsetInCU: 0x1772D, offset: 0x8F17B, size: 0x8, addend: 0x0, symName: __ZNSt3__116allocator_traitsINS_9allocatorINS_10shared_ptrI6ActionEEEEE9constructB8ue170006IS4_JRKS4_EvvEEvRS5_PT_DpOT0_, symObjAddr: 0x2AD8, symBinAddr: 0x100017BF4, symSize: 0x30 }
  - { offsetInCU: 0x17786, offset: 0x8F1D4, size: 0x8, addend: 0x0, symName: __ZNSt3__128__exception_guard_exceptionsINS_29_AllocatorDestroyRangeReverseINS_9allocatorINS_10shared_ptrI6ActionEEEEPS5_EEE10__completeB8ue170006Ev, symObjAddr: 0x2B08, symBinAddr: 0x100017C24, symSize: 0x1C }
  - { offsetInCU: 0x177AB, offset: 0x8F1F9, size: 0x8, addend: 0x0, symName: __ZNSt3__128__exception_guard_exceptionsINS_29_AllocatorDestroyRangeReverseINS_9allocatorINS_10shared_ptrI6ActionEEEEPS5_EEED1B8ue170006Ev, symObjAddr: 0x2B24, symBinAddr: 0x100017C40, symSize: 0x2C }
  - { offsetInCU: 0x177D3, offset: 0x8F221, size: 0x8, addend: 0x0, symName: __ZNSt3__128__exception_guard_exceptionsINS_29_AllocatorDestroyRangeReverseINS_9allocatorINS_10shared_ptrI6ActionEEEEPS5_EEEC1B8ue170006ES8_, symObjAddr: 0x2B50, symBinAddr: 0x100017C6C, symSize: 0x34 }
  - { offsetInCU: 0x1780A, offset: 0x8F258, size: 0x8, addend: 0x0, symName: __ZNSt3__128__exception_guard_exceptionsINS_29_AllocatorDestroyRangeReverseINS_9allocatorINS_10shared_ptrI6ActionEEEEPS5_EEEC2B8ue170006ES8_, symObjAddr: 0x2B84, symBinAddr: 0x100017CA0, symSize: 0x30 }
  - { offsetInCU: 0x17842, offset: 0x8F290, size: 0x8, addend: 0x0, symName: __ZNSt3__129_AllocatorDestroyRangeReverseINS_9allocatorINS_10shared_ptrI6ActionEEEEPS4_EC2B8ue170006ERS5_RS6_S9_, symObjAddr: 0x2BB4, symBinAddr: 0x100017CD0, symSize: 0x38 }
  - { offsetInCU: 0x1789B, offset: 0x8F2E9, size: 0x8, addend: 0x0, symName: __ZNSt3__128__exception_guard_exceptionsINS_29_AllocatorDestroyRangeReverseINS_9allocatorINS_10shared_ptrI6ActionEEEEPS5_EEED2B8ue170006Ev, symObjAddr: 0x2D48, symBinAddr: 0x100017D08, symSize: 0x50 }
  - { offsetInCU: 0x178C3, offset: 0x8F311, size: 0x8, addend: 0x0, symName: __ZNKSt3__129_AllocatorDestroyRangeReverseINS_9allocatorINS_10shared_ptrI6ActionEEEEPS4_EclB8ue170006Ev, symObjAddr: 0x2D98, symBinAddr: 0x100017D58, symSize: 0x68 }
  - { offsetInCU: 0x178E8, offset: 0x8F336, size: 0x8, addend: 0x0, symName: __ZNSt3__116reverse_iteratorIPNS_10shared_ptrI6ActionEEEC1B8ue170006ES4_, symObjAddr: 0x2E70, symBinAddr: 0x100017E30, symSize: 0x34 }
  - { offsetInCU: 0x1791E, offset: 0x8F36C, size: 0x8, addend: 0x0, symName: __ZNSt3__116allocator_traitsINS_9allocatorINS_10shared_ptrI6ActionEEEEE7destroyB8ue170006IS4_vvEEvRS5_PT_, symObjAddr: 0x2EEC, symBinAddr: 0x100017EAC, symSize: 0x28 }
  - { offsetInCU: 0x1795C, offset: 0x8F3AA, size: 0x8, addend: 0x0, symName: __ZNSt3__116reverse_iteratorIPNS_10shared_ptrI6ActionEEEppB8ue170006Ev, symObjAddr: 0x2F38, symBinAddr: 0x100017EF8, symSize: 0x20 }
  - { offsetInCU: 0x17981, offset: 0x8F3CF, size: 0x8, addend: 0x0, symName: __ZNKSt3__116reverse_iteratorIPNS_10shared_ptrI6ActionEEE4baseB8ue170006Ev, symObjAddr: 0x2F58, symBinAddr: 0x100017F18, symSize: 0x18 }
  - { offsetInCU: 0x179AB, offset: 0x8F3F9, size: 0x8, addend: 0x0, symName: __ZNSt3__119__to_address_helperINS_16reverse_iteratorIPNS_10shared_ptrI6ActionEEEEvE6__callB8ue170006ERKS6_, symObjAddr: 0x2FB8, symBinAddr: 0x100017F78, symSize: 0x38 }
  - { offsetInCU: 0x179CE, offset: 0x8F41C, size: 0x8, addend: 0x0, symName: __ZNKSt3__116reverse_iteratorIPNS_10shared_ptrI6ActionEEEptB8ue170006Ev, symObjAddr: 0x2FF0, symBinAddr: 0x100017FB0, symSize: 0x2C }
  - { offsetInCU: 0x179F3, offset: 0x8F441, size: 0x8, addend: 0x0, symName: __ZNSt3__116reverse_iteratorIPNS_10shared_ptrI6ActionEEEC2B8ue170006ES4_, symObjAddr: 0x30CC, symBinAddr: 0x100018078, symSize: 0x28 }
  - { offsetInCU: 0x17A2A, offset: 0x8F478, size: 0x8, addend: 0x0, symName: __ZNSt3__118__unwrap_iter_implIPNS_10shared_ptrI6ActionEELb1EE8__unwrapB8ue170006ES4_, symObjAddr: 0x30F4, symBinAddr: 0x1000180A0, symSize: 0x24 }
  - { offsetInCU: 0x17A4D, offset: 0x8F49B, size: 0x8, addend: 0x0, symName: __ZNSt3__118__unwrap_iter_implIPNS_10shared_ptrI6ActionEELb1EE8__rewrapB8ue170006ES4_S4_, symObjAddr: 0x3118, symBinAddr: 0x1000180C4, symSize: 0x50 }
  - { offsetInCU: 0x17A7E, offset: 0x8F4CC, size: 0x8, addend: 0x0, symName: __ZNSt3__16vectorINS_10shared_ptrI6ActionEENS_9allocatorIS3_EEE21_ConstructTransactionD2B8ue170006Ev, symObjAddr: 0x3168, symBinAddr: 0x100018114, symSize: 0x20 }
  - { offsetInCU: 0x17AA7, offset: 0x8F4F5, size: 0x8, addend: 0x0, symName: __ZNSt3__128__exception_guard_exceptionsINS_6vectorINS_10shared_ptrI6ActionEENS_9allocatorIS4_EEE16__destroy_vectorEED2B8ue170006Ev, symObjAddr: 0x3188, symBinAddr: 0x100018134, symSize: 0x50 }
  - { offsetInCU: 0x17ACF, offset: 0x8F51D, size: 0x8, addend: 0x0, symName: __ZNSt3__16vectorINS_10shared_ptrI6ActionEENS_9allocatorIS3_EEE16__destroy_vectorclB8ue170006Ev, symObjAddr: 0x31D8, symBinAddr: 0x100018184, symSize: 0x90 }
  - { offsetInCU: 0x17AF4, offset: 0x8F542, size: 0x8, addend: 0x0, symName: __ZNSt3__16vectorINS_10shared_ptrI6ActionEENS_9allocatorIS3_EEE7__clearB8ue170006Ev, symObjAddr: 0x3268, symBinAddr: 0x100018214, symSize: 0x28 }
  - { offsetInCU: 0x17B19, offset: 0x8F567, size: 0x8, addend: 0x0, symName: __ZNKSt3__16vectorINS_10shared_ptrI6ActionEENS_9allocatorIS3_EEE17__annotate_deleteB8ue170006Ev, symObjAddr: 0x3290, symBinAddr: 0x10001823C, symSize: 0xB8 }
  - { offsetInCU: 0x17B3E, offset: 0x8F58C, size: 0x8, addend: 0x0, symName: __ZNSt3__116allocator_traitsINS_9allocatorINS_10shared_ptrI6ActionEEEEE10deallocateB8ue170006ERS5_PS4_m, symObjAddr: 0x3348, symBinAddr: 0x1000182F4, symSize: 0x34 }
  - { offsetInCU: 0x17B83, offset: 0x8F5D1, size: 0x8, addend: 0x0, symName: __ZNSt3__16vectorINS_10shared_ptrI6ActionEENS_9allocatorIS3_EEE22__base_destruct_at_endB8ue170006EPS3_, symObjAddr: 0x337C, symBinAddr: 0x100018328, symSize: 0x8C }
  - { offsetInCU: 0x17BC8, offset: 0x8F616, size: 0x8, addend: 0x0, symName: __ZNKSt3__16vectorINS_10shared_ptrI6ActionEENS_9allocatorIS3_EEE4sizeB8ue170006Ev, symObjAddr: 0x3408, symBinAddr: 0x1000183B4, symSize: 0x28 }
  - { offsetInCU: 0x17BED, offset: 0x8F63B, size: 0x8, addend: 0x0, symName: __ZNSt3__19allocatorINS_10shared_ptrI6ActionEEE10deallocateB8ue170006EPS3_m, symObjAddr: 0x3430, symBinAddr: 0x1000183DC, symSize: 0x40 }
  - { offsetInCU: 0x17C2E, offset: 0x8F67C, size: 0x8, addend: 0x0, symName: __ZNSt3__18optionalINS_10shared_ptrI6ActionEEEC2B8ue170006INS1_I14CompoundActionEELi0EEEOT_, symObjAddr: 0x3578, symBinAddr: 0x10001841C, symSize: 0x34 }
  - { offsetInCU: 0x17C75, offset: 0x8F6C3, size: 0x8, addend: 0x0, symName: __ZNSt3__127__optional_move_assign_baseINS_10shared_ptrI6ActionEELb0EECI2NS_24__optional_destruct_baseIS3_Lb0EEEIJNS1_I14CompoundActionEEEEENS_10in_place_tEDpOT_, symObjAddr: 0x35AC, symBinAddr: 0x100018450, symSize: 0x34 }
  - { offsetInCU: 0x17CB3, offset: 0x8F701, size: 0x8, addend: 0x0, symName: __ZNSt3__127__optional_copy_assign_baseINS_10shared_ptrI6ActionEELb0EECI2NS_24__optional_destruct_baseIS3_Lb0EEEIJNS1_I14CompoundActionEEEEENS_10in_place_tEDpOT_, symObjAddr: 0x35E0, symBinAddr: 0x100018484, symSize: 0x34 }
  - { offsetInCU: 0x17CF1, offset: 0x8F73F, size: 0x8, addend: 0x0, symName: __ZNSt3__120__optional_move_baseINS_10shared_ptrI6ActionEELb0EECI2NS_24__optional_destruct_baseIS3_Lb0EEEIJNS1_I14CompoundActionEEEEENS_10in_place_tEDpOT_, symObjAddr: 0x3614, symBinAddr: 0x1000184B8, symSize: 0x34 }
  - { offsetInCU: 0x17D2F, offset: 0x8F77D, size: 0x8, addend: 0x0, symName: __ZNSt3__120__optional_copy_baseINS_10shared_ptrI6ActionEELb0EECI2NS_24__optional_destruct_baseIS3_Lb0EEEIJNS1_I14CompoundActionEEEEENS_10in_place_tEDpOT_, symObjAddr: 0x3648, symBinAddr: 0x1000184EC, symSize: 0x34 }
  - { offsetInCU: 0x17D6D, offset: 0x8F7BB, size: 0x8, addend: 0x0, symName: __ZNSt3__123__optional_storage_baseINS_10shared_ptrI6ActionEELb0EECI2NS_24__optional_destruct_baseIS3_Lb0EEEIJNS1_I14CompoundActionEEEEENS_10in_place_tEDpOT_, symObjAddr: 0x367C, symBinAddr: 0x100018520, symSize: 0x34 }
  - { offsetInCU: 0x17DAB, offset: 0x8F7F9, size: 0x8, addend: 0x0, symName: __ZNSt3__124__optional_destruct_baseINS_10shared_ptrI6ActionEELb0EEC2B8ue170006IJNS1_I14CompoundActionEEEEENS_10in_place_tEDpOT_, symObjAddr: 0x36B0, symBinAddr: 0x100018554, symSize: 0x3C }
  - { offsetInCU: 0x17DFA, offset: 0x8F848, size: 0x8, addend: 0x0, symName: __ZNSt3__110shared_ptrI6ActionEC1B8ue170006I14CompoundActionvEEONS0_IT_EE, symObjAddr: 0x36EC, symBinAddr: 0x100018590, symSize: 0x34 }
  - { offsetInCU: 0x17E3D, offset: 0x8F88B, size: 0x8, addend: 0x0, symName: __ZNSt3__110shared_ptrI6ActionEC2B8ue170006I14CompoundActionvEEONS0_IT_EE, symObjAddr: 0x3720, symBinAddr: 0x1000185C4, symSize: 0x40 }
  - { offsetInCU: 0x17E81, offset: 0x8F8CF, size: 0x8, addend: 0x0, symName: __ZNSt3__16vectorINS_10shared_ptrI6ActionEENS_9allocatorIS3_EEED2B8ue170006Ev, symObjAddr: 0x3760, symBinAddr: 0x100018604, symSize: 0x40 }
  - { offsetInCU: 0x17ECC, offset: 0x8F91A, size: 0x8, addend: 0x0, symName: __ZNSt3__18optionalINS_10shared_ptrI6ActionEEEC2B8ue170006INS1_I12InsertActionEELi0EEEOT_, symObjAddr: 0x5484, symBinAddr: 0x100018644, symSize: 0x34 }
  - { offsetInCU: 0x17F13, offset: 0x8F961, size: 0x8, addend: 0x0, symName: __ZNSt3__127__optional_move_assign_baseINS_10shared_ptrI6ActionEELb0EECI2NS_24__optional_destruct_baseIS3_Lb0EEEIJNS1_I12InsertActionEEEEENS_10in_place_tEDpOT_, symObjAddr: 0x54B8, symBinAddr: 0x100018678, symSize: 0x34 }
  - { offsetInCU: 0x17F51, offset: 0x8F99F, size: 0x8, addend: 0x0, symName: __ZNSt3__127__optional_copy_assign_baseINS_10shared_ptrI6ActionEELb0EECI2NS_24__optional_destruct_baseIS3_Lb0EEEIJNS1_I12InsertActionEEEEENS_10in_place_tEDpOT_, symObjAddr: 0x54EC, symBinAddr: 0x1000186AC, symSize: 0x34 }
  - { offsetInCU: 0x17F8F, offset: 0x8F9DD, size: 0x8, addend: 0x0, symName: __ZNSt3__120__optional_move_baseINS_10shared_ptrI6ActionEELb0EECI2NS_24__optional_destruct_baseIS3_Lb0EEEIJNS1_I12InsertActionEEEEENS_10in_place_tEDpOT_, symObjAddr: 0x5520, symBinAddr: 0x1000186E0, symSize: 0x34 }
  - { offsetInCU: 0x17FCD, offset: 0x8FA1B, size: 0x8, addend: 0x0, symName: __ZNSt3__120__optional_copy_baseINS_10shared_ptrI6ActionEELb0EECI2NS_24__optional_destruct_baseIS3_Lb0EEEIJNS1_I12InsertActionEEEEENS_10in_place_tEDpOT_, symObjAddr: 0x5554, symBinAddr: 0x100018714, symSize: 0x34 }
  - { offsetInCU: 0x1800B, offset: 0x8FA59, size: 0x8, addend: 0x0, symName: __ZNSt3__123__optional_storage_baseINS_10shared_ptrI6ActionEELb0EECI2NS_24__optional_destruct_baseIS3_Lb0EEEIJNS1_I12InsertActionEEEEENS_10in_place_tEDpOT_, symObjAddr: 0x5588, symBinAddr: 0x100018748, symSize: 0x34 }
  - { offsetInCU: 0x18049, offset: 0x8FA97, size: 0x8, addend: 0x0, symName: __ZNSt3__124__optional_destruct_baseINS_10shared_ptrI6ActionEELb0EEC2B8ue170006IJNS1_I12InsertActionEEEEENS_10in_place_tEDpOT_, symObjAddr: 0x55BC, symBinAddr: 0x10001877C, symSize: 0x3C }
  - { offsetInCU: 0x18098, offset: 0x8FAE6, size: 0x8, addend: 0x0, symName: __ZNSt3__110shared_ptrI6ActionEC1B8ue170006I12InsertActionvEEONS0_IT_EE, symObjAddr: 0x55F8, symBinAddr: 0x1000187B8, symSize: 0x34 }
  - { offsetInCU: 0x180DB, offset: 0x8FB29, size: 0x8, addend: 0x0, symName: __ZNSt3__110shared_ptrI6ActionEC2B8ue170006I12InsertActionvEEONS0_IT_EE, symObjAddr: 0x562C, symBinAddr: 0x1000187EC, symSize: 0x40 }
  - { offsetInCU: 0x1811F, offset: 0x8FB6D, size: 0x8, addend: 0x0, symName: __ZN10TypingModeD2Ev, symObjAddr: 0x56D8, symBinAddr: 0x10001882C, symSize: 0x2C }
  - { offsetInCU: 0x1814C, offset: 0x8FB9A, size: 0x8, addend: 0x0, symName: __ZNSt3__19allocatorI12DeleteActionEC1B8ue170006Ev, symObjAddr: 0x59E0, symBinAddr: 0x100018900, symSize: 0x2C }
  - { offsetInCU: 0x181A1, offset: 0x8FBEF, size: 0x8, addend: 0x0, symName: __ZNSt3__118__allocation_guardINS_9allocatorINS_20__shared_ptr_emplaceI12DeleteActionNS1_IS3_EEEEEEEC1B8ue170006IS4_EET_m, symObjAddr: 0x5A0C, symBinAddr: 0x10001892C, symSize: 0x34 }
  - { offsetInCU: 0x181EE, offset: 0x8FC3C, size: 0x8, addend: 0x0, symName: __ZNKSt3__118__allocation_guardINS_9allocatorINS_20__shared_ptr_emplaceI12DeleteActionNS1_IS3_EEEEEEE5__getB8ue170006Ev, symObjAddr: 0x5A40, symBinAddr: 0x100018960, symSize: 0x18 }
  - { offsetInCU: 0x18218, offset: 0x8FC66, size: 0x8, addend: 0x0, symName: __ZNSt3__120__shared_ptr_emplaceI12DeleteActionNS_9allocatorIS1_EEEC1B8ue170006IJR8PositionS7_S7_EEES3_DpOT_, symObjAddr: 0x5A58, symBinAddr: 0x100018978, symSize: 0x44 }
  - { offsetInCU: 0x18295, offset: 0x8FCE3, size: 0x8, addend: 0x0, symName: __ZNSt3__118__allocation_guardINS_9allocatorINS_20__shared_ptr_emplaceI12DeleteActionNS1_IS3_EEEEEEE13__release_ptrB8ue170006Ev, symObjAddr: 0x5A9C, symBinAddr: 0x1000189BC, symSize: 0x24 }
  - { offsetInCU: 0x182C8, offset: 0x8FD16, size: 0x8, addend: 0x0, symName: __ZNSt3__110shared_ptrI12DeleteActionE27__create_with_control_blockB8ue170006IS1_NS_20__shared_ptr_emplaceIS1_NS_9allocatorIS1_EEEEEES2_PT_PT0_, symObjAddr: 0x5AC0, symBinAddr: 0x1000189E0, symSize: 0xA4 }
  - { offsetInCU: 0x18320, offset: 0x8FD6E, size: 0x8, addend: 0x0, symName: __ZNSt3__120__shared_ptr_emplaceI12DeleteActionNS_9allocatorIS1_EEE10__get_elemB8ue170006Ev, symObjAddr: 0x5B64, symBinAddr: 0x100018A84, symSize: 0x28 }
  - { offsetInCU: 0x18345, offset: 0x8FD93, size: 0x8, addend: 0x0, symName: __ZNSt3__118__allocation_guardINS_9allocatorINS_20__shared_ptr_emplaceI12DeleteActionNS1_IS3_EEEEEEED1B8ue170006Ev, symObjAddr: 0x5B8C, symBinAddr: 0x100018AAC, symSize: 0x2C }
  - { offsetInCU: 0x1836D, offset: 0x8FDBB, size: 0x8, addend: 0x0, symName: __ZNSt3__118__allocation_guardINS_9allocatorINS_20__shared_ptr_emplaceI12DeleteActionNS1_IS3_EEEEEEEC2B8ue170006IS4_EET_m, symObjAddr: 0x5BB8, symBinAddr: 0x100018AD8, symSize: 0x50 }
  - { offsetInCU: 0x183BA, offset: 0x8FE08, size: 0x8, addend: 0x0, symName: __ZNSt3__19allocatorINS_20__shared_ptr_emplaceI12DeleteActionNS0_IS2_EEEEEC1B8ue170006IS2_EERKNS0_IT_EE, symObjAddr: 0x5C08, symBinAddr: 0x100018B28, symSize: 0x34 }
  - { offsetInCU: 0x183F6, offset: 0x8FE44, size: 0x8, addend: 0x0, symName: __ZNSt3__116allocator_traitsINS_9allocatorINS_20__shared_ptr_emplaceI12DeleteActionNS1_IS3_EEEEEEE8allocateB8ue170006ERS6_m, symObjAddr: 0x5C3C, symBinAddr: 0x100018B5C, symSize: 0x2C }
  - { offsetInCU: 0x1842B, offset: 0x8FE79, size: 0x8, addend: 0x0, symName: __ZNSt3__19allocatorINS_20__shared_ptr_emplaceI12DeleteActionNS0_IS2_EEEEEC2B8ue170006IS2_EERKNS0_IT_EE, symObjAddr: 0x5C68, symBinAddr: 0x100018B88, symSize: 0x30 }
  - { offsetInCU: 0x18467, offset: 0x8FEB5, size: 0x8, addend: 0x0, symName: __ZNSt3__116__non_trivial_ifILb1ENS_9allocatorINS_20__shared_ptr_emplaceI12DeleteActionNS1_IS3_EEEEEEEC2B8ue170006Ev, symObjAddr: 0x5C98, symBinAddr: 0x100018BB8, symSize: 0x14 }
  - { offsetInCU: 0x18490, offset: 0x8FEDE, size: 0x8, addend: 0x0, symName: __ZNSt3__19allocatorINS_20__shared_ptr_emplaceI12DeleteActionNS0_IS2_EEEEE8allocateB8ue170006Em, symObjAddr: 0x5CAC, symBinAddr: 0x100018BCC, symSize: 0x5C }
  - { offsetInCU: 0x184CD, offset: 0x8FF1B, size: 0x8, addend: 0x0, symName: __ZNSt3__116allocator_traitsINS_9allocatorINS_20__shared_ptr_emplaceI12DeleteActionNS1_IS3_EEEEEEE8max_sizeB8ue170006IS6_vvEEmRKS6_, symObjAddr: 0x5D08, symBinAddr: 0x100018C28, symSize: 0x28 }
  - { offsetInCU: 0x184FB, offset: 0x8FF49, size: 0x8, addend: 0x0, symName: __ZNSt3__120__shared_ptr_emplaceI12DeleteActionNS_9allocatorIS1_EEEC2B8ue170006IJR8PositionS7_S7_EEES3_DpOT_, symObjAddr: 0x5D30, symBinAddr: 0x100018C50, symSize: 0xD8 }
  - { offsetInCU: 0x1859A, offset: 0x8FFE8, size: 0x8, addend: 0x0, symName: __ZNSt3__120__shared_ptr_emplaceI12DeleteActionNS_9allocatorIS1_EEE8_StorageC1B8ue170006EOS3_, symObjAddr: 0x5E5C, symBinAddr: 0x100018D28, symSize: 0x34 }
  - { offsetInCU: 0x185D2, offset: 0x90020, size: 0x8, addend: 0x0, symName: __ZNSt3__120__shared_ptr_emplaceI12DeleteActionNS_9allocatorIS1_EEE11__get_allocB8ue170006Ev, symObjAddr: 0x5E90, symBinAddr: 0x100018D5C, symSize: 0x28 }
  - { offsetInCU: 0x185FC, offset: 0x9004A, size: 0x8, addend: 0x0, symName: __ZNSt3__116allocator_traitsINS_9allocatorI12DeleteActionEEE9constructB8ue170006IS2_JR8PositionS7_S7_EvvEEvRS3_PT_DpOT0_, symObjAddr: 0x5EB8, symBinAddr: 0x100018D84, symSize: 0x40 }
  - { offsetInCU: 0x1867F, offset: 0x900CD, size: 0x8, addend: 0x0, symName: __ZNSt3__120__shared_ptr_emplaceI12DeleteActionNS_9allocatorIS1_EEE8_StorageD1B8ue170006Ev, symObjAddr: 0x5EF8, symBinAddr: 0x100018DC4, symSize: 0x2C }
  - { offsetInCU: 0x186A7, offset: 0x900F5, size: 0x8, addend: 0x0, symName: __ZNSt3__120__shared_ptr_emplaceI12DeleteActionNS_9allocatorIS1_EEED1Ev, symObjAddr: 0x5F24, symBinAddr: 0x100018DF0, symSize: 0x2C }
  - { offsetInCU: 0x186D3, offset: 0x90121, size: 0x8, addend: 0x0, symName: __ZNSt3__120__shared_ptr_emplaceI12DeleteActionNS_9allocatorIS1_EEED0Ev, symObjAddr: 0x5F50, symBinAddr: 0x100018E1C, symSize: 0x30 }
  - { offsetInCU: 0x186FF, offset: 0x9014D, size: 0x8, addend: 0x0, symName: __ZNSt3__120__shared_ptr_emplaceI12DeleteActionNS_9allocatorIS1_EEE16__on_zero_sharedEv, symObjAddr: 0x5F80, symBinAddr: 0x100018E4C, symSize: 0x44 }
  - { offsetInCU: 0x18746, offset: 0x90194, size: 0x8, addend: 0x0, symName: __ZNSt3__120__shared_ptr_emplaceI12DeleteActionNS_9allocatorIS1_EEE21__on_zero_shared_weakEv, symObjAddr: 0x5FC4, symBinAddr: 0x100018E90, symSize: 0x5C }
  - { offsetInCU: 0x18787, offset: 0x901D5, size: 0x8, addend: 0x0, symName: __ZNSt3__120__shared_ptr_emplaceI12DeleteActionNS_9allocatorIS1_EEE8_StorageC2B8ue170006EOS3_, symObjAddr: 0x6050, symBinAddr: 0x100018EEC, symSize: 0x30 }
  - { offsetInCU: 0x187BF, offset: 0x9020D, size: 0x8, addend: 0x0, symName: __ZNSt3__120__shared_ptr_emplaceI12DeleteActionNS_9allocatorIS1_EEE8_Storage11__get_allocB8ue170006Ev, symObjAddr: 0x6080, symBinAddr: 0x100018F1C, symSize: 0x3C }
  - { offsetInCU: 0x18814, offset: 0x90262, size: 0x8, addend: 0x0, symName: __ZNSt3__117__compressed_pairINS_9allocatorI12DeleteActionEES2_E16__get_first_baseB8ue170006EPS4_, symObjAddr: 0x60BC, symBinAddr: 0x100018F58, symSize: 0x14 }
  - { offsetInCU: 0x18837, offset: 0x90285, size: 0x8, addend: 0x0, symName: __ZNSt3__120__shared_ptr_emplaceI12DeleteActionNS_9allocatorIS1_EEE8_StorageD2B8ue170006Ev, symObjAddr: 0x6140, symBinAddr: 0x100018FDC, symSize: 0x2C }
  - { offsetInCU: 0x1885F, offset: 0x902AD, size: 0x8, addend: 0x0, symName: __ZNSt3__120__shared_ptr_emplaceI12DeleteActionNS_9allocatorIS1_EEED2Ev, symObjAddr: 0x616C, symBinAddr: 0x100019008, symSize: 0x48 }
  - { offsetInCU: 0x1888B, offset: 0x902D9, size: 0x8, addend: 0x0, symName: __ZNSt3__116allocator_traitsINS_9allocatorI12DeleteActionEEE7destroyB8ue170006IS2_vvEEvRS3_PT_, symObjAddr: 0x61B4, symBinAddr: 0x100019050, symSize: 0x28 }
  - { offsetInCU: 0x188C9, offset: 0x90317, size: 0x8, addend: 0x0, symName: __ZNSt3__116allocator_traitsINS_9allocatorINS_20__shared_ptr_emplaceI12DeleteActionNS1_IS3_EEEEEEE10deallocateB8ue170006ERS6_PS5_m, symObjAddr: 0x622C, symBinAddr: 0x1000190C8, symSize: 0x34 }
  - { offsetInCU: 0x18913, offset: 0x90361, size: 0x8, addend: 0x0, symName: __ZNSt3__114pointer_traitsIPNS_20__shared_ptr_emplaceI12DeleteActionNS_9allocatorIS2_EEEEE10pointer_toB8ue170006ERS5_, symObjAddr: 0x6260, symBinAddr: 0x1000190FC, symSize: 0x14 }
  - { offsetInCU: 0x18936, offset: 0x90384, size: 0x8, addend: 0x0, symName: __ZNSt3__19allocatorINS_20__shared_ptr_emplaceI12DeleteActionNS0_IS2_EEEEE10deallocateB8ue170006EPS4_m, symObjAddr: 0x6274, symBinAddr: 0x100019110, symSize: 0x44 }
  - { offsetInCU: 0x18977, offset: 0x903C5, size: 0x8, addend: 0x0, symName: __ZNSt3__110shared_ptrI12DeleteActionEC1B8ue170006Ev, symObjAddr: 0x62B8, symBinAddr: 0x100019154, symSize: 0x2C }
  - { offsetInCU: 0x1899F, offset: 0x903ED, size: 0x8, addend: 0x0, symName: __ZNSt3__110shared_ptrI12DeleteActionE18__enable_weak_thisB8ue170006Ez, symObjAddr: 0x62E4, symBinAddr: 0x100019180, symSize: 0x10 }
  - { offsetInCU: 0x189C5, offset: 0x90413, size: 0x8, addend: 0x0, symName: __ZNSt3__110shared_ptrI12DeleteActionEC2B8ue170006Ev, symObjAddr: 0x62F4, symBinAddr: 0x100019190, symSize: 0x1C }
  - { offsetInCU: 0x189EE, offset: 0x9043C, size: 0x8, addend: 0x0, symName: __ZNSt3__120__shared_ptr_emplaceI12DeleteActionNS_9allocatorIS1_EEE8_Storage10__get_elemB8ue170006Ev, symObjAddr: 0x6310, symBinAddr: 0x1000191AC, symSize: 0x3C }
  - { offsetInCU: 0x18A43, offset: 0x90491, size: 0x8, addend: 0x0, symName: __ZNSt3__117__compressed_pairINS_9allocatorI12DeleteActionEES2_E17__get_second_baseB8ue170006EPS4_, symObjAddr: 0x634C, symBinAddr: 0x1000191E8, symSize: 0x14 }
  - { offsetInCU: 0x18A66, offset: 0x904B4, size: 0x8, addend: 0x0, symName: __ZNSt3__118__allocation_guardINS_9allocatorINS_20__shared_ptr_emplaceI12DeleteActionNS1_IS3_EEEEEEED2B8ue170006Ev, symObjAddr: 0x6360, symBinAddr: 0x1000191FC, symSize: 0x2C }
  - { offsetInCU: 0x18A8E, offset: 0x904DC, size: 0x8, addend: 0x0, symName: __ZNSt3__118__allocation_guardINS_9allocatorINS_20__shared_ptr_emplaceI12DeleteActionNS1_IS3_EEEEEEE9__destroyB8ue170006Ev, symObjAddr: 0x638C, symBinAddr: 0x100019228, symSize: 0x4C }
  - { offsetInCU: 0x18AB3, offset: 0x90501, size: 0x8, addend: 0x0, symName: __ZNSt3__19allocatorI12DeleteActionEC2B8ue170006Ev, symObjAddr: 0x63D8, symBinAddr: 0x100019274, symSize: 0x2C }
  - { offsetInCU: 0x18ADB, offset: 0x90529, size: 0x8, addend: 0x0, symName: __ZNSt3__116__non_trivial_ifILb1ENS_9allocatorI12DeleteActionEEEC2B8ue170006Ev, symObjAddr: 0x6404, symBinAddr: 0x1000192A0, symSize: 0x14 }
  - { offsetInCU: 0x18B04, offset: 0x90552, size: 0x8, addend: 0x0, symName: __ZNSt3__110shared_ptrI12DeleteActionED2B8ue170006Ev, symObjAddr: 0x6418, symBinAddr: 0x1000192B4, symSize: 0x54 }
  - { offsetInCU: 0x18B2C, offset: 0x9057A, size: 0x8, addend: 0x0, symName: __ZNSt3__19allocatorI24ParagraphSplittingActionEC1B8ue170006Ev, symObjAddr: 0x6504, symBinAddr: 0x1000193A0, symSize: 0x2C }
  - { offsetInCU: 0x18B81, offset: 0x905CF, size: 0x8, addend: 0x0, symName: __ZNSt3__118__allocation_guardINS_9allocatorINS_20__shared_ptr_emplaceI24ParagraphSplittingActionNS1_IS3_EEEEEEEC1B8ue170006IS4_EET_m, symObjAddr: 0x6530, symBinAddr: 0x1000193CC, symSize: 0x34 }
  - { offsetInCU: 0x18BCE, offset: 0x9061C, size: 0x8, addend: 0x0, symName: __ZNKSt3__118__allocation_guardINS_9allocatorINS_20__shared_ptr_emplaceI24ParagraphSplittingActionNS1_IS3_EEEEEEE5__getB8ue170006Ev, symObjAddr: 0x6564, symBinAddr: 0x100019400, symSize: 0x18 }
  - { offsetInCU: 0x18BF8, offset: 0x90646, size: 0x8, addend: 0x0, symName: __ZNSt3__120__shared_ptr_emplaceI24ParagraphSplittingActionNS_9allocatorIS1_EEEC1B8ue170006IJ8PositionEEES3_DpOT_, symObjAddr: 0x657C, symBinAddr: 0x100019418, symSize: 0x34 }
  - { offsetInCU: 0x18C4B, offset: 0x90699, size: 0x8, addend: 0x0, symName: __ZNSt3__118__allocation_guardINS_9allocatorINS_20__shared_ptr_emplaceI24ParagraphSplittingActionNS1_IS3_EEEEEEE13__release_ptrB8ue170006Ev, symObjAddr: 0x65B0, symBinAddr: 0x10001944C, symSize: 0x24 }
  - { offsetInCU: 0x18C7E, offset: 0x906CC, size: 0x8, addend: 0x0, symName: __ZNSt3__110shared_ptrI24ParagraphSplittingActionE27__create_with_control_blockB8ue170006IS1_NS_20__shared_ptr_emplaceIS1_NS_9allocatorIS1_EEEEEES2_PT_PT0_, symObjAddr: 0x65D4, symBinAddr: 0x100019470, symSize: 0xA4 }
  - { offsetInCU: 0x18CD6, offset: 0x90724, size: 0x8, addend: 0x0, symName: __ZNSt3__120__shared_ptr_emplaceI24ParagraphSplittingActionNS_9allocatorIS1_EEE10__get_elemB8ue170006Ev, symObjAddr: 0x6678, symBinAddr: 0x100019514, symSize: 0x28 }
  - { offsetInCU: 0x18CFB, offset: 0x90749, size: 0x8, addend: 0x0, symName: __ZNSt3__118__allocation_guardINS_9allocatorINS_20__shared_ptr_emplaceI24ParagraphSplittingActionNS1_IS3_EEEEEEED1B8ue170006Ev, symObjAddr: 0x66A0, symBinAddr: 0x10001953C, symSize: 0x2C }
  - { offsetInCU: 0x18D23, offset: 0x90771, size: 0x8, addend: 0x0, symName: __ZNSt3__118__allocation_guardINS_9allocatorINS_20__shared_ptr_emplaceI24ParagraphSplittingActionNS1_IS3_EEEEEEEC2B8ue170006IS4_EET_m, symObjAddr: 0x66CC, symBinAddr: 0x100019568, symSize: 0x50 }
  - { offsetInCU: 0x18D70, offset: 0x907BE, size: 0x8, addend: 0x0, symName: __ZNSt3__19allocatorINS_20__shared_ptr_emplaceI24ParagraphSplittingActionNS0_IS2_EEEEEC1B8ue170006IS2_EERKNS0_IT_EE, symObjAddr: 0x671C, symBinAddr: 0x1000195B8, symSize: 0x34 }
  - { offsetInCU: 0x18DAC, offset: 0x907FA, size: 0x8, addend: 0x0, symName: __ZNSt3__116allocator_traitsINS_9allocatorINS_20__shared_ptr_emplaceI24ParagraphSplittingActionNS1_IS3_EEEEEEE8allocateB8ue170006ERS6_m, symObjAddr: 0x6750, symBinAddr: 0x1000195EC, symSize: 0x2C }
  - { offsetInCU: 0x18DE1, offset: 0x9082F, size: 0x8, addend: 0x0, symName: __ZNSt3__19allocatorINS_20__shared_ptr_emplaceI24ParagraphSplittingActionNS0_IS2_EEEEEC2B8ue170006IS2_EERKNS0_IT_EE, symObjAddr: 0x677C, symBinAddr: 0x100019618, symSize: 0x30 }
  - { offsetInCU: 0x18E1D, offset: 0x9086B, size: 0x8, addend: 0x0, symName: __ZNSt3__116__non_trivial_ifILb1ENS_9allocatorINS_20__shared_ptr_emplaceI24ParagraphSplittingActionNS1_IS3_EEEEEEEC2B8ue170006Ev, symObjAddr: 0x67AC, symBinAddr: 0x100019648, symSize: 0x14 }
  - { offsetInCU: 0x18E46, offset: 0x90894, size: 0x8, addend: 0x0, symName: __ZNSt3__19allocatorINS_20__shared_ptr_emplaceI24ParagraphSplittingActionNS0_IS2_EEEEE8allocateB8ue170006Em, symObjAddr: 0x67C0, symBinAddr: 0x10001965C, symSize: 0x5C }
  - { offsetInCU: 0x18E83, offset: 0x908D1, size: 0x8, addend: 0x0, symName: __ZNSt3__116allocator_traitsINS_9allocatorINS_20__shared_ptr_emplaceI24ParagraphSplittingActionNS1_IS3_EEEEEEE8max_sizeB8ue170006IS6_vvEEmRKS6_, symObjAddr: 0x681C, symBinAddr: 0x1000196B8, symSize: 0x28 }
  - { offsetInCU: 0x18EB1, offset: 0x908FF, size: 0x8, addend: 0x0, symName: __ZNSt3__120__shared_ptr_emplaceI24ParagraphSplittingActionNS_9allocatorIS1_EEEC2B8ue170006IJ8PositionEEES3_DpOT_, symObjAddr: 0x6844, symBinAddr: 0x1000196E0, symSize: 0xC8 }
  - { offsetInCU: 0x18F26, offset: 0x90974, size: 0x8, addend: 0x0, symName: __ZNSt3__120__shared_ptr_emplaceI24ParagraphSplittingActionNS_9allocatorIS1_EEE8_StorageC1B8ue170006EOS3_, symObjAddr: 0x690C, symBinAddr: 0x1000197A8, symSize: 0x34 }
  - { offsetInCU: 0x18F5E, offset: 0x909AC, size: 0x8, addend: 0x0, symName: __ZNSt3__120__shared_ptr_emplaceI24ParagraphSplittingActionNS_9allocatorIS1_EEE11__get_allocB8ue170006Ev, symObjAddr: 0x6940, symBinAddr: 0x1000197DC, symSize: 0x28 }
  - { offsetInCU: 0x18F88, offset: 0x909D6, size: 0x8, addend: 0x0, symName: __ZNSt3__116allocator_traitsINS_9allocatorI24ParagraphSplittingActionEEE9constructB8ue170006IS2_J8PositionEvvEEvRS3_PT_DpOT0_, symObjAddr: 0x6968, symBinAddr: 0x100019804, symSize: 0x30 }
  - { offsetInCU: 0x18FE1, offset: 0x90A2F, size: 0x8, addend: 0x0, symName: __ZNSt3__120__shared_ptr_emplaceI24ParagraphSplittingActionNS_9allocatorIS1_EEE8_StorageD1B8ue170006Ev, symObjAddr: 0x6998, symBinAddr: 0x100019834, symSize: 0x2C }
  - { offsetInCU: 0x19009, offset: 0x90A57, size: 0x8, addend: 0x0, symName: __ZNSt3__120__shared_ptr_emplaceI24ParagraphSplittingActionNS_9allocatorIS1_EEED1Ev, symObjAddr: 0x69C4, symBinAddr: 0x100019860, symSize: 0x2C }
  - { offsetInCU: 0x19035, offset: 0x90A83, size: 0x8, addend: 0x0, symName: __ZNSt3__120__shared_ptr_emplaceI24ParagraphSplittingActionNS_9allocatorIS1_EEED0Ev, symObjAddr: 0x69F0, symBinAddr: 0x10001988C, symSize: 0x30 }
  - { offsetInCU: 0x19061, offset: 0x90AAF, size: 0x8, addend: 0x0, symName: __ZNSt3__120__shared_ptr_emplaceI24ParagraphSplittingActionNS_9allocatorIS1_EEE16__on_zero_sharedEv, symObjAddr: 0x6A20, symBinAddr: 0x1000198BC, symSize: 0x44 }
  - { offsetInCU: 0x190A8, offset: 0x90AF6, size: 0x8, addend: 0x0, symName: __ZNSt3__120__shared_ptr_emplaceI24ParagraphSplittingActionNS_9allocatorIS1_EEE21__on_zero_shared_weakEv, symObjAddr: 0x6A64, symBinAddr: 0x100019900, symSize: 0x5C }
  - { offsetInCU: 0x190E9, offset: 0x90B37, size: 0x8, addend: 0x0, symName: __ZNSt3__120__shared_ptr_emplaceI24ParagraphSplittingActionNS_9allocatorIS1_EEE8_StorageC2B8ue170006EOS3_, symObjAddr: 0x6AC0, symBinAddr: 0x10001995C, symSize: 0x30 }
  - { offsetInCU: 0x19121, offset: 0x90B6F, size: 0x8, addend: 0x0, symName: __ZNSt3__120__shared_ptr_emplaceI24ParagraphSplittingActionNS_9allocatorIS1_EEE8_Storage11__get_allocB8ue170006Ev, symObjAddr: 0x6AF0, symBinAddr: 0x10001998C, symSize: 0x3C }
  - { offsetInCU: 0x19176, offset: 0x90BC4, size: 0x8, addend: 0x0, symName: __ZNSt3__117__compressed_pairINS_9allocatorI24ParagraphSplittingActionEES2_E16__get_first_baseB8ue170006EPS4_, symObjAddr: 0x6B2C, symBinAddr: 0x1000199C8, symSize: 0x14 }
  - { offsetInCU: 0x19199, offset: 0x90BE7, size: 0x8, addend: 0x0, symName: __ZNSt3__120__shared_ptr_emplaceI24ParagraphSplittingActionNS_9allocatorIS1_EEE8_StorageD2B8ue170006Ev, symObjAddr: 0x6B88, symBinAddr: 0x100019A24, symSize: 0x2C }
  - { offsetInCU: 0x191C1, offset: 0x90C0F, size: 0x8, addend: 0x0, symName: __ZNSt3__120__shared_ptr_emplaceI24ParagraphSplittingActionNS_9allocatorIS1_EEED2Ev, symObjAddr: 0x6BB4, symBinAddr: 0x100019A50, symSize: 0x48 }
  - { offsetInCU: 0x191ED, offset: 0x90C3B, size: 0x8, addend: 0x0, symName: __ZNSt3__116allocator_traitsINS_9allocatorI24ParagraphSplittingActionEEE7destroyB8ue170006IS2_vvEEvRS3_PT_, symObjAddr: 0x6BFC, symBinAddr: 0x100019A98, symSize: 0x28 }
  - { offsetInCU: 0x1922B, offset: 0x90C79, size: 0x8, addend: 0x0, symName: __ZNSt3__116allocator_traitsINS_9allocatorINS_20__shared_ptr_emplaceI24ParagraphSplittingActionNS1_IS3_EEEEEEE10deallocateB8ue170006ERS6_PS5_m, symObjAddr: 0x6C74, symBinAddr: 0x100019B10, symSize: 0x34 }
  - { offsetInCU: 0x19275, offset: 0x90CC3, size: 0x8, addend: 0x0, symName: __ZNSt3__114pointer_traitsIPNS_20__shared_ptr_emplaceI24ParagraphSplittingActionNS_9allocatorIS2_EEEEE10pointer_toB8ue170006ERS5_, symObjAddr: 0x6CA8, symBinAddr: 0x100019B44, symSize: 0x14 }
  - { offsetInCU: 0x19298, offset: 0x90CE6, size: 0x8, addend: 0x0, symName: __ZNSt3__19allocatorINS_20__shared_ptr_emplaceI24ParagraphSplittingActionNS0_IS2_EEEEE10deallocateB8ue170006EPS4_m, symObjAddr: 0x6CBC, symBinAddr: 0x100019B58, symSize: 0x44 }
  - { offsetInCU: 0x192D9, offset: 0x90D27, size: 0x8, addend: 0x0, symName: __ZNSt3__110shared_ptrI24ParagraphSplittingActionEC1B8ue170006Ev, symObjAddr: 0x6D00, symBinAddr: 0x100019B9C, symSize: 0x2C }
  - { offsetInCU: 0x19301, offset: 0x90D4F, size: 0x8, addend: 0x0, symName: __ZNSt3__110shared_ptrI24ParagraphSplittingActionE18__enable_weak_thisB8ue170006Ez, symObjAddr: 0x6D2C, symBinAddr: 0x100019BC8, symSize: 0x10 }
  - { offsetInCU: 0x19327, offset: 0x90D75, size: 0x8, addend: 0x0, symName: __ZNSt3__110shared_ptrI24ParagraphSplittingActionEC2B8ue170006Ev, symObjAddr: 0x6D3C, symBinAddr: 0x100019BD8, symSize: 0x1C }
  - { offsetInCU: 0x19350, offset: 0x90D9E, size: 0x8, addend: 0x0, symName: __ZNSt3__120__shared_ptr_emplaceI24ParagraphSplittingActionNS_9allocatorIS1_EEE8_Storage10__get_elemB8ue170006Ev, symObjAddr: 0x6D58, symBinAddr: 0x100019BF4, symSize: 0x3C }
  - { offsetInCU: 0x193A5, offset: 0x90DF3, size: 0x8, addend: 0x0, symName: __ZNSt3__117__compressed_pairINS_9allocatorI24ParagraphSplittingActionEES2_E17__get_second_baseB8ue170006EPS4_, symObjAddr: 0x6D94, symBinAddr: 0x100019C30, symSize: 0x14 }
  - { offsetInCU: 0x193C8, offset: 0x90E16, size: 0x8, addend: 0x0, symName: __ZNSt3__118__allocation_guardINS_9allocatorINS_20__shared_ptr_emplaceI24ParagraphSplittingActionNS1_IS3_EEEEEEED2B8ue170006Ev, symObjAddr: 0x6DA8, symBinAddr: 0x100019C44, symSize: 0x2C }
  - { offsetInCU: 0x193F0, offset: 0x90E3E, size: 0x8, addend: 0x0, symName: __ZNSt3__118__allocation_guardINS_9allocatorINS_20__shared_ptr_emplaceI24ParagraphSplittingActionNS1_IS3_EEEEEEE9__destroyB8ue170006Ev, symObjAddr: 0x6DD4, symBinAddr: 0x100019C70, symSize: 0x4C }
  - { offsetInCU: 0x19415, offset: 0x90E63, size: 0x8, addend: 0x0, symName: __ZNSt3__19allocatorI24ParagraphSplittingActionEC2B8ue170006Ev, symObjAddr: 0x6E20, symBinAddr: 0x100019CBC, symSize: 0x2C }
  - { offsetInCU: 0x1943D, offset: 0x90E8B, size: 0x8, addend: 0x0, symName: __ZNSt3__116__non_trivial_ifILb1ENS_9allocatorI24ParagraphSplittingActionEEEC2B8ue170006Ev, symObjAddr: 0x6E4C, symBinAddr: 0x100019CE8, symSize: 0x14 }
  - { offsetInCU: 0x19466, offset: 0x90EB4, size: 0x8, addend: 0x0, symName: __ZNSt3__110shared_ptrI24ParagraphSplittingActionED2B8ue170006Ev, symObjAddr: 0x6E60, symBinAddr: 0x100019CFC, symSize: 0x54 }
  - { offsetInCU: 0x1948E, offset: 0x90EDC, size: 0x8, addend: 0x0, symName: __ZNSt3__110shared_ptrI6ActionEC2B8ue170006I24ParagraphSplittingActionvEEONS0_IT_EE, symObjAddr: 0x7928, symBinAddr: 0x100019D50, symSize: 0x40 }
  - { offsetInCU: 0x194D2, offset: 0x90F20, size: 0x8, addend: 0x0, symName: __ZNSt3__19allocatorI14CompoundActionEC1B8ue170006Ev, symObjAddr: 0x7A40, symBinAddr: 0x100019E28, symSize: 0x2C }
  - { offsetInCU: 0x19527, offset: 0x90F75, size: 0x8, addend: 0x0, symName: __ZNSt3__118__allocation_guardINS_9allocatorINS_20__shared_ptr_emplaceI14CompoundActionNS1_IS3_EEEEEEEC1B8ue170006IS4_EET_m, symObjAddr: 0x7A6C, symBinAddr: 0x100019E54, symSize: 0x34 }
  - { offsetInCU: 0x19574, offset: 0x90FC2, size: 0x8, addend: 0x0, symName: __ZNKSt3__118__allocation_guardINS_9allocatorINS_20__shared_ptr_emplaceI14CompoundActionNS1_IS3_EEEEEEE5__getB8ue170006Ev, symObjAddr: 0x7AA0, symBinAddr: 0x100019E88, symSize: 0x18 }
  - { offsetInCU: 0x19599, offset: 0x90FE7, size: 0x8, addend: 0x0, symName: __ZNSt3__120__shared_ptr_emplaceI14CompoundActionNS_9allocatorIS1_EEEC1B8ue170006IJNS_6vectorINS_10shared_ptrI6ActionEENS2_IS9_EEEEEEES3_DpOT_, symObjAddr: 0x7AB8, symBinAddr: 0x100019EA0, symSize: 0x34 }
  - { offsetInCU: 0x195EC, offset: 0x9103A, size: 0x8, addend: 0x0, symName: __ZNSt3__118__allocation_guardINS_9allocatorINS_20__shared_ptr_emplaceI14CompoundActionNS1_IS3_EEEEEEE13__release_ptrB8ue170006Ev, symObjAddr: 0x7AEC, symBinAddr: 0x100019ED4, symSize: 0x24 }
  - { offsetInCU: 0x1961F, offset: 0x9106D, size: 0x8, addend: 0x0, symName: __ZNSt3__110shared_ptrI14CompoundActionE27__create_with_control_blockB8ue170006IS1_NS_20__shared_ptr_emplaceIS1_NS_9allocatorIS1_EEEEEES2_PT_PT0_, symObjAddr: 0x7B10, symBinAddr: 0x100019EF8, symSize: 0xA4 }
  - { offsetInCU: 0x19677, offset: 0x910C5, size: 0x8, addend: 0x0, symName: __ZNSt3__120__shared_ptr_emplaceI14CompoundActionNS_9allocatorIS1_EEE10__get_elemB8ue170006Ev, symObjAddr: 0x7BB4, symBinAddr: 0x100019F9C, symSize: 0x28 }
  - { offsetInCU: 0x1969C, offset: 0x910EA, size: 0x8, addend: 0x0, symName: __ZNSt3__118__allocation_guardINS_9allocatorINS_20__shared_ptr_emplaceI14CompoundActionNS1_IS3_EEEEEEED1B8ue170006Ev, symObjAddr: 0x7BDC, symBinAddr: 0x100019FC4, symSize: 0x2C }
  - { offsetInCU: 0x196C4, offset: 0x91112, size: 0x8, addend: 0x0, symName: __ZNSt3__118__allocation_guardINS_9allocatorINS_20__shared_ptr_emplaceI14CompoundActionNS1_IS3_EEEEEEEC2B8ue170006IS4_EET_m, symObjAddr: 0x7C08, symBinAddr: 0x100019FF0, symSize: 0x50 }
  - { offsetInCU: 0x19711, offset: 0x9115F, size: 0x8, addend: 0x0, symName: __ZNSt3__19allocatorINS_20__shared_ptr_emplaceI14CompoundActionNS0_IS2_EEEEEC1B8ue170006IS2_EERKNS0_IT_EE, symObjAddr: 0x7C58, symBinAddr: 0x10001A040, symSize: 0x34 }
  - { offsetInCU: 0x1974D, offset: 0x9119B, size: 0x8, addend: 0x0, symName: __ZNSt3__116allocator_traitsINS_9allocatorINS_20__shared_ptr_emplaceI14CompoundActionNS1_IS3_EEEEEEE8allocateB8ue170006ERS6_m, symObjAddr: 0x7C8C, symBinAddr: 0x10001A074, symSize: 0x2C }
  - { offsetInCU: 0x19782, offset: 0x911D0, size: 0x8, addend: 0x0, symName: __ZNSt3__19allocatorINS_20__shared_ptr_emplaceI14CompoundActionNS0_IS2_EEEEEC2B8ue170006IS2_EERKNS0_IT_EE, symObjAddr: 0x7CB8, symBinAddr: 0x10001A0A0, symSize: 0x30 }
  - { offsetInCU: 0x197BE, offset: 0x9120C, size: 0x8, addend: 0x0, symName: __ZNSt3__116__non_trivial_ifILb1ENS_9allocatorINS_20__shared_ptr_emplaceI14CompoundActionNS1_IS3_EEEEEEEC2B8ue170006Ev, symObjAddr: 0x7CE8, symBinAddr: 0x10001A0D0, symSize: 0x14 }
  - { offsetInCU: 0x197E7, offset: 0x91235, size: 0x8, addend: 0x0, symName: __ZNSt3__19allocatorINS_20__shared_ptr_emplaceI14CompoundActionNS0_IS2_EEEEE8allocateB8ue170006Em, symObjAddr: 0x7CFC, symBinAddr: 0x10001A0E4, symSize: 0x5C }
  - { offsetInCU: 0x19824, offset: 0x91272, size: 0x8, addend: 0x0, symName: __ZNSt3__116allocator_traitsINS_9allocatorINS_20__shared_ptr_emplaceI14CompoundActionNS1_IS3_EEEEEEE8max_sizeB8ue170006IS6_vvEEmRKS6_, symObjAddr: 0x7D58, symBinAddr: 0x10001A140, symSize: 0x28 }
  - { offsetInCU: 0x19852, offset: 0x912A0, size: 0x8, addend: 0x0, symName: __ZNSt3__120__shared_ptr_emplaceI14CompoundActionNS_9allocatorIS1_EEEC2B8ue170006IJNS_6vectorINS_10shared_ptrI6ActionEENS2_IS9_EEEEEEES3_DpOT_, symObjAddr: 0x7D80, symBinAddr: 0x10001A168, symSize: 0xC8 }
  - { offsetInCU: 0x198C7, offset: 0x91315, size: 0x8, addend: 0x0, symName: __ZNSt3__120__shared_ptr_emplaceI14CompoundActionNS_9allocatorIS1_EEE8_StorageC1B8ue170006EOS3_, symObjAddr: 0x7E48, symBinAddr: 0x10001A230, symSize: 0x34 }
  - { offsetInCU: 0x198FF, offset: 0x9134D, size: 0x8, addend: 0x0, symName: __ZNSt3__120__shared_ptr_emplaceI14CompoundActionNS_9allocatorIS1_EEE11__get_allocB8ue170006Ev, symObjAddr: 0x7E7C, symBinAddr: 0x10001A264, symSize: 0x28 }
  - { offsetInCU: 0x19929, offset: 0x91377, size: 0x8, addend: 0x0, symName: __ZNSt3__116allocator_traitsINS_9allocatorI14CompoundActionEEE9constructB8ue170006IS2_JNS_6vectorINS_10shared_ptrI6ActionEENS1_IS9_EEEEEvvEEvRS3_PT_DpOT0_, symObjAddr: 0x7EA4, symBinAddr: 0x10001A28C, symSize: 0x30 }
  - { offsetInCU: 0x19982, offset: 0x913D0, size: 0x8, addend: 0x0, symName: __ZNSt3__120__shared_ptr_emplaceI14CompoundActionNS_9allocatorIS1_EEE8_StorageD1B8ue170006Ev, symObjAddr: 0x7ED4, symBinAddr: 0x10001A2BC, symSize: 0x2C }
  - { offsetInCU: 0x199AA, offset: 0x913F8, size: 0x8, addend: 0x0, symName: __ZNSt3__120__shared_ptr_emplaceI14CompoundActionNS_9allocatorIS1_EEED1Ev, symObjAddr: 0x7F00, symBinAddr: 0x10001A2E8, symSize: 0x2C }
  - { offsetInCU: 0x199D6, offset: 0x91424, size: 0x8, addend: 0x0, symName: __ZNSt3__120__shared_ptr_emplaceI14CompoundActionNS_9allocatorIS1_EEED0Ev, symObjAddr: 0x7F2C, symBinAddr: 0x10001A314, symSize: 0x30 }
  - { offsetInCU: 0x19A02, offset: 0x91450, size: 0x8, addend: 0x0, symName: __ZNSt3__120__shared_ptr_emplaceI14CompoundActionNS_9allocatorIS1_EEE16__on_zero_sharedEv, symObjAddr: 0x7F5C, symBinAddr: 0x10001A344, symSize: 0x44 }
  - { offsetInCU: 0x19A49, offset: 0x91497, size: 0x8, addend: 0x0, symName: __ZNSt3__120__shared_ptr_emplaceI14CompoundActionNS_9allocatorIS1_EEE21__on_zero_shared_weakEv, symObjAddr: 0x7FA0, symBinAddr: 0x10001A388, symSize: 0x5C }
  - { offsetInCU: 0x19A8A, offset: 0x914D8, size: 0x8, addend: 0x0, symName: __ZNSt3__120__shared_ptr_emplaceI14CompoundActionNS_9allocatorIS1_EEE8_StorageC2B8ue170006EOS3_, symObjAddr: 0x7FFC, symBinAddr: 0x10001A3E4, symSize: 0x30 }
  - { offsetInCU: 0x19AC2, offset: 0x91510, size: 0x8, addend: 0x0, symName: __ZNSt3__120__shared_ptr_emplaceI14CompoundActionNS_9allocatorIS1_EEE8_Storage11__get_allocB8ue170006Ev, symObjAddr: 0x802C, symBinAddr: 0x10001A414, symSize: 0x3C }
  - { offsetInCU: 0x19B17, offset: 0x91565, size: 0x8, addend: 0x0, symName: __ZNSt3__117__compressed_pairINS_9allocatorI14CompoundActionEES2_E16__get_first_baseB8ue170006EPS4_, symObjAddr: 0x8068, symBinAddr: 0x10001A450, symSize: 0x14 }
  - { offsetInCU: 0x19B3A, offset: 0x91588, size: 0x8, addend: 0x0, symName: __ZNSt3__16vectorINS_10shared_ptrI6ActionEENS_9allocatorIS3_EEEC1B8ue170006EOS6_, symObjAddr: 0x80F8, symBinAddr: 0x10001A4E0, symSize: 0x34 }
  - { offsetInCU: 0x19B75, offset: 0x915C3, size: 0x8, addend: 0x0, symName: __ZNSt3__16vectorINS_10shared_ptrI6ActionEENS_9allocatorIS3_EEEC2B8ue170006EOS6_, symObjAddr: 0x812C, symBinAddr: 0x10001A514, symSize: 0xC4 }
  - { offsetInCU: 0x19BB5, offset: 0x91603, size: 0x8, addend: 0x0, symName: __ZNSt3__117__compressed_pairIPNS_10shared_ptrI6ActionEENS_9allocatorIS3_EEEC1B8ue170006IDnS6_EEOT_OT0_, symObjAddr: 0x81F0, symBinAddr: 0x10001A5D8, symSize: 0x3C }
  - { offsetInCU: 0x19C0B, offset: 0x91659, size: 0x8, addend: 0x0, symName: __ZNSt3__117__compressed_pairIPNS_10shared_ptrI6ActionEENS_9allocatorIS3_EEEC2B8ue170006IDnS6_EEOT_OT0_, symObjAddr: 0x822C, symBinAddr: 0x10001A614, symSize: 0x44 }
  - { offsetInCU: 0x19C61, offset: 0x916AF, size: 0x8, addend: 0x0, symName: __ZNSt3__122__compressed_pair_elemINS_9allocatorINS_10shared_ptrI6ActionEEEELi1ELb1EEC2B8ue170006IS5_vEEOT_, symObjAddr: 0x8270, symBinAddr: 0x10001A658, symSize: 0x18 }
  - { offsetInCU: 0x19CA3, offset: 0x916F1, size: 0x8, addend: 0x0, symName: __ZNSt3__120__shared_ptr_emplaceI14CompoundActionNS_9allocatorIS1_EEE8_StorageD2B8ue170006Ev, symObjAddr: 0x8288, symBinAddr: 0x10001A670, symSize: 0x2C }
  - { offsetInCU: 0x19CCB, offset: 0x91719, size: 0x8, addend: 0x0, symName: __ZNSt3__120__shared_ptr_emplaceI14CompoundActionNS_9allocatorIS1_EEED2Ev, symObjAddr: 0x82B4, symBinAddr: 0x10001A69C, symSize: 0x48 }
  - { offsetInCU: 0x19CF7, offset: 0x91745, size: 0x8, addend: 0x0, symName: __ZNSt3__116allocator_traitsINS_9allocatorI14CompoundActionEEE7destroyB8ue170006IS2_vvEEvRS3_PT_, symObjAddr: 0x82FC, symBinAddr: 0x10001A6E4, symSize: 0x28 }
  - { offsetInCU: 0x19D35, offset: 0x91783, size: 0x8, addend: 0x0, symName: __ZNSt3__116allocator_traitsINS_9allocatorINS_20__shared_ptr_emplaceI14CompoundActionNS1_IS3_EEEEEEE10deallocateB8ue170006ERS6_PS5_m, symObjAddr: 0x8374, symBinAddr: 0x10001A75C, symSize: 0x34 }
  - { offsetInCU: 0x19D7F, offset: 0x917CD, size: 0x8, addend: 0x0, symName: __ZNSt3__114pointer_traitsIPNS_20__shared_ptr_emplaceI14CompoundActionNS_9allocatorIS2_EEEEE10pointer_toB8ue170006ERS5_, symObjAddr: 0x83A8, symBinAddr: 0x10001A790, symSize: 0x14 }
  - { offsetInCU: 0x19DA2, offset: 0x917F0, size: 0x8, addend: 0x0, symName: __ZNSt3__19allocatorINS_20__shared_ptr_emplaceI14CompoundActionNS0_IS2_EEEEE10deallocateB8ue170006EPS4_m, symObjAddr: 0x83BC, symBinAddr: 0x10001A7A4, symSize: 0x44 }
  - { offsetInCU: 0x19DE3, offset: 0x91831, size: 0x8, addend: 0x0, symName: __ZNSt3__110shared_ptrI14CompoundActionEC1B8ue170006Ev, symObjAddr: 0x8400, symBinAddr: 0x10001A7E8, symSize: 0x2C }
  - { offsetInCU: 0x19E0B, offset: 0x91859, size: 0x8, addend: 0x0, symName: __ZNSt3__110shared_ptrI14CompoundActionE18__enable_weak_thisB8ue170006Ez, symObjAddr: 0x842C, symBinAddr: 0x10001A814, symSize: 0x10 }
  - { offsetInCU: 0x19E31, offset: 0x9187F, size: 0x8, addend: 0x0, symName: __ZNSt3__110shared_ptrI14CompoundActionEC2B8ue170006Ev, symObjAddr: 0x843C, symBinAddr: 0x10001A824, symSize: 0x1C }
  - { offsetInCU: 0x19E5A, offset: 0x918A8, size: 0x8, addend: 0x0, symName: __ZNSt3__120__shared_ptr_emplaceI14CompoundActionNS_9allocatorIS1_EEE8_Storage10__get_elemB8ue170006Ev, symObjAddr: 0x8458, symBinAddr: 0x10001A840, symSize: 0x3C }
  - { offsetInCU: 0x19EAF, offset: 0x918FD, size: 0x8, addend: 0x0, symName: __ZNSt3__117__compressed_pairINS_9allocatorI14CompoundActionEES2_E17__get_second_baseB8ue170006EPS4_, symObjAddr: 0x8494, symBinAddr: 0x10001A87C, symSize: 0x14 }
  - { offsetInCU: 0x19ED2, offset: 0x91920, size: 0x8, addend: 0x0, symName: __ZNSt3__118__allocation_guardINS_9allocatorINS_20__shared_ptr_emplaceI14CompoundActionNS1_IS3_EEEEEEED2B8ue170006Ev, symObjAddr: 0x84A8, symBinAddr: 0x10001A890, symSize: 0x2C }
  - { offsetInCU: 0x19EFA, offset: 0x91948, size: 0x8, addend: 0x0, symName: __ZNSt3__118__allocation_guardINS_9allocatorINS_20__shared_ptr_emplaceI14CompoundActionNS1_IS3_EEEEEEE9__destroyB8ue170006Ev, symObjAddr: 0x84D4, symBinAddr: 0x10001A8BC, symSize: 0x4C }
  - { offsetInCU: 0x19F1F, offset: 0x9196D, size: 0x8, addend: 0x0, symName: __ZNSt3__19allocatorI14CompoundActionEC2B8ue170006Ev, symObjAddr: 0x8520, symBinAddr: 0x10001A908, symSize: 0x2C }
  - { offsetInCU: 0x19F47, offset: 0x91995, size: 0x8, addend: 0x0, symName: __ZNSt3__116__non_trivial_ifILb1ENS_9allocatorI14CompoundActionEEEC2B8ue170006Ev, symObjAddr: 0x854C, symBinAddr: 0x10001A934, symSize: 0x14 }
  - { offsetInCU: 0x19F70, offset: 0x919BE, size: 0x8, addend: 0x0, symName: __ZNSt3__110shared_ptrI14CompoundActionED2B8ue170006Ev, symObjAddr: 0x8560, symBinAddr: 0x10001A948, symSize: 0x54 }
  - { offsetInCU: 0x19FA2, offset: 0x919F0, size: 0x8, addend: 0x0, symName: __ZNSt3__120__shared_ptr_emplaceI12IndentActionNS_9allocatorIS1_EEEC1B8ue170006IJRiiEEES3_DpOT_, symObjAddr: 0x86CC, symBinAddr: 0x10001AA3C, symSize: 0x3C }
  - { offsetInCU: 0x1A00A, offset: 0x91A58, size: 0x8, addend: 0x0, symName: __ZNSt3__120__shared_ptr_emplaceI12IndentActionNS_9allocatorIS1_EEEC2B8ue170006IJRiiEEES3_DpOT_, symObjAddr: 0x899C, symBinAddr: 0x10001AA78, symSize: 0xD0 }
  - { offsetInCU: 0x1A099, offset: 0x91AE7, size: 0x8, addend: 0x0, symName: __ZNSt3__116allocator_traitsINS_9allocatorI12IndentActionEEE9constructB8ue170006IS2_JRiiEvvEEvRS3_PT_DpOT0_, symObjAddr: 0x8AC8, symBinAddr: 0x10001AB48, symSize: 0x38 }
  - { offsetInCU: 0x1A107, offset: 0x91B55, size: 0x8, addend: 0x0, symName: __ZNSt3__19allocatorI12InsertActionEC1B8ue170006Ev, symObjAddr: 0x9B2C, symBinAddr: 0x10001AC6C, symSize: 0x2C }
  - { offsetInCU: 0x1A15C, offset: 0x91BAA, size: 0x8, addend: 0x0, symName: __ZNSt3__118__allocation_guardINS_9allocatorINS_20__shared_ptr_emplaceI12InsertActionNS1_IS3_EEEEEEEC1B8ue170006IS4_EET_m, symObjAddr: 0x9B58, symBinAddr: 0x10001AC98, symSize: 0x34 }
  - { offsetInCU: 0x1A1A9, offset: 0x91BF7, size: 0x8, addend: 0x0, symName: __ZNKSt3__118__allocation_guardINS_9allocatorINS_20__shared_ptr_emplaceI12InsertActionNS1_IS3_EEEEEEE5__getB8ue170006Ev, symObjAddr: 0x9B8C, symBinAddr: 0x10001ACCC, symSize: 0x18 }
  - { offsetInCU: 0x1A1CE, offset: 0x91C1C, size: 0x8, addend: 0x0, symName: __ZNSt3__120__shared_ptr_emplaceI12InsertActionNS_9allocatorIS1_EEEC1B8ue170006IJRNS_6vectorINS_12basic_stringIcNS_11char_traitsIcEENS2_IcEEEENS2_ISB_EEEE8PositionEEES3_DpOT_, symObjAddr: 0x9BA4, symBinAddr: 0x10001ACE4, symSize: 0x3C }
  - { offsetInCU: 0x1A236, offset: 0x91C84, size: 0x8, addend: 0x0, symName: __ZNSt3__118__allocation_guardINS_9allocatorINS_20__shared_ptr_emplaceI12InsertActionNS1_IS3_EEEEEEE13__release_ptrB8ue170006Ev, symObjAddr: 0x9BE0, symBinAddr: 0x10001AD20, symSize: 0x24 }
  - { offsetInCU: 0x1A269, offset: 0x91CB7, size: 0x8, addend: 0x0, symName: __ZNSt3__110shared_ptrI12InsertActionE27__create_with_control_blockB8ue170006IS1_NS_20__shared_ptr_emplaceIS1_NS_9allocatorIS1_EEEEEES2_PT_PT0_, symObjAddr: 0x9C04, symBinAddr: 0x10001AD44, symSize: 0xA4 }
  - { offsetInCU: 0x1A2C1, offset: 0x91D0F, size: 0x8, addend: 0x0, symName: __ZNSt3__120__shared_ptr_emplaceI12InsertActionNS_9allocatorIS1_EEE10__get_elemB8ue170006Ev, symObjAddr: 0x9CA8, symBinAddr: 0x10001ADE8, symSize: 0x28 }
  - { offsetInCU: 0x1A2E6, offset: 0x91D34, size: 0x8, addend: 0x0, symName: __ZNSt3__118__allocation_guardINS_9allocatorINS_20__shared_ptr_emplaceI12InsertActionNS1_IS3_EEEEEEED1B8ue170006Ev, symObjAddr: 0x9CD0, symBinAddr: 0x10001AE10, symSize: 0x2C }
  - { offsetInCU: 0x1A30E, offset: 0x91D5C, size: 0x8, addend: 0x0, symName: __ZNSt3__118__allocation_guardINS_9allocatorINS_20__shared_ptr_emplaceI12InsertActionNS1_IS3_EEEEEEEC2B8ue170006IS4_EET_m, symObjAddr: 0x9CFC, symBinAddr: 0x10001AE3C, symSize: 0x50 }
  - { offsetInCU: 0x1A35B, offset: 0x91DA9, size: 0x8, addend: 0x0, symName: __ZNSt3__19allocatorINS_20__shared_ptr_emplaceI12InsertActionNS0_IS2_EEEEEC1B8ue170006IS2_EERKNS0_IT_EE, symObjAddr: 0x9D4C, symBinAddr: 0x10001AE8C, symSize: 0x34 }
  - { offsetInCU: 0x1A397, offset: 0x91DE5, size: 0x8, addend: 0x0, symName: __ZNSt3__116allocator_traitsINS_9allocatorINS_20__shared_ptr_emplaceI12InsertActionNS1_IS3_EEEEEEE8allocateB8ue170006ERS6_m, symObjAddr: 0x9D80, symBinAddr: 0x10001AEC0, symSize: 0x2C }
  - { offsetInCU: 0x1A3CC, offset: 0x91E1A, size: 0x8, addend: 0x0, symName: __ZNSt3__19allocatorINS_20__shared_ptr_emplaceI12InsertActionNS0_IS2_EEEEEC2B8ue170006IS2_EERKNS0_IT_EE, symObjAddr: 0x9DAC, symBinAddr: 0x10001AEEC, symSize: 0x30 }
  - { offsetInCU: 0x1A408, offset: 0x91E56, size: 0x8, addend: 0x0, symName: __ZNSt3__116__non_trivial_ifILb1ENS_9allocatorINS_20__shared_ptr_emplaceI12InsertActionNS1_IS3_EEEEEEEC2B8ue170006Ev, symObjAddr: 0x9DDC, symBinAddr: 0x10001AF1C, symSize: 0x14 }
  - { offsetInCU: 0x1A431, offset: 0x91E7F, size: 0x8, addend: 0x0, symName: __ZNSt3__19allocatorINS_20__shared_ptr_emplaceI12InsertActionNS0_IS2_EEEEE8allocateB8ue170006Em, symObjAddr: 0x9DF0, symBinAddr: 0x10001AF30, symSize: 0x5C }
  - { offsetInCU: 0x1A46E, offset: 0x91EBC, size: 0x8, addend: 0x0, symName: __ZNSt3__116allocator_traitsINS_9allocatorINS_20__shared_ptr_emplaceI12InsertActionNS1_IS3_EEEEEEE8max_sizeB8ue170006IS6_vvEEmRKS6_, symObjAddr: 0x9E4C, symBinAddr: 0x10001AF8C, symSize: 0x28 }
  - { offsetInCU: 0x1A49C, offset: 0x91EEA, size: 0x8, addend: 0x0, symName: __ZNSt3__120__shared_ptr_emplaceI12InsertActionNS_9allocatorIS1_EEEC2B8ue170006IJRNS_6vectorINS_12basic_stringIcNS_11char_traitsIcEENS2_IcEEEENS2_ISB_EEEE8PositionEEES3_DpOT_, symObjAddr: 0x9E74, symBinAddr: 0x10001AFB4, symSize: 0xD0 }
  - { offsetInCU: 0x1A526, offset: 0x91F74, size: 0x8, addend: 0x0, symName: __ZNSt3__120__shared_ptr_emplaceI12InsertActionNS_9allocatorIS1_EEE8_StorageC1B8ue170006EOS3_, symObjAddr: 0x9F44, symBinAddr: 0x10001B084, symSize: 0x34 }
  - { offsetInCU: 0x1A55E, offset: 0x91FAC, size: 0x8, addend: 0x0, symName: __ZNSt3__120__shared_ptr_emplaceI12InsertActionNS_9allocatorIS1_EEE11__get_allocB8ue170006Ev, symObjAddr: 0x9F78, symBinAddr: 0x10001B0B8, symSize: 0x28 }
  - { offsetInCU: 0x1A588, offset: 0x91FD6, size: 0x8, addend: 0x0, symName: __ZNSt3__116allocator_traitsINS_9allocatorI12InsertActionEEE9constructB8ue170006IS2_JRNS_6vectorINS_12basic_stringIcNS_11char_traitsIcEENS1_IcEEEENS1_ISB_EEEE8PositionEvvEEvRS3_PT_DpOT0_, symObjAddr: 0x9FA0, symBinAddr: 0x10001B0E0, symSize: 0x38 }
  - { offsetInCU: 0x1A5F6, offset: 0x92044, size: 0x8, addend: 0x0, symName: __ZNSt3__120__shared_ptr_emplaceI12InsertActionNS_9allocatorIS1_EEE8_StorageD1B8ue170006Ev, symObjAddr: 0x9FD8, symBinAddr: 0x10001B118, symSize: 0x2C }
  - { offsetInCU: 0x1A61E, offset: 0x9206C, size: 0x8, addend: 0x0, symName: __ZNSt3__120__shared_ptr_emplaceI12InsertActionNS_9allocatorIS1_EEED1Ev, symObjAddr: 0xA004, symBinAddr: 0x10001B144, symSize: 0x2C }
  - { offsetInCU: 0x1A64A, offset: 0x92098, size: 0x8, addend: 0x0, symName: __ZNSt3__120__shared_ptr_emplaceI12InsertActionNS_9allocatorIS1_EEED0Ev, symObjAddr: 0xA030, symBinAddr: 0x10001B170, symSize: 0x30 }
  - { offsetInCU: 0x1A676, offset: 0x920C4, size: 0x8, addend: 0x0, symName: __ZNSt3__120__shared_ptr_emplaceI12InsertActionNS_9allocatorIS1_EEE16__on_zero_sharedEv, symObjAddr: 0xA060, symBinAddr: 0x10001B1A0, symSize: 0x44 }
  - { offsetInCU: 0x1A6BD, offset: 0x9210B, size: 0x8, addend: 0x0, symName: __ZNSt3__120__shared_ptr_emplaceI12InsertActionNS_9allocatorIS1_EEE21__on_zero_shared_weakEv, symObjAddr: 0xA0A4, symBinAddr: 0x10001B1E4, symSize: 0x5C }
  - { offsetInCU: 0x1A6FE, offset: 0x9214C, size: 0x8, addend: 0x0, symName: __ZNSt3__120__shared_ptr_emplaceI12InsertActionNS_9allocatorIS1_EEE8_StorageC2B8ue170006EOS3_, symObjAddr: 0xA100, symBinAddr: 0x10001B240, symSize: 0x30 }
  - { offsetInCU: 0x1A736, offset: 0x92184, size: 0x8, addend: 0x0, symName: __ZNSt3__120__shared_ptr_emplaceI12InsertActionNS_9allocatorIS1_EEE8_Storage11__get_allocB8ue170006Ev, symObjAddr: 0xA130, symBinAddr: 0x10001B270, symSize: 0x3C }
  - { offsetInCU: 0x1A78B, offset: 0x921D9, size: 0x8, addend: 0x0, symName: __ZNSt3__117__compressed_pairINS_9allocatorI12InsertActionEES2_E16__get_first_baseB8ue170006EPS4_, symObjAddr: 0xA16C, symBinAddr: 0x10001B2AC, symSize: 0x14 }
  - { offsetInCU: 0x1A7AE, offset: 0x921FC, size: 0x8, addend: 0x0, symName: __ZNSt3__16vectorINS_12basic_stringIcNS_11char_traitsIcEENS_9allocatorIcEEEENS4_IS6_EEEC1ERKS8_, symObjAddr: 0xA218, symBinAddr: 0x10001B358, symSize: 0x34 }
  - { offsetInCU: 0x1A7E9, offset: 0x92237, size: 0x8, addend: 0x0, symName: __ZNSt3__16vectorINS_12basic_stringIcNS_11char_traitsIcEENS_9allocatorIcEEEENS4_IS6_EEEC2ERKS8_, symObjAddr: 0xA24C, symBinAddr: 0x10001B38C, symSize: 0x94 }
  - { offsetInCU: 0x1A824, offset: 0x92272, size: 0x8, addend: 0x0, symName: __ZNSt3__116allocator_traitsINS_9allocatorINS_12basic_stringIcNS_11char_traitsIcEENS1_IcEEEEEEE37select_on_container_copy_constructionB8ue170006IS7_vvEES7_RKS7_, symObjAddr: 0xA2E0, symBinAddr: 0x10001B420, symSize: 0x10 }
  - { offsetInCU: 0x1A85B, offset: 0x922A9, size: 0x8, addend: 0x0, symName: __ZNSt3__117__compressed_pairIPNS_12basic_stringIcNS_11char_traitsIcEENS_9allocatorIcEEEENS4_IS6_EEEC1B8ue170006IDnS8_EEOT_OT0_, symObjAddr: 0xA2F0, symBinAddr: 0x10001B430, symSize: 0x3C }
  - { offsetInCU: 0x1A8B1, offset: 0x922FF, size: 0x8, addend: 0x0, symName: __ZNSt3__16vectorINS_12basic_stringIcNS_11char_traitsIcEENS_9allocatorIcEEEENS4_IS6_EEE16__init_with_sizeB8ue170006IPS6_SA_EEvT_T0_m, symObjAddr: 0xA32C, symBinAddr: 0x10001B46C, symSize: 0xB8 }
  - { offsetInCU: 0x1A928, offset: 0x92376, size: 0x8, addend: 0x0, symName: __ZNSt3__117__compressed_pairIPNS_12basic_stringIcNS_11char_traitsIcEENS_9allocatorIcEEEENS4_IS6_EEEC2B8ue170006IDnS8_EEOT_OT0_, symObjAddr: 0xA3E4, symBinAddr: 0x10001B524, symSize: 0x44 }
  - { offsetInCU: 0x1A97E, offset: 0x923CC, size: 0x8, addend: 0x0, symName: __ZNSt3__122__compressed_pair_elemINS_9allocatorINS_12basic_stringIcNS_11char_traitsIcEENS1_IcEEEEEELi1ELb1EEC2B8ue170006IS7_vEEOT_, symObjAddr: 0xA428, symBinAddr: 0x10001B568, symSize: 0x18 }
  - { offsetInCU: 0x1A9C0, offset: 0x9240E, size: 0x8, addend: 0x0, symName: __ZNSt3__16vectorINS_12basic_stringIcNS_11char_traitsIcEENS_9allocatorIcEEEENS4_IS6_EEE18__construct_at_endIPS6_SA_EEvT_T0_m, symObjAddr: 0xA440, symBinAddr: 0x10001B580, symSize: 0x8C }
  - { offsetInCU: 0x1AA52, offset: 0x924A0, size: 0x8, addend: 0x0, symName: __ZNSt3__119__unwrap_range_implIPNS_12basic_stringIcNS_11char_traitsIcEENS_9allocatorIcEEEES7_E8__unwrapB8ue170006ES7_S7_, symObjAddr: 0xA67C, symBinAddr: 0x10001B7BC, symSize: 0x58 }
  - { offsetInCU: 0x1AA88, offset: 0x924D6, size: 0x8, addend: 0x0, symName: __ZNSt3__14pairIPNS_12basic_stringIcNS_11char_traitsIcEENS_9allocatorIcEEEES7_EC1B8ue170006IS7_S7_LPv0EEEOT_OT0_, symObjAddr: 0xA6D4, symBinAddr: 0x10001B814, symSize: 0x3C }
  - { offsetInCU: 0x1AAE4, offset: 0x92532, size: 0x8, addend: 0x0, symName: __ZNSt3__14pairIPNS_12basic_stringIcNS_11char_traitsIcEENS_9allocatorIcEEEES7_EC2B8ue170006IS7_S7_LPv0EEEOT_OT0_, symObjAddr: 0xA710, symBinAddr: 0x10001B850, symSize: 0x34 }
  - { offsetInCU: 0x1AB41, offset: 0x9258F, size: 0x8, addend: 0x0, symName: __ZNSt3__116allocator_traitsINS_9allocatorINS_12basic_stringIcNS_11char_traitsIcEENS1_IcEEEEEEE9constructB8ue170006IS6_JRS6_EvvEEvRS7_PT_DpOT0_, symObjAddr: 0xA744, symBinAddr: 0x10001B884, symSize: 0x30 }
  - { offsetInCU: 0x1AB9A, offset: 0x925E8, size: 0x8, addend: 0x0, symName: __ZNSt3__120__shared_ptr_emplaceI12InsertActionNS_9allocatorIS1_EEE8_StorageD2B8ue170006Ev, symObjAddr: 0xA7B0, symBinAddr: 0x10001B8F0, symSize: 0x2C }
  - { offsetInCU: 0x1ABC2, offset: 0x92610, size: 0x8, addend: 0x0, symName: __ZNSt3__120__shared_ptr_emplaceI12InsertActionNS_9allocatorIS1_EEED2Ev, symObjAddr: 0xA7DC, symBinAddr: 0x10001B91C, symSize: 0x48 }
  - { offsetInCU: 0x1ABEE, offset: 0x9263C, size: 0x8, addend: 0x0, symName: __ZNSt3__116allocator_traitsINS_9allocatorI12InsertActionEEE7destroyB8ue170006IS2_vvEEvRS3_PT_, symObjAddr: 0xA824, symBinAddr: 0x10001B964, symSize: 0x28 }
  - { offsetInCU: 0x1AC2C, offset: 0x9267A, size: 0x8, addend: 0x0, symName: __ZNSt3__116allocator_traitsINS_9allocatorINS_20__shared_ptr_emplaceI12InsertActionNS1_IS3_EEEEEEE10deallocateB8ue170006ERS6_PS5_m, symObjAddr: 0xA89C, symBinAddr: 0x10001B9DC, symSize: 0x34 }
  - { offsetInCU: 0x1AC76, offset: 0x926C4, size: 0x8, addend: 0x0, symName: __ZNSt3__114pointer_traitsIPNS_20__shared_ptr_emplaceI12InsertActionNS_9allocatorIS2_EEEEE10pointer_toB8ue170006ERS5_, symObjAddr: 0xA8D0, symBinAddr: 0x10001BA10, symSize: 0x14 }
  - { offsetInCU: 0x1AC99, offset: 0x926E7, size: 0x8, addend: 0x0, symName: __ZNSt3__19allocatorINS_20__shared_ptr_emplaceI12InsertActionNS0_IS2_EEEEE10deallocateB8ue170006EPS4_m, symObjAddr: 0xA8E4, symBinAddr: 0x10001BA24, symSize: 0x44 }
  - { offsetInCU: 0x1ACDA, offset: 0x92728, size: 0x8, addend: 0x0, symName: __ZNSt3__110shared_ptrI12InsertActionEC1B8ue170006Ev, symObjAddr: 0xA928, symBinAddr: 0x10001BA68, symSize: 0x2C }
  - { offsetInCU: 0x1AD02, offset: 0x92750, size: 0x8, addend: 0x0, symName: __ZNSt3__110shared_ptrI12InsertActionE18__enable_weak_thisB8ue170006Ez, symObjAddr: 0xA954, symBinAddr: 0x10001BA94, symSize: 0x10 }
  - { offsetInCU: 0x1AD28, offset: 0x92776, size: 0x8, addend: 0x0, symName: __ZNSt3__110shared_ptrI12InsertActionEC2B8ue170006Ev, symObjAddr: 0xA964, symBinAddr: 0x10001BAA4, symSize: 0x1C }
  - { offsetInCU: 0x1AD51, offset: 0x9279F, size: 0x8, addend: 0x0, symName: __ZNSt3__120__shared_ptr_emplaceI12InsertActionNS_9allocatorIS1_EEE8_Storage10__get_elemB8ue170006Ev, symObjAddr: 0xA980, symBinAddr: 0x10001BAC0, symSize: 0x3C }
  - { offsetInCU: 0x1ADA6, offset: 0x927F4, size: 0x8, addend: 0x0, symName: __ZNSt3__117__compressed_pairINS_9allocatorI12InsertActionEES2_E17__get_second_baseB8ue170006EPS4_, symObjAddr: 0xA9BC, symBinAddr: 0x10001BAFC, symSize: 0x14 }
  - { offsetInCU: 0x1ADC9, offset: 0x92817, size: 0x8, addend: 0x0, symName: __ZNSt3__118__allocation_guardINS_9allocatorINS_20__shared_ptr_emplaceI12InsertActionNS1_IS3_EEEEEEED2B8ue170006Ev, symObjAddr: 0xA9D0, symBinAddr: 0x10001BB10, symSize: 0x2C }
  - { offsetInCU: 0x1ADF1, offset: 0x9283F, size: 0x8, addend: 0x0, symName: __ZNSt3__118__allocation_guardINS_9allocatorINS_20__shared_ptr_emplaceI12InsertActionNS1_IS3_EEEEEEE9__destroyB8ue170006Ev, symObjAddr: 0xA9FC, symBinAddr: 0x10001BB3C, symSize: 0x4C }
  - { offsetInCU: 0x1AE16, offset: 0x92864, size: 0x8, addend: 0x0, symName: __ZNSt3__19allocatorI12InsertActionEC2B8ue170006Ev, symObjAddr: 0xAA48, symBinAddr: 0x10001BB88, symSize: 0x2C }
  - { offsetInCU: 0x1AE3E, offset: 0x9288C, size: 0x8, addend: 0x0, symName: __ZNSt3__116__non_trivial_ifILb1ENS_9allocatorI12InsertActionEEEC2B8ue170006Ev, symObjAddr: 0xAA74, symBinAddr: 0x10001BBB4, symSize: 0x14 }
  - { offsetInCU: 0x1AE67, offset: 0x928B5, size: 0x8, addend: 0x0, symName: __ZNSt3__110shared_ptrI12InsertActionED2B8ue170006Ev, symObjAddr: 0xAA88, symBinAddr: 0x10001BBC8, symSize: 0x54 }
  - { offsetInCU: 0xA40, offset: 0x93439, size: 0x8, addend: 0x0, symName: __ZNSt3__14__fs10filesystem8absoluteB8ue170006ERKNS1_4pathE, symObjAddr: 0x2F0, symBinAddr: 0x10001BF0C, symSize: 0x30 }
  - { offsetInCU: 0xA6C, offset: 0x93465, size: 0x8, addend: 0x0, symName: __ZNSt3__14__fs10filesystem6existsB8ue170006ERKNS1_4pathE, symObjAddr: 0x388, symBinAddr: 0x10001BFA4, symSize: 0x50 }
  - { offsetInCU: 0xA98, offset: 0x93491, size: 0x8, addend: 0x0, symName: __ZNSt3__14__fs10filesystemdvB8ue170006ERKNS1_4pathES4_, symObjAddr: 0xFF0, symBinAddr: 0x10001CBCC, symSize: 0xA8 }
  - { offsetInCU: 0xAE9, offset: 0x934E2, size: 0x8, addend: 0x0, symName: __ZNSt3__14__fs10filesystem18create_directoriesB8ue170006ERKNS1_4pathE, symObjAddr: 0x1514, symBinAddr: 0x10001D0F0, symSize: 0x2C }
  - { offsetInCU: 0xB15, offset: 0x9350E, size: 0x8, addend: 0x0, symName: __ZNSt3__14__fs10filesystem6existsB8ue170006ENS1_11file_statusE, symObjAddr: 0x18AC, symBinAddr: 0x10001D448, symSize: 0x78 }
  - { offsetInCU: 0xC4E, offset: 0x93647, size: 0x8, addend: 0x0, symName: __ZNSt3__14__fs10filesystem12status_knownB8ue170006ENS1_11file_statusE, symObjAddr: 0x1950, symBinAddr: 0x10001D4EC, symSize: 0x30 }
  - { offsetInCU: 0xC9B5, offset: 0x9F3AE, size: 0x8, addend: 0x0, symName: __ZNSt3__124__put_character_sequenceB8ue170006IcNS_11char_traitsIcEEEERNS_13basic_ostreamIT_T0_EES7_PKS4_m, symObjAddr: 0x34B4, symBinAddr: 0x10001E4D4, symSize: 0x1EC }
  - { offsetInCU: 0xD2A2, offset: 0x9FC9B, size: 0x8, addend: 0x0, symName: __ZNSt3__16copy_nB8ue170006IPKcmPcEENS_9enable_ifIXsr37__has_random_access_iterator_categoryIT_EE5valueET1_E4typeES5_T0_S6_, symObjAddr: 0x5008, symBinAddr: 0x10001FAF8, symSize: 0x44 }
  - { offsetInCU: 0xEE0A, offset: 0xA1803, size: 0x8, addend: 0x0, symName: __ZNSt3__1plB8ue170006IcNS_11char_traitsIcEENS_9allocatorIcEEEENS_12basic_stringIT_T0_T1_EEOS9_SA_, symObjAddr: 0x1708, symBinAddr: 0x10001D2E4, symSize: 0x40 }
  - { offsetInCU: 0xEE65, offset: 0xA185E, size: 0x8, addend: 0x0, symName: __ZNSt3__17getlineB8ue170006IcNS_11char_traitsIcEENS_9allocatorIcEEEERNS_13basic_istreamIT_T0_EES9_RNS_12basic_stringIS6_S7_T1_EE, symObjAddr: 0x1E80, symBinAddr: 0x10001D710, symSize: 0x5C }
  - { offsetInCU: 0xEEC0, offset: 0xA18B9, size: 0x8, addend: 0x0, symName: __ZNSt3__17getlineB8ue170006IcNS_11char_traitsIcEENS_9allocatorIcEEEERNS_13basic_istreamIT_T0_EES9_RNS_12basic_stringIS6_S7_T1_EES6_, symObjAddr: 0x1FC8, symBinAddr: 0x10001D7E0, symSize: 0x238 }
  - { offsetInCU: 0xEF87, offset: 0xA1980, size: 0x8, addend: 0x0, symName: __ZNSt3__19use_facetB8ue170006INS_5ctypeIcEEEERKT_RKNS_6localeE, symObjAddr: 0x2884, symBinAddr: 0x10001DF44, symSize: 0x2C }
  - { offsetInCU: 0xF45C, offset: 0xA1E55, size: 0x8, addend: 0x0, symName: __ZNSt3__1lsB8ue170006IcNS_11char_traitsIcEENS_9allocatorIcEEEERNS_13basic_ostreamIT_T0_EES9_RKNS_12basic_stringIS6_S7_T1_EE, symObjAddr: 0x33D0, symBinAddr: 0x10001E3F0, symSize: 0x4C }
  - { offsetInCU: 0xF4B7, offset: 0xA1EB0, size: 0x8, addend: 0x0, symName: __ZNSt3__1lsB8ue170006INS_11char_traitsIcEEEERNS_13basic_ostreamIcT_EES6_PKc, symObjAddr: 0x346C, symBinAddr: 0x10001E48C, symSize: 0x48 }
  - { offsetInCU: 0xF500, offset: 0xA1EF9, size: 0x8, addend: 0x0, symName: __ZNSt3__116__pad_and_outputB8ue170006IcNS_11char_traitsIcEEEENS_19ostreambuf_iteratorIT_T0_EES6_PKS4_S8_S8_RNS_8ios_baseES4_, symObjAddr: 0x36BC, symBinAddr: 0x10001E6DC, symSize: 0x240 }
  - { offsetInCU: 0xF5DA, offset: 0xA1FD3, size: 0x8, addend: 0x0, symName: __ZNSt3__112__to_addressB8ue170006IcEEPT_S2_, symObjAddr: 0x3B00, symBinAddr: 0x10001EA98, symSize: 0x14 }
  - { offsetInCU: 0xF688, offset: 0xA2081, size: 0x8, addend: 0x0, symName: __ZNSt3__128__char_traits_length_checkedB8ue170006INS_11char_traitsIcEEEEmPKNT_9char_typeE, symObjAddr: 0x4264, symBinAddr: 0x10001F010, symSize: 0x24 }
  - { offsetInCU: 0xF6C1, offset: 0xA20BA, size: 0x8, addend: 0x0, symName: __ZNSt3__1plB8ue170006IcNS_11char_traitsIcEENS_9allocatorIcEEEENS_12basic_stringIT_T0_T1_EERKS9_SB_, symObjAddr: 0x46A0, symBinAddr: 0x10001F358, symSize: 0x134 }
  - { offsetInCU: 0xF769, offset: 0xA2162, size: 0x8, addend: 0x0, symName: __ZNSt3__1plB8ue170006IcNS_11char_traitsIcEENS_9allocatorIcEEEENS_12basic_stringIT_T0_T1_EEOS9_RKS9_, symObjAddr: 0x47D4, symBinAddr: 0x10001F48C, symSize: 0x40 }
  - { offsetInCU: 0xF7C4, offset: 0xA21BD, size: 0x8, addend: 0x0, symName: __ZNSt3__1plB8ue170006IcNS_11char_traitsIcEENS_9allocatorIcEEEENS_12basic_stringIT_T0_T1_EERKS9_PKS6_, symObjAddr: 0x4814, symBinAddr: 0x10001F4CC, symSize: 0x11C }
  - { offsetInCU: 0xF86C, offset: 0xA2265, size: 0x8, addend: 0x0, symName: __ZNSt3__14copyB8ue170006IPKcPcEET0_T_S5_S4_, symObjAddr: 0x504C, symBinAddr: 0x10001FB3C, symSize: 0x40 }
  - { offsetInCU: 0xF8C6, offset: 0xA22BF, size: 0x8, addend: 0x0, symName: __ZNSt3__16__copyB8ue170006INS_17_ClassicAlgPolicyEPKcS3_PcEENS_4pairIT0_T2_EES6_T1_S7_, symObjAddr: 0x508C, symBinAddr: 0x10001FB7C, symSize: 0x44 }
  - { offsetInCU: 0xF932, offset: 0xA232B, size: 0x8, addend: 0x0, symName: __ZNSt3__123__dispatch_copy_or_moveB8ue170006INS_17_ClassicAlgPolicyENS_11__copy_loopIS1_EENS_14__copy_trivialEPKcS6_PcEENS_4pairIT2_T4_EES9_T3_SA_, symObjAddr: 0x50D0, symBinAddr: 0x10001FBC0, symSize: 0x44 }
  - { offsetInCU: 0xF9B0, offset: 0xA23A9, size: 0x8, addend: 0x0, symName: __ZNSt3__121__unwrap_and_dispatchB8ue170006INS_10__overloadINS_11__copy_loopINS_17_ClassicAlgPolicyEEENS_14__copy_trivialEEEPKcS8_PcLi0EEENS_4pairIT0_T2_EESB_T1_SC_, symObjAddr: 0x5114, symBinAddr: 0x10001FC04, symSize: 0xB4 }
  - { offsetInCU: 0xFA3E, offset: 0xA2437, size: 0x8, addend: 0x0, symName: __ZNSt3__114__unwrap_rangeB8ue170006IPKcS2_EEDaT_T0_, symObjAddr: 0x51C8, symBinAddr: 0x10001FCB8, symSize: 0x3C }
  - { offsetInCU: 0xFBD3, offset: 0xA25CC, size: 0x8, addend: 0x0, symName: __ZNSt3__113__unwrap_iterB8ue170006IPcNS_18__unwrap_iter_implIS1_Lb1EEELi0EEEDTclsrT0_8__unwrapclsr3stdE7declvalIT_EEEES5_, symObjAddr: 0x524C, symBinAddr: 0x10001FD3C, symSize: 0x24 }
  - { offsetInCU: 0xFC17, offset: 0xA2610, size: 0x8, addend: 0x0, symName: __ZNSt3__19make_pairB8ue170006IPKcPcEENS_4pairINS_18__unwrap_ref_decayIT_E4typeENS5_IT0_E4typeEEEOS6_OS9_, symObjAddr: 0x5270, symBinAddr: 0x10001FD60, symSize: 0x38 }
  - { offsetInCU: 0xFC69, offset: 0xA2662, size: 0x8, addend: 0x0, symName: __ZNSt3__114__rewrap_rangeB8ue170006IPKcS2_S2_EET0_S3_T1_, symObjAddr: 0x52A8, symBinAddr: 0x10001FD98, symSize: 0x2C }
  - { offsetInCU: 0xFCBE, offset: 0xA26B7, size: 0x8, addend: 0x0, symName: __ZNSt3__113__rewrap_iterB8ue170006IPcS1_NS_18__unwrap_iter_implIS1_Lb1EEEEET_S4_T0_, symObjAddr: 0x52D4, symBinAddr: 0x10001FDC4, symSize: 0x3C }
  - { offsetInCU: 0xFE2F, offset: 0xA2828, size: 0x8, addend: 0x0, symName: __ZNSt3__113__unwrap_iterB8ue170006IPKcNS_18__unwrap_iter_implIS2_Lb1EEELi0EEEDTclsrT0_8__unwrapclsr3stdE7declvalIT_EEEES6_, symObjAddr: 0x5368, symBinAddr: 0x10001FE58, symSize: 0x24 }
  - { offsetInCU: 0xFEC6, offset: 0xA28BF, size: 0x8, addend: 0x0, symName: __ZNSt3__119__copy_trivial_implB8ue170006IKccEENS_4pairIPT_PT0_EES4_S4_S6_, symObjAddr: 0x5420, symBinAddr: 0x10001FF10, symSize: 0x78 }
  - { offsetInCU: 0xFF2E, offset: 0xA2927, size: 0x8, addend: 0x0, symName: __ZNSt3__119__constexpr_memmoveB8ue170006IcKcLi0EEEPT_S3_PT0_NS_15__element_countE, symObjAddr: 0x5498, symBinAddr: 0x10001FF88, symSize: 0x64 }
  - { offsetInCU: 0xFF9C, offset: 0xA2995, size: 0x8, addend: 0x0, symName: __ZNSt3__19make_pairB8ue170006IRPKcPcEENS_4pairINS_18__unwrap_ref_decayIT_E4typeENS6_IT0_E4typeEEEOS7_OSA_, symObjAddr: 0x54FC, symBinAddr: 0x10001FFEC, symSize: 0x38 }
  - { offsetInCU: 0x10041, offset: 0xA2A3A, size: 0x8, addend: 0x0, symName: __ZNSt3__113__rewrap_iterB8ue170006IPKcS2_NS_18__unwrap_iter_implIS2_Lb1EEEEET_S5_T0_, symObjAddr: 0x5664, symBinAddr: 0x100020154, symSize: 0x3C }
  - { offsetInCU: 0x10096, offset: 0xA2A8F, size: 0x8, addend: 0x0, symName: __ZNSt3__16fill_nB8ue170006IPcmcEET_S2_T0_RKT1_, symObjAddr: 0x5730, symBinAddr: 0x100020220, symSize: 0x44 }
  - { offsetInCU: 0x100F9, offset: 0xA2AF2, size: 0x8, addend: 0x0, symName: __ZNSt3__18__fill_nB8ue170006IPcmcEET_S2_T0_RKT1_, symObjAddr: 0x5774, symBinAddr: 0x100020264, symSize: 0x64 }
  - { offsetInCU: 0x1015D, offset: 0xA2B56, size: 0x8, addend: 0x0, symName: __ZNSt3__121__convert_to_integralB8ue170006Em, symObjAddr: 0x57D8, symBinAddr: 0x1000202C8, symSize: 0x14 }
  - { offsetInCU: 0x1018A, offset: 0xA2B83, size: 0x8, addend: 0x0, symName: __ZNSt3__18distanceB8ue170006IPKcEENS_15iterator_traitsIT_E15difference_typeES4_S4_, symObjAddr: 0x5B6C, symBinAddr: 0x10002065C, symSize: 0x2C }
  - { offsetInCU: 0x101CD, offset: 0xA2BC6, size: 0x8, addend: 0x0, symName: __ZNSt3__110__distanceB8ue170006IPKcEENS_15iterator_traitsIT_E15difference_typeES4_S4_NS_26random_access_iterator_tagE, symObjAddr: 0x5D40, symBinAddr: 0x100020830, symSize: 0x20 }
  - { offsetInCU: 0x1021C, offset: 0xA2C15, size: 0x8, addend: 0x0, symName: __ZNSt3__121__is_pointer_in_rangeB8ue170006IccLi0EEEbPKT_S3_PKT0_, symObjAddr: 0x5D60, symBinAddr: 0x100020850, symSize: 0x68 }
  - { offsetInCU: 0x1027C, offset: 0xA2C75, size: 0x8, addend: 0x0, symName: __ZNSt3__119__allocate_at_leastB8ue170006INS_9allocatorIcEEEENS_19__allocation_resultINS_16allocator_traitsIT_E7pointerEEERS5_m, symObjAddr: 0x5FE4, symBinAddr: 0x100020AD4, symSize: 0x40 }
  - { offsetInCU: 0x1305E, offset: 0xA5A57, size: 0x8, addend: 0x0, symName: __ZN11FileHandler8openFileERKNSt3__112basic_stringIcNS0_11char_traitsIcEENS0_9allocatorIcEEEE, symObjAddr: 0x0, symBinAddr: 0x10001BC1C, symSize: 0x2F0 }
  - { offsetInCU: 0x130B9, offset: 0xA5AB2, size: 0x8, addend: 0x0, symName: __ZN11FileHandler10createFileENSt3__14__fs10filesystem4pathE, symObjAddr: 0x3D8, symBinAddr: 0x10001BFF4, symSize: 0x110 }
  - { offsetInCU: 0x130F5, offset: 0xA5AEE, size: 0x8, addend: 0x0, symName: __ZN11FileHandler8saveFileER8TextFile, symObjAddr: 0x830, symBinAddr: 0x10001C418, symSize: 0x1A0 }
  - { offsetInCU: 0x13142, offset: 0xA5B3B, size: 0x8, addend: 0x0, symName: __ZN11FileHandler10renameFileER8TextFileNSt3__112basic_stringIcNS2_11char_traitsIcEENS2_9allocatorIcEEEE, symObjAddr: 0xDD0, symBinAddr: 0x10001C9AC, symSize: 0x198 }
  - { offsetInCU: 0x1319D, offset: 0xA5B96, size: 0x8, addend: 0x0, symName: __ZN11FileHandler14getDefaultNameEv, symObjAddr: 0x1098, symBinAddr: 0x10001CC74, symSize: 0x150 }
  - { offsetInCU: 0x131EC, offset: 0xA5BE5, size: 0x8, addend: 0x0, symName: __ZN11FileHandler20createBackupLocationENSt3__14__fs10filesystem4pathE, symObjAddr: 0x13CC, symBinAddr: 0x10001CFA8, symSize: 0x10C }
  - { offsetInCU: 0x13228, offset: 0xA5C21, size: 0x8, addend: 0x0, symName: __ZN11FileHandler13getBackupPathENSt3__14__fs10filesystem4pathES3_, symObjAddr: 0x1540, symBinAddr: 0x10001D11C, symSize: 0x1C8 }
  - { offsetInCU: 0x13274, offset: 0xA5C6D, size: 0x8, addend: 0x0, symName: __ZNSt3__14__fs10filesystem4pathC1B8ue170006INS_12basic_stringIcNS_11char_traitsIcEENS_9allocatorIcEEEEvEERKT_NS2_6formatE, symObjAddr: 0x320, symBinAddr: 0x10001BF3C, symSize: 0x3C }
  - { offsetInCU: 0x132C3, offset: 0xA5CBC, size: 0x8, addend: 0x0, symName: __ZNSt3__14__fs10filesystem4pathD1B8ue170006Ev, symObjAddr: 0x35C, symBinAddr: 0x10001BF78, symSize: 0x2C }
  - { offsetInCU: 0x132EB, offset: 0xA5CE4, size: 0x8, addend: 0x0, symName: __ZNSt3__14__fs10filesystem4pathC1B8ue170006ERKS2_, symObjAddr: 0x4E8, symBinAddr: 0x10001C104, symSize: 0x34 }
  - { offsetInCU: 0x13444, offset: 0xA5E3D, size: 0x8, addend: 0x0, symName: __ZNSt3__114basic_ifstreamIcNS_11char_traitsIcEEEC1B8ue170006ERKNS_4__fs10filesystem4pathEj, symObjAddr: 0x51C, symBinAddr: 0x10001C138, symSize: 0x48 }
  - { offsetInCU: 0x1348C, offset: 0xA5E85, size: 0x8, addend: 0x0, symName: __ZNKSt3__114basic_ifstreamIcNS_11char_traitsIcEEE7is_openEv, symObjAddr: 0x564, symBinAddr: 0x10001C180, symSize: 0x2C }
  - { offsetInCU: 0x134B8, offset: 0xA5EB1, size: 0x8, addend: 0x0, symName: __ZN13FileExceptionC1ERKNSt3__112basic_stringIcNS0_11char_traitsIcEENS0_9allocatorIcEEEE, symObjAddr: 0x5C4, symBinAddr: 0x10001C1AC, symSize: 0x34 }
  - { offsetInCU: 0x134EE, offset: 0xA5EE7, size: 0x8, addend: 0x0, symName: __ZN13FileExceptionD1Ev, symObjAddr: 0x5F8, symBinAddr: 0x10001C1E0, symSize: 0x2C }
  - { offsetInCU: 0x1351B, offset: 0xA5F14, size: 0x8, addend: 0x0, symName: __ZN12_GLOBAL__N_112readFromFileERNSt3__114basic_ifstreamIcNS0_11char_traitsIcEEEERKNS0_12basic_stringIcS3_NS0_9allocatorIcEEEE, symObjAddr: 0x624, symBinAddr: 0x10001C20C, symSize: 0x110 }
  - { offsetInCU: 0x13573, offset: 0xA5F6C, size: 0x8, addend: 0x0, symName: __ZN12_GLOBAL__N_114openOutputFileERK8TextFile, symObjAddr: 0x9D0, symBinAddr: 0x10001C5B8, symSize: 0x284 }
  - { offsetInCU: 0x135DA, offset: 0xA5FD3, size: 0x8, addend: 0x0, symName: __ZN12_GLOBAL__N_111writeToFileERNSt3__114basic_ofstreamIcNS0_11char_traitsIcEEEER8TextFile, symObjAddr: 0xC54, symBinAddr: 0x10001C83C, symSize: 0xD8 }
  - { offsetInCU: 0x1364B, offset: 0xA6044, size: 0x8, addend: 0x0, symName: __ZN12_GLOBAL__N_124constructDefaultFilenameEi, symObjAddr: 0x11E8, symBinAddr: 0x10001CDC4, symSize: 0x1E4 }
  - { offsetInCU: 0x136A4, offset: 0xA609D, size: 0x8, addend: 0x0, symName: __ZNKSt3__14__fs10filesystem4pathcvNS_12basic_stringIcNS_11char_traitsIcEENS_9allocatorIcEEEEB8ue170006Ev, symObjAddr: 0x734, symBinAddr: 0x10001C31C, symSize: 0x38 }
  - { offsetInCU: 0x136C9, offset: 0xA60C2, size: 0x8, addend: 0x0, symName: __ZNSt3__114basic_ifstreamIcNS_11char_traitsIcEEE5closeEv, symObjAddr: 0x76C, symBinAddr: 0x10001C354, symSize: 0x58 }
  - { offsetInCU: 0x13A1D, offset: 0xA6416, size: 0x8, addend: 0x0, symName: __ZN8TextFileD1Ev, symObjAddr: 0x7C4, symBinAddr: 0x10001C3AC, symSize: 0x2C }
  - { offsetInCU: 0x13A4D, offset: 0xA6446, size: 0x8, addend: 0x0, symName: __ZNSt3__114basic_ifstreamIcNS_11char_traitsIcEEED1Ev, symObjAddr: 0x7F0, symBinAddr: 0x10001C3D8, symSize: 0x40 }
  - { offsetInCU: 0x13A92, offset: 0xA648B, size: 0x8, addend: 0x0, symName: __ZNSt3__114basic_ofstreamIcNS_11char_traitsIcEEE5closeEv, symObjAddr: 0xD2C, symBinAddr: 0x10001C914, symSize: 0x58 }
  - { offsetInCU: 0x13ABE, offset: 0xA64B7, size: 0x8, addend: 0x0, symName: __ZNSt3__114basic_ofstreamIcNS_11char_traitsIcEEED1Ev, symObjAddr: 0xD84, symBinAddr: 0x10001C96C, symSize: 0x40 }
  - { offsetInCU: 0x13AEA, offset: 0xA64E3, size: 0x8, addend: 0x0, symName: __ZNKSt3__14__fs10filesystem4path11is_absoluteB8ue170006Ev, symObjAddr: 0xF68, symBinAddr: 0x10001CB44, symSize: 0x28 }
  - { offsetInCU: 0x13B0F, offset: 0xA6508, size: 0x8, addend: 0x0, symName: __ZNKSt3__14__fs10filesystem4path11parent_pathB8ue170006Ev, symObjAddr: 0xF90, symBinAddr: 0x10001CB6C, symSize: 0x60 }
  - { offsetInCU: 0x13B3E, offset: 0xA6537, size: 0x8, addend: 0x0, symName: __ZNSt3__14__fs10filesystem4pathC1B8ue170006IA8_cvEERKT_NS2_6formatE, symObjAddr: 0x14D8, symBinAddr: 0x10001D0B4, symSize: 0x3C }
  - { offsetInCU: 0x13B8D, offset: 0xA6586, size: 0x8, addend: 0x0, symName: __ZNKSt3__14__fs10filesystem4path4stemB8ue170006Ev, symObjAddr: 0x1788, symBinAddr: 0x10001D324, symSize: 0x60 }
  - { offsetInCU: 0x13BB2, offset: 0xA65AB, size: 0x8, addend: 0x0, symName: __ZNKSt3__14__fs10filesystem4path6stringB8ue170006Ev, symObjAddr: 0x17E8, symBinAddr: 0x10001D384, symSize: 0x38 }
  - { offsetInCU: 0x13BD7, offset: 0xA65D0, size: 0x8, addend: 0x0, symName: __ZNKSt3__14__fs10filesystem4path9extensionB8ue170006Ev, symObjAddr: 0x1820, symBinAddr: 0x10001D3BC, symSize: 0x60 }
  - { offsetInCU: 0x13BFC, offset: 0xA65F5, size: 0x8, addend: 0x0, symName: __ZNSt3__14__fs10filesystem4pathD2B8ue170006Ev, symObjAddr: 0x1880, symBinAddr: 0x10001D41C, symSize: 0x2C }
  - { offsetInCU: 0x13C42, offset: 0xA663B, size: 0x8, addend: 0x0, symName: __ZNSt3__14__fs10filesystem11file_statusD1B8ue170006Ev, symObjAddr: 0x1924, symBinAddr: 0x10001D4C0, symSize: 0x2C }
  - { offsetInCU: 0x13C6A, offset: 0xA6663, size: 0x8, addend: 0x0, symName: __ZNKSt3__14__fs10filesystem11file_status4typeB8ue170006Ev, symObjAddr: 0x1980, symBinAddr: 0x10001D51C, symSize: 0x18 }
  - { offsetInCU: 0x13C8F, offset: 0xA6688, size: 0x8, addend: 0x0, symName: __ZNSt3__14__fs10filesystem11file_statusD2B8ue170006Ev, symObjAddr: 0x1998, symBinAddr: 0x10001D534, symSize: 0x14 }
  - { offsetInCU: 0x13CB8, offset: 0xA66B1, size: 0x8, addend: 0x0, symName: __ZNSt3__14__fs10filesystem4pathC2B8ue170006ERKS2_, symObjAddr: 0x19AC, symBinAddr: 0x10001D548, symSize: 0x34 }
  - { offsetInCU: 0x13CF5, offset: 0xA66EE, size: 0x8, addend: 0x0, symName: __ZN13FileExceptionC2ERKNSt3__112basic_stringIcNS0_11char_traitsIcEENS0_9allocatorIcEEEE, symObjAddr: 0x1B88, symBinAddr: 0x10001D57C, symSize: 0x80 }
  - { offsetInCU: 0x13D2B, offset: 0xA6724, size: 0x8, addend: 0x0, symName: __ZNSt9exceptionC2B8ue170006Ev, symObjAddr: 0x1C08, symBinAddr: 0x10001D5FC, symSize: 0x24 }
  - { offsetInCU: 0x13D54, offset: 0xA674D, size: 0x8, addend: 0x0, symName: __ZN13FileExceptionD0Ev, symObjAddr: 0x1C2C, symBinAddr: 0x10001D620, symSize: 0x30 }
  - { offsetInCU: 0x13D7F, offset: 0xA6778, size: 0x8, addend: 0x0, symName: __ZNK13FileException4whatEv, symObjAddr: 0x1C5C, symBinAddr: 0x10001D650, symSize: 0x28 }
  - { offsetInCU: 0x13DA4, offset: 0xA679D, size: 0x8, addend: 0x0, symName: __ZNKSt3__112basic_stringIcNS_11char_traitsIcEENS_9allocatorIcEEE5c_strB8ue170006Ev, symObjAddr: 0x1C84, symBinAddr: 0x10001D678, symSize: 0x24 }
  - { offsetInCU: 0x13DC9, offset: 0xA67C2, size: 0x8, addend: 0x0, symName: __ZN13FileExceptionD2Ev, symObjAddr: 0x1E0C, symBinAddr: 0x10001D69C, symSize: 0x48 }
  - { offsetInCU: 0x13DF4, offset: 0xA67ED, size: 0x8, addend: 0x0, symName: __ZNSt3__112basic_stringIcNS_11char_traitsIcEENS_9allocatorIcEEEC1B8ue170006Ev, symObjAddr: 0x1E54, symBinAddr: 0x10001D6E4, symSize: 0x2C }
  - { offsetInCU: 0x13E1C, offset: 0xA6815, size: 0x8, addend: 0x0, symName: __ZNKSt3__19basic_iosIcNS_11char_traitsIcEEEcvbB8ue170006Ev, symObjAddr: 0x1EDC, symBinAddr: 0x10001D76C, symSize: 0x2C }
  - { offsetInCU: 0x13E41, offset: 0xA683A, size: 0x8, addend: 0x0, symName: __ZNSt3__112basic_stringIcNS_11char_traitsIcEENS_9allocatorIcEEEC2B8ue170006Ev, symObjAddr: 0x1F08, symBinAddr: 0x10001D798, symSize: 0x48 }
  - { offsetInCU: 0x13E69, offset: 0xA6862, size: 0x8, addend: 0x0, symName: __ZNKSt3__19basic_iosIcNS_11char_traitsIcEEE5widenB8ue170006Ec, symObjAddr: 0x2200, symBinAddr: 0x10001DA18, symSize: 0x84 }
  - { offsetInCU: 0x13EBE, offset: 0xA68B7, size: 0x8, addend: 0x0, symName: __ZNKSt3__113basic_istreamIcNS_11char_traitsIcEEE6sentrycvbB8ue170006Ev, symObjAddr: 0x2284, symBinAddr: 0x10001DA9C, symSize: 0x1C }
  - { offsetInCU: 0x13EE3, offset: 0xA68DC, size: 0x8, addend: 0x0, symName: __ZNSt3__112basic_stringIcNS_11char_traitsIcEENS_9allocatorIcEEE5clearB8ue170006Ev, symObjAddr: 0x22A0, symBinAddr: 0x10001DAB8, symSize: 0x78 }
  - { offsetInCU: 0x13F0A, offset: 0xA6903, size: 0x8, addend: 0x0, symName: __ZNKSt3__19basic_iosIcNS_11char_traitsIcEEE5rdbufB8ue170006Ev, symObjAddr: 0x2318, symBinAddr: 0x10001DB30, symSize: 0x24 }
  - { offsetInCU: 0x13F31, offset: 0xA692A, size: 0x8, addend: 0x0, symName: __ZNSt3__115basic_streambufIcNS_11char_traitsIcEEE6sbumpcB8ue170006Ev, symObjAddr: 0x233C, symBinAddr: 0x10001DB54, symSize: 0x78 }
  - { offsetInCU: 0x13F56, offset: 0xA694F, size: 0x8, addend: 0x0, symName: __ZNSt3__111char_traitsIcE11eq_int_typeB8ue170006Eii, symObjAddr: 0x23B4, symBinAddr: 0x10001DBCC, symSize: 0x28 }
  - { offsetInCU: 0x13F8B, offset: 0xA6984, size: 0x8, addend: 0x0, symName: __ZNSt3__111char_traitsIcE3eofB8ue170006Ev, symObjAddr: 0x23DC, symBinAddr: 0x10001DBF4, symSize: 0x8 }
  - { offsetInCU: 0x13F9F, offset: 0xA6998, size: 0x8, addend: 0x0, symName: __ZNSt3__111char_traitsIcE12to_char_typeB8ue170006Ei, symObjAddr: 0x23E4, symBinAddr: 0x10001DBFC, symSize: 0x18 }
  - { offsetInCU: 0x13FC2, offset: 0xA69BB, size: 0x8, addend: 0x0, symName: __ZNKSt3__112basic_stringIcNS_11char_traitsIcEENS_9allocatorIcEEE8max_sizeB8ue170006Ev, symObjAddr: 0x2478, symBinAddr: 0x10001DC14, symSize: 0xAC }
  - { offsetInCU: 0x14016, offset: 0xA6A0F, size: 0x8, addend: 0x0, symName: __ZNSt3__18ios_base18__setstate_nothrowB8ue170006Ej, symObjAddr: 0x2524, symBinAddr: 0x10001DCC0, symSize: 0x64 }
  - { offsetInCU: 0x1404B, offset: 0xA6A44, size: 0x8, addend: 0x0, symName: __ZNKSt3__19basic_iosIcNS_11char_traitsIcEEE10exceptionsB8ue170006Ev, symObjAddr: 0x2588, symBinAddr: 0x10001DD24, symSize: 0x24 }
  - { offsetInCU: 0x14070, offset: 0xA6A69, size: 0x8, addend: 0x0, symName: __ZNSt3__19basic_iosIcNS_11char_traitsIcEEE8setstateB8ue170006Ej, symObjAddr: 0x25AC, symBinAddr: 0x10001DD48, symSize: 0x2C }
  - { offsetInCU: 0x140A5, offset: 0xA6A9E, size: 0x8, addend: 0x0, symName: __ZNSt3__111char_traitsIcE6assignB8ue170006ERcRKc, symObjAddr: 0x25D8, symBinAddr: 0x10001DD74, symSize: 0x24 }
  - { offsetInCU: 0x140D6, offset: 0xA6ACF, size: 0x8, addend: 0x0, symName: __ZNSt3__112basic_stringIcNS_11char_traitsIcEENS_9allocatorIcEEE15__set_long_sizeB8ue170006Em, symObjAddr: 0x2624, symBinAddr: 0x10001DD98, symSize: 0x38 }
  - { offsetInCU: 0x1410B, offset: 0xA6B04, size: 0x8, addend: 0x0, symName: __ZNSt3__112basic_stringIcNS_11char_traitsIcEENS_9allocatorIcEEE16__set_short_sizeB8ue170006Em, symObjAddr: 0x2684, symBinAddr: 0x10001DDD0, symSize: 0x78 }
  - { offsetInCU: 0x14140, offset: 0xA6B39, size: 0x8, addend: 0x0, symName: __ZNKSt3__18ios_base5rdbufB8ue170006Ev, symObjAddr: 0x2710, symBinAddr: 0x10001DE48, symSize: 0x18 }
  - { offsetInCU: 0x14165, offset: 0xA6B5E, size: 0x8, addend: 0x0, symName: __ZNSt3__111char_traitsIcE11to_int_typeB8ue170006Ec, symObjAddr: 0x2728, symBinAddr: 0x10001DE60, symSize: 0x14 }
  - { offsetInCU: 0x14194, offset: 0xA6B8D, size: 0x8, addend: 0x0, symName: __ZNSt3__116allocator_traitsINS_9allocatorIcEEE8max_sizeB8ue170006IS2_vvEEmRKS2_, symObjAddr: 0x2798, symBinAddr: 0x10001DE74, symSize: 0x28 }
  - { offsetInCU: 0x141C2, offset: 0xA6BBB, size: 0x8, addend: 0x0, symName: __ZNKSt3__112basic_stringIcNS_11char_traitsIcEENS_9allocatorIcEEE7__allocB8ue170006Ev, symObjAddr: 0x27C0, symBinAddr: 0x10001DE9C, symSize: 0x24 }
  - { offsetInCU: 0x141E7, offset: 0xA6BE0, size: 0x8, addend: 0x0, symName: __ZNKSt3__117__compressed_pairINS_12basic_stringIcNS_11char_traitsIcEENS_9allocatorIcEEE5__repES5_E6secondB8ue170006Ev, symObjAddr: 0x27F8, symBinAddr: 0x10001DEC0, symSize: 0x24 }
  - { offsetInCU: 0x1420C, offset: 0xA6C05, size: 0x8, addend: 0x0, symName: __ZNKSt3__122__compressed_pair_elemINS_9allocatorIcEELi1ELb1EE5__getB8ue170006Ev, symObjAddr: 0x281C, symBinAddr: 0x10001DEE4, symSize: 0x14 }
  - { offsetInCU: 0x14231, offset: 0xA6C2A, size: 0x8, addend: 0x0, symName: __ZNKSt3__18ios_base10exceptionsB8ue170006Ev, symObjAddr: 0x2838, symBinAddr: 0x10001DEF8, symSize: 0x18 }
  - { offsetInCU: 0x14258, offset: 0xA6C51, size: 0x8, addend: 0x0, symName: __ZNSt3__18ios_base8setstateB8ue170006Ej, symObjAddr: 0x2850, symBinAddr: 0x10001DF10, symSize: 0x34 }
  - { offsetInCU: 0x142C1, offset: 0xA6CBA, size: 0x8, addend: 0x0, symName: __ZNKSt3__15ctypeIcE5widenB8ue170006Ec, symObjAddr: 0x28B0, symBinAddr: 0x10001DF70, symSize: 0x38 }
  - { offsetInCU: 0x142F6, offset: 0xA6CEF, size: 0x8, addend: 0x0, symName: __ZNKSt3__19basic_iosIcNS_11char_traitsIcEEE4failB8ue170006Ev, symObjAddr: 0x28E8, symBinAddr: 0x10001DFA8, symSize: 0x28 }
  - { offsetInCU: 0x1431B, offset: 0xA6D14, size: 0x8, addend: 0x0, symName: __ZNKSt3__18ios_base4failB8ue170006Ev, symObjAddr: 0x2910, symBinAddr: 0x10001DFD0, symSize: 0x28 }
  - { offsetInCU: 0x14342, offset: 0xA6D3B, size: 0x8, addend: 0x0, symName: __ZN8TextFileD2Ev, symObjAddr: 0x2938, symBinAddr: 0x10001DFF8, symSize: 0x38 }
  - { offsetInCU: 0x1436D, offset: 0xA6D66, size: 0x8, addend: 0x0, symName: __ZNSt3__114basic_ifstreamIcNS_11char_traitsIcEEED2Ev, symObjAddr: 0x2FE0, symBinAddr: 0x10001E030, symSize: 0x64 }
  - { offsetInCU: 0x143A5, offset: 0xA6D9E, size: 0x8, addend: 0x0, symName: __ZTv0_n24_NSt3__114basic_ifstreamIcNS_11char_traitsIcEEED1Ev, symObjAddr: 0x3044, symBinAddr: 0x10001E094, symSize: 0x28 }
  - { offsetInCU: 0x143BC, offset: 0xA6DB5, size: 0x8, addend: 0x0, symName: __ZNKSt3__14__fs10filesystem4path5emptyB8ue170006Ev, symObjAddr: 0x306C, symBinAddr: 0x10001E0BC, symSize: 0x28 }
  - { offsetInCU: 0x143E1, offset: 0xA6DDA, size: 0x8, addend: 0x0, symName: __ZNSt3__114basic_ofstreamIcNS_11char_traitsIcEEEC1ERKNS_12basic_stringIcS2_NS_9allocatorIcEEEEj, symObjAddr: 0x3094, symBinAddr: 0x10001E0E4, symSize: 0x16C }
  - { offsetInCU: 0x1442C, offset: 0xA6E25, size: 0x8, addend: 0x0, symName: __ZNKSt3__114basic_ofstreamIcNS_11char_traitsIcEEE7is_openEv, symObjAddr: 0x3200, symBinAddr: 0x10001E250, symSize: 0x2C }
  - { offsetInCU: 0x14453, offset: 0xA6E4C, size: 0x8, addend: 0x0, symName: __ZNSt3__19basic_iosIcNS_11char_traitsIcEEEC2B8ue170006Ev, symObjAddr: 0x325C, symBinAddr: 0x10001E27C, symSize: 0x44 }
  - { offsetInCU: 0x1447B, offset: 0xA6E74, size: 0x8, addend: 0x0, symName: __ZNSt3__113basic_ostreamIcNS_11char_traitsIcEEEC2B8ue170006EPNS_15basic_streambufIcS2_EE, symObjAddr: 0x32A0, symBinAddr: 0x10001E2C0, symSize: 0x60 }
  - { offsetInCU: 0x144BD, offset: 0xA6EB6, size: 0x8, addend: 0x0, symName: __ZNSt3__113basic_filebufIcNS_11char_traitsIcEEE4openERKNS_12basic_stringIcS2_NS_9allocatorIcEEEEj, symObjAddr: 0x3300, symBinAddr: 0x10001E320, symSize: 0x44 }
  - { offsetInCU: 0x14500, offset: 0xA6EF9, size: 0x8, addend: 0x0, symName: __ZNSt3__18ios_baseC2B8ue170006Ev, symObjAddr: 0x3344, symBinAddr: 0x10001E364, symSize: 0x24 }
  - { offsetInCU: 0x14529, offset: 0xA6F22, size: 0x8, addend: 0x0, symName: __ZNSt3__19basic_iosIcNS_11char_traitsIcEEE4initB8ue170006EPNS_15basic_streambufIcS2_EE, symObjAddr: 0x3368, symBinAddr: 0x10001E388, symSize: 0x44 }
  - { offsetInCU: 0x14560, offset: 0xA6F59, size: 0x8, addend: 0x0, symName: __ZNKSt3__113basic_filebufIcNS_11char_traitsIcEEE7is_openEv, symObjAddr: 0x33AC, symBinAddr: 0x10001E3CC, symSize: 0x24 }
  - { offsetInCU: 0x14587, offset: 0xA6F80, size: 0x8, addend: 0x0, symName: __ZNKSt3__112basic_stringIcNS_11char_traitsIcEENS_9allocatorIcEEE9ends_withB8ue170006EPKc, symObjAddr: 0x341C, symBinAddr: 0x10001E43C, symSize: 0x50 }
  - { offsetInCU: 0x145DA, offset: 0xA6FD3, size: 0x8, addend: 0x0, symName: __ZNKSt3__113basic_ostreamIcNS_11char_traitsIcEEE6sentrycvbB8ue170006Ev, symObjAddr: 0x36A0, symBinAddr: 0x10001E6C0, symSize: 0x1C }
  - { offsetInCU: 0x145FF, offset: 0xA6FF8, size: 0x8, addend: 0x0, symName: __ZNSt3__119ostreambuf_iteratorIcNS_11char_traitsIcEEEC1B8ue170006ERNS_13basic_ostreamIcS2_EE, symObjAddr: 0x38FC, symBinAddr: 0x10001E91C, symSize: 0x34 }
  - { offsetInCU: 0x14635, offset: 0xA702E, size: 0x8, addend: 0x0, symName: __ZNKSt3__18ios_base5flagsB8ue170006Ev, symObjAddr: 0x3930, symBinAddr: 0x10001E950, symSize: 0x18 }
  - { offsetInCU: 0x1465C, offset: 0xA7055, size: 0x8, addend: 0x0, symName: __ZNKSt3__19basic_iosIcNS_11char_traitsIcEEE4fillB8ue170006Ev, symObjAddr: 0x3948, symBinAddr: 0x10001E968, symSize: 0x64 }
  - { offsetInCU: 0x14683, offset: 0xA707C, size: 0x8, addend: 0x0, symName: __ZNKSt3__119ostreambuf_iteratorIcNS_11char_traitsIcEEE6failedB8ue170006Ev, symObjAddr: 0x39AC, symBinAddr: 0x10001E9CC, symSize: 0x24 }
  - { offsetInCU: 0x146A8, offset: 0xA70A1, size: 0x8, addend: 0x0, symName: __ZNKSt3__18ios_base5widthB8ue170006Ev, symObjAddr: 0x39D0, symBinAddr: 0x10001E9F0, symSize: 0x18 }
  - { offsetInCU: 0x146CF, offset: 0xA70C8, size: 0x8, addend: 0x0, symName: __ZNSt3__115basic_streambufIcNS_11char_traitsIcEEE5sputnB8ue170006EPKcl, symObjAddr: 0x39E8, symBinAddr: 0x10001EA08, symSize: 0x3C }
  - { offsetInCU: 0x14710, offset: 0xA7109, size: 0x8, addend: 0x0, symName: __ZNSt3__112basic_stringIcNS_11char_traitsIcEENS_9allocatorIcEEE4dataB8ue170006Ev, symObjAddr: 0x3A60, symBinAddr: 0x10001EA44, symSize: 0x28 }
  - { offsetInCU: 0x14735, offset: 0xA712E, size: 0x8, addend: 0x0, symName: __ZNSt3__18ios_base5widthB8ue170006El, symObjAddr: 0x3A88, symBinAddr: 0x10001EA6C, symSize: 0x2C }
  - { offsetInCU: 0x1477C, offset: 0xA7175, size: 0x8, addend: 0x0, symName: __ZNSt3__119ostreambuf_iteratorIcNS_11char_traitsIcEEEC2B8ue170006ERNS_13basic_ostreamIcS2_EE, symObjAddr: 0x3B68, symBinAddr: 0x10001EAAC, symSize: 0x54 }
  - { offsetInCU: 0x147B2, offset: 0xA71AB, size: 0x8, addend: 0x0, symName: __ZNKSt3__112basic_stringIcNS_11char_traitsIcEENS_9allocatorIcEEE9ends_withB8ue170006ENS_17basic_string_viewIcS2_EE, symObjAddr: 0x3BBC, symBinAddr: 0x10001EB00, symSize: 0x70 }
  - { offsetInCU: 0x147E7, offset: 0xA71E0, size: 0x8, addend: 0x0, symName: __ZNSt3__117basic_string_viewIcNS_11char_traitsIcEEEC1B8ue170006EPKc, symObjAddr: 0x3C2C, symBinAddr: 0x10001EB70, symSize: 0x34 }
  - { offsetInCU: 0x1481F, offset: 0xA7218, size: 0x8, addend: 0x0, symName: __ZNSt3__117basic_string_viewIcNS_11char_traitsIcEEEC1B8ue170006EPKcm, symObjAddr: 0x3C60, symBinAddr: 0x10001EBA4, symSize: 0x3C }
  - { offsetInCU: 0x14867, offset: 0xA7260, size: 0x8, addend: 0x0, symName: __ZNKSt3__117basic_string_viewIcNS_11char_traitsIcEEE9ends_withB8ue170006ES3_, symObjAddr: 0x3C9C, symBinAddr: 0x10001EBE0, symSize: 0xCC }
  - { offsetInCU: 0x1489C, offset: 0xA7295, size: 0x8, addend: 0x0, symName: __ZNSt3__117basic_string_viewIcNS_11char_traitsIcEEEC2B8ue170006EPKcm, symObjAddr: 0x3D68, symBinAddr: 0x10001ECAC, symSize: 0x2C }
  - { offsetInCU: 0x148E5, offset: 0xA72DE, size: 0x8, addend: 0x0, symName: __ZNKSt3__117basic_string_viewIcNS_11char_traitsIcEEE4sizeB8ue170006Ev, symObjAddr: 0x3D94, symBinAddr: 0x10001ECD8, symSize: 0x18 }
  - { offsetInCU: 0x1490A, offset: 0xA7303, size: 0x8, addend: 0x0, symName: __ZNKSt3__117basic_string_viewIcNS_11char_traitsIcEEE7compareB8ue170006EmmS3_, symObjAddr: 0x3DAC, symBinAddr: 0x10001ECF0, symSize: 0x60 }
  - { offsetInCU: 0x1495F, offset: 0xA7358, size: 0x8, addend: 0x0, symName: __ZNKSt3__117basic_string_viewIcNS_11char_traitsIcEEE6substrB8ue170006Emm, symObjAddr: 0x3E0C, symBinAddr: 0x10001ED50, symSize: 0xAC }
  - { offsetInCU: 0x149A4, offset: 0xA739D, size: 0x8, addend: 0x0, symName: __ZNKSt3__117basic_string_viewIcNS_11char_traitsIcEEE7compareES3_, symObjAddr: 0x3EB8, symBinAddr: 0x10001EDFC, symSize: 0x13C }
  - { offsetInCU: 0x149F9, offset: 0xA73F2, size: 0x8, addend: 0x0, symName: __ZNSt3__117basic_string_viewIcNS_11char_traitsIcEEEC1B8ue170006Ev, symObjAddr: 0x4058, symBinAddr: 0x10001EF38, symSize: 0x2C }
  - { offsetInCU: 0x14A21, offset: 0xA741A, size: 0x8, addend: 0x0, symName: __ZNKSt3__117basic_string_viewIcNS_11char_traitsIcEEE4dataB8ue170006Ev, symObjAddr: 0x4084, symBinAddr: 0x10001EF64, symSize: 0x18 }
  - { offsetInCU: 0x14A46, offset: 0xA743F, size: 0x8, addend: 0x0, symName: __ZNSt3__117basic_string_viewIcNS_11char_traitsIcEEEC2B8ue170006Ev, symObjAddr: 0x4148, symBinAddr: 0x10001EF7C, symSize: 0x1C }
  - { offsetInCU: 0x14A83, offset: 0xA747C, size: 0x8, addend: 0x0, symName: __ZNSt3__111char_traitsIcE7compareB8ue170006EPKcS3_m, symObjAddr: 0x41EC, symBinAddr: 0x10001EF98, symSize: 0x34 }
  - { offsetInCU: 0x14AC2, offset: 0xA74BB, size: 0x8, addend: 0x0, symName: __ZNSt3__117basic_string_viewIcNS_11char_traitsIcEEEC2B8ue170006EPKc, symObjAddr: 0x4220, symBinAddr: 0x10001EFCC, symSize: 0x44 }
  - { offsetInCU: 0x14AFA, offset: 0xA74F3, size: 0x8, addend: 0x0, symName: __ZNSt3__114basic_ofstreamIcNS_11char_traitsIcEEED2Ev, symObjAddr: 0x4288, symBinAddr: 0x10001F034, symSize: 0x64 }
  - { offsetInCU: 0x14B32, offset: 0xA752B, size: 0x8, addend: 0x0, symName: __ZTv0_n24_NSt3__114basic_ofstreamIcNS_11char_traitsIcEEED1Ev, symObjAddr: 0x42EC, symBinAddr: 0x10001F098, symSize: 0x28 }
  - { offsetInCU: 0x14B49, offset: 0xA7542, size: 0x8, addend: 0x0, symName: __ZNKSt3__14__fs10filesystem4path18has_root_directoryB8ue170006Ev, symObjAddr: 0x4314, symBinAddr: 0x10001F0C0, symSize: 0x40 }
  - { offsetInCU: 0x14B6E, offset: 0xA7567, size: 0x8, addend: 0x0, symName: __ZNKSt3__117basic_string_viewIcNS_11char_traitsIcEEE5emptyB8ue170006Ev, symObjAddr: 0x4354, symBinAddr: 0x10001F100, symSize: 0x24 }
  - { offsetInCU: 0x14B93, offset: 0xA758C, size: 0x8, addend: 0x0, symName: __ZNSt3__112basic_stringIcNS_11char_traitsIcEENS_9allocatorIcEEEC1INS_17basic_string_viewIcS2_EELi0EEERKT_, symObjAddr: 0x4378, symBinAddr: 0x10001F124, symSize: 0x34 }
  - { offsetInCU: 0x14BDA, offset: 0xA75D3, size: 0x8, addend: 0x0, symName: __ZNSt3__14__fs10filesystem4pathC1B8ue170006EONS_12basic_stringIcNS_11char_traitsIcEENS_9allocatorIcEEEENS2_6formatE, symObjAddr: 0x43AC, symBinAddr: 0x10001F158, symSize: 0x3C }
  - { offsetInCU: 0x14C1E, offset: 0xA7617, size: 0x8, addend: 0x0, symName: __ZNSt3__112basic_stringIcNS_11char_traitsIcEENS_9allocatorIcEEEC2INS_17basic_string_viewIcS2_EELi0EEERKT_, symObjAddr: 0x43E8, symBinAddr: 0x10001F194, symSize: 0x70 }
  - { offsetInCU: 0x14C84, offset: 0xA767D, size: 0x8, addend: 0x0, symName: __ZNSt3__14__fs10filesystem4pathC2B8ue170006EONS_12basic_stringIcNS_11char_traitsIcEENS_9allocatorIcEEEENS2_6formatE, symObjAddr: 0x4458, symBinAddr: 0x10001F204, symSize: 0x38 }
  - { offsetInCU: 0x14CC8, offset: 0xA76C1, size: 0x8, addend: 0x0, symName: __ZNSt3__14__fs10filesystem4pathdVB8ue170006ERKS2_, symObjAddr: 0x450C, symBinAddr: 0x10001F23C, symSize: 0x94 }
  - { offsetInCU: 0x14CFD, offset: 0xA76F6, size: 0x8, addend: 0x0, symName: __ZNKSt3__14__fs10filesystem4path12has_filenameB8ue170006Ev, symObjAddr: 0x45A0, symBinAddr: 0x10001F2D0, symSize: 0x40 }
  - { offsetInCU: 0x14D22, offset: 0xA771B, size: 0x8, addend: 0x0, symName: __ZNSt3__112basic_stringIcNS_11char_traitsIcEENS_9allocatorIcEEEpLB8ue170006Ec, symObjAddr: 0x45E0, symBinAddr: 0x10001F310, symSize: 0x34 }
  - { offsetInCU: 0x14D57, offset: 0xA7750, size: 0x8, addend: 0x0, symName: __ZNKSt3__14__fs10filesystem4path6nativeB8ue170006Ev, symObjAddr: 0x4614, symBinAddr: 0x10001F344, symSize: 0x14 }
  - { offsetInCU: 0x14D7C, offset: 0xA7775, size: 0x8, addend: 0x0, symName: __ZNSt3__116allocator_traitsINS_9allocatorIcEEE37select_on_container_copy_constructionB8ue170006IS2_vvEES2_RKS2_, symObjAddr: 0x4930, symBinAddr: 0x10001F5E8, symSize: 0x10 }
  - { offsetInCU: 0x14DAE, offset: 0xA77A7, size: 0x8, addend: 0x0, symName: __ZNKSt3__112basic_stringIcNS_11char_traitsIcEENS_9allocatorIcEEE13get_allocatorB8ue170006Ev, symObjAddr: 0x4940, symBinAddr: 0x10001F5F8, symSize: 0x24 }
  - { offsetInCU: 0x14DD3, offset: 0xA77CC, size: 0x8, addend: 0x0, symName: __ZNSt3__112basic_stringIcNS_11char_traitsIcEENS_9allocatorIcEEEC1B8ue170006ENS_24__uninitialized_size_tagEmRKS4_, symObjAddr: 0x4964, symBinAddr: 0x10001F61C, symSize: 0x3C }
  - { offsetInCU: 0x14E27, offset: 0xA7820, size: 0x8, addend: 0x0, symName: __ZNSt3__111char_traitsIcE4copyB8ue170006EPcPKcm, symObjAddr: 0x49A0, symBinAddr: 0x10001F658, symSize: 0x40 }
  - { offsetInCU: 0x14E66, offset: 0xA785F, size: 0x8, addend: 0x0, symName: __ZNSt3__111char_traitsIcE6assignB8ue170006EPcmc, symObjAddr: 0x49E0, symBinAddr: 0x10001F698, symSize: 0x44 }
  - { offsetInCU: 0x14EA5, offset: 0xA789E, size: 0x8, addend: 0x0, symName: __ZNSt3__112basic_stringIcNS_11char_traitsIcEENS_9allocatorIcEEEC2B8ue170006ENS_24__uninitialized_size_tagEmRKS4_, symObjAddr: 0x4A24, symBinAddr: 0x10001F6DC, symSize: 0x110 }
  - { offsetInCU: 0x14F28, offset: 0xA7921, size: 0x8, addend: 0x0, symName: __ZNSt3__117__compressed_pairINS_12basic_stringIcNS_11char_traitsIcEENS_9allocatorIcEEE5__repES5_EC1B8ue170006INS_18__default_init_tagERKS5_EEOT_OT0_, symObjAddr: 0x4B34, symBinAddr: 0x10001F7EC, symSize: 0x3C }
  - { offsetInCU: 0x14F7E, offset: 0xA7977, size: 0x8, addend: 0x0, symName: __ZNKSt3__112basic_stringIcNS_11char_traitsIcEENS_9allocatorIcEEE20__throw_length_errorB8ue170006Ev, symObjAddr: 0x4B70, symBinAddr: 0x10001F828, symSize: 0x1C }
  - { offsetInCU: 0x14FA3, offset: 0xA799C, size: 0x8, addend: 0x0, symName: __ZNSt3__112basic_stringIcNS_11char_traitsIcEENS_9allocatorIcEEE13__fits_in_ssoB8ue170006Em, symObjAddr: 0x4B8C, symBinAddr: 0x10001F844, symSize: 0x20 }
  - { offsetInCU: 0x14FC8, offset: 0xA79C1, size: 0x8, addend: 0x0, symName: __ZNSt3__112basic_stringIcNS_11char_traitsIcEENS_9allocatorIcEEE11__recommendB8ue170006Em, symObjAddr: 0x4BAC, symBinAddr: 0x10001F864, symSize: 0x84 }
  - { offsetInCU: 0x14FFD, offset: 0xA79F6, size: 0x8, addend: 0x0, symName: __ZNSt3__116allocator_traitsINS_9allocatorIcEEE8allocateB8ue170006ERS2_m, symObjAddr: 0x4C30, symBinAddr: 0x10001F8E8, symSize: 0x2C }
  - { offsetInCU: 0x15032, offset: 0xA7A2B, size: 0x8, addend: 0x0, symName: __ZNSt3__112basic_stringIcNS_11char_traitsIcEENS_9allocatorIcEEE7__allocB8ue170006Ev, symObjAddr: 0x4C5C, symBinAddr: 0x10001F914, symSize: 0x24 }
  - { offsetInCU: 0x15057, offset: 0xA7A50, size: 0x8, addend: 0x0, symName: __ZNSt3__112basic_stringIcNS_11char_traitsIcEENS_9allocatorIcEEE16__begin_lifetimeB8ue170006EPcm, symObjAddr: 0x4C80, symBinAddr: 0x10001F938, symSize: 0x14 }
  - { offsetInCU: 0x1508C, offset: 0xA7A85, size: 0x8, addend: 0x0, symName: __ZNSt3__112basic_stringIcNS_11char_traitsIcEENS_9allocatorIcEEE14__set_long_capB8ue170006Em, symObjAddr: 0x4C94, symBinAddr: 0x10001F94C, symSize: 0x70 }
  - { offsetInCU: 0x150C1, offset: 0xA7ABA, size: 0x8, addend: 0x0, symName: __ZNSt3__112basic_stringIcNS_11char_traitsIcEENS_9allocatorIcEEE18__set_long_pointerB8ue170006EPc, symObjAddr: 0x4D04, symBinAddr: 0x10001F9BC, symSize: 0x38 }
  - { offsetInCU: 0x150F6, offset: 0xA7AEF, size: 0x8, addend: 0x0, symName: __ZNSt3__117__compressed_pairINS_12basic_stringIcNS_11char_traitsIcEENS_9allocatorIcEEE5__repES5_EC2B8ue170006INS_18__default_init_tagERKS5_EEOT_OT0_, symObjAddr: 0x4D3C, symBinAddr: 0x10001F9F4, symSize: 0x40 }
  - { offsetInCU: 0x1514C, offset: 0xA7B45, size: 0x8, addend: 0x0, symName: __ZNSt3__122__compressed_pair_elemINS_9allocatorIcEELi1ELb1EEC2B8ue170006IRKS2_vEEOT_, symObjAddr: 0x4D7C, symBinAddr: 0x10001FA34, symSize: 0x18 }
  - { offsetInCU: 0x1518E, offset: 0xA7B87, size: 0x8, addend: 0x0, symName: __ZNSt3__112basic_stringIcNS_11char_traitsIcEENS_9allocatorIcEEE10__align_itB8ue170006ILm16EEEmm, symObjAddr: 0x4E78, symBinAddr: 0x10001FA4C, symSize: 0x1C }
  - { offsetInCU: 0x151BD, offset: 0xA7BB6, size: 0x8, addend: 0x0, symName: __ZNSt3__19allocatorIcE8allocateB8ue170006Em, symObjAddr: 0x4E94, symBinAddr: 0x10001FA68, symSize: 0x58 }
  - { offsetInCU: 0x151F0, offset: 0xA7BE9, size: 0x8, addend: 0x0, symName: __ZNSt3__117__compressed_pairINS_12basic_stringIcNS_11char_traitsIcEENS_9allocatorIcEEE5__repES5_E6secondB8ue170006Ev, symObjAddr: 0x4FD0, symBinAddr: 0x10001FAC0, symSize: 0x24 }
  - { offsetInCU: 0x15215, offset: 0xA7C0E, size: 0x8, addend: 0x0, symName: __ZNSt3__122__compressed_pair_elemINS_9allocatorIcEELi1ELb1EE5__getB8ue170006Ev, symObjAddr: 0x4FF4, symBinAddr: 0x10001FAE4, symSize: 0x14 }
  - { offsetInCU: 0x1525D, offset: 0xA7C56, size: 0x8, addend: 0x0, symName: __ZNKSt3__114__copy_trivialclB8ue170006IKccLi0EEENS_4pairIPT_PT0_EES5_S5_S7_, symObjAddr: 0x5204, symBinAddr: 0x10001FCF4, symSize: 0x48 }
  - { offsetInCU: 0x152DD, offset: 0xA7CD6, size: 0x8, addend: 0x0, symName: __ZNSt3__119__unwrap_range_implIPKcS2_E8__unwrapB8ue170006ES2_S2_, symObjAddr: 0x5310, symBinAddr: 0x10001FE00, symSize: 0x58 }
  - { offsetInCU: 0x15313, offset: 0xA7D0C, size: 0x8, addend: 0x0, symName: __ZNSt3__14pairIPKcS2_EC1B8ue170006IS2_S2_LPv0EEEOT_OT0_, symObjAddr: 0x538C, symBinAddr: 0x10001FE7C, symSize: 0x3C }
  - { offsetInCU: 0x1536F, offset: 0xA7D68, size: 0x8, addend: 0x0, symName: __ZNSt3__118__unwrap_iter_implIPKcLb1EE8__unwrapB8ue170006ES2_, symObjAddr: 0x53C8, symBinAddr: 0x10001FEB8, symSize: 0x24 }
  - { offsetInCU: 0x15392, offset: 0xA7D8B, size: 0x8, addend: 0x0, symName: __ZNSt3__14pairIPKcS2_EC2B8ue170006IS2_S2_LPv0EEEOT_OT0_, symObjAddr: 0x53EC, symBinAddr: 0x10001FEDC, symSize: 0x34 }
  - { offsetInCU: 0x153F9, offset: 0xA7DF2, size: 0x8, addend: 0x0, symName: __ZNSt3__14pairIPKcPcEC1B8ue170006IRS2_S3_LPv0EEEOT_OT0_, symObjAddr: 0x5534, symBinAddr: 0x100020024, symSize: 0x3C }
  - { offsetInCU: 0x15455, offset: 0xA7E4E, size: 0x8, addend: 0x0, symName: __ZNSt3__14pairIPKcPcEC2B8ue170006IRS2_S3_LPv0EEEOT_OT0_, symObjAddr: 0x5570, symBinAddr: 0x100020060, symSize: 0x34 }
  - { offsetInCU: 0x154B2, offset: 0xA7EAB, size: 0x8, addend: 0x0, symName: __ZNSt3__118__unwrap_iter_implIPcLb1EE8__unwrapB8ue170006ES1_, symObjAddr: 0x55A4, symBinAddr: 0x100020094, symSize: 0x24 }
  - { offsetInCU: 0x154D5, offset: 0xA7ECE, size: 0x8, addend: 0x0, symName: __ZNSt3__14pairIPKcPcEC1B8ue170006IS2_S3_LPv0EEEOT_OT0_, symObjAddr: 0x55C8, symBinAddr: 0x1000200B8, symSize: 0x3C }
  - { offsetInCU: 0x15531, offset: 0xA7F2A, size: 0x8, addend: 0x0, symName: __ZNSt3__14pairIPKcPcEC2B8ue170006IS2_S3_LPv0EEEOT_OT0_, symObjAddr: 0x5604, symBinAddr: 0x1000200F4, symSize: 0x34 }
  - { offsetInCU: 0x1558E, offset: 0xA7F87, size: 0x8, addend: 0x0, symName: __ZNSt3__119__unwrap_range_implIPKcS2_E8__rewrapB8ue170006ES2_S2_, symObjAddr: 0x5638, symBinAddr: 0x100020128, symSize: 0x2C }
  - { offsetInCU: 0x155BF, offset: 0xA7FB8, size: 0x8, addend: 0x0, symName: __ZNSt3__118__unwrap_iter_implIPKcLb1EE8__rewrapB8ue170006ES2_S2_, symObjAddr: 0x56A0, symBinAddr: 0x100020190, symSize: 0x48 }
  - { offsetInCU: 0x155F0, offset: 0xA7FE9, size: 0x8, addend: 0x0, symName: __ZNSt3__118__unwrap_iter_implIPcLb1EE8__rewrapB8ue170006ES1_S1_, symObjAddr: 0x56E8, symBinAddr: 0x1000201D8, symSize: 0x48 }
  - { offsetInCU: 0x15621, offset: 0xA801A, size: 0x8, addend: 0x0, symName: __ZNSt3__14__fs10filesystem4pathC2B8ue170006INS_12basic_stringIcNS_11char_traitsIcEENS_9allocatorIcEEEEvEERKT_NS2_6formatE, symObjAddr: 0x57EC, symBinAddr: 0x1000202DC, symSize: 0x68 }
  - { offsetInCU: 0x15675, offset: 0xA806E, size: 0x8, addend: 0x0, symName: __ZNSt3__14__fs10filesystem8_PathCVTIcE15__append_sourceB8ue170006INS_12basic_stringIcNS_11char_traitsIcEENS_9allocatorIcEEEEEEvRSA_RKT_, symObjAddr: 0x5854, symBinAddr: 0x100020344, symSize: 0x4C }
  - { offsetInCU: 0x156B3, offset: 0xA80AC, size: 0x8, addend: 0x0, symName: __ZNSt3__14__fs10filesystem8_PathCVTIcE14__append_rangeB8ue170006IPKcEENS_9enable_ifIXsr31__has_forward_iterator_categoryIT_EE5valueEvE4typeERNS_12basic_stringIcNS_11char_traitsIcEENS_9allocatorIcEEEES8_S8_, symObjAddr: 0x58A0, symBinAddr: 0x100020390, symSize: 0x34 }
  - { offsetInCU: 0x1570B, offset: 0xA8104, size: 0x8, addend: 0x0, symName: __ZNSt3__14__fs10filesystem20__is_pathable_stringINS_12basic_stringIcNS_11char_traitsIcEENS_9allocatorIcEEEEvE13__range_beginB8ue170006ERKS8_, symObjAddr: 0x58D4, symBinAddr: 0x1000203C4, symSize: 0x24 }
  - { offsetInCU: 0x1572E, offset: 0xA8127, size: 0x8, addend: 0x0, symName: __ZNSt3__14__fs10filesystem20__is_pathable_stringINS_12basic_stringIcNS_11char_traitsIcEENS_9allocatorIcEEEEvE11__range_endB8ue170006ERKS8_, symObjAddr: 0x58F8, symBinAddr: 0x1000203E8, symSize: 0x3C }
  - { offsetInCU: 0x15751, offset: 0xA814A, size: 0x8, addend: 0x0, symName: __ZNSt3__112basic_stringIcNS_11char_traitsIcEENS_9allocatorIcEEE6appendB8ue170006IPKcLi0EEERS5_T_SA_, symObjAddr: 0x5934, symBinAddr: 0x100020424, symSize: 0x1E4 }
  - { offsetInCU: 0x1580C, offset: 0xA8205, size: 0x8, addend: 0x0, symName: __ZNKSt3__112basic_stringIcNS_11char_traitsIcEENS_9allocatorIcEEE8capacityB8ue170006Ev, symObjAddr: 0x5B18, symBinAddr: 0x100020608, symSize: 0x54 }
  - { offsetInCU: 0x15831, offset: 0xA822A, size: 0x8, addend: 0x0, symName: __ZNKSt3__112basic_stringIcNS_11char_traitsIcEENS_9allocatorIcEEE15__addr_in_rangeB8ue170006IcEEbRKT_, symObjAddr: 0x5B98, symBinAddr: 0x100020688, symSize: 0x6C }
  - { offsetInCU: 0x1586F, offset: 0xA8268, size: 0x8, addend: 0x0, symName: __ZNSt3__112basic_stringIcNS_11char_traitsIcEENS_9allocatorIcEEE25__grow_by_without_replaceB8ue170006Emmmmmm, symObjAddr: 0x5C04, symBinAddr: 0x1000206F4, symSize: 0x74 }
  - { offsetInCU: 0x158F6, offset: 0xA82EF, size: 0x8, addend: 0x0, symName: __ZNSt3__112basic_stringIcNS_11char_traitsIcEENS_9allocatorIcEEE10__set_sizeB8ue170006Em, symObjAddr: 0x5C78, symBinAddr: 0x100020768, symSize: 0x54 }
  - { offsetInCU: 0x1592B, offset: 0xA8324, size: 0x8, addend: 0x0, symName: __ZNSt3__112basic_stringIcNS_11char_traitsIcEENS_9allocatorIcEEEC1B8ue170006IPKcLi0EEET_S9_RKS4_, symObjAddr: 0x5CCC, symBinAddr: 0x1000207BC, symSize: 0x44 }
  - { offsetInCU: 0x15992, offset: 0xA838B, size: 0x8, addend: 0x0, symName: __ZNKSt3__112basic_stringIcNS_11char_traitsIcEENS_9allocatorIcEEE14__get_long_capB8ue170006Ev, symObjAddr: 0x5D10, symBinAddr: 0x100020800, symSize: 0x30 }
  - { offsetInCU: 0x159C1, offset: 0xA83BA, size: 0x8, addend: 0x0, symName: __ZNKSt3__16__lessIvvEclB8ue170006IPKcS4_EEbRKT_RKT0_, symObjAddr: 0x5DC8, symBinAddr: 0x1000208B8, symSize: 0x34 }
  - { offsetInCU: 0x15A14, offset: 0xA840D, size: 0x8, addend: 0x0, symName: __ZNSt3__112basic_stringIcNS_11char_traitsIcEENS_9allocatorIcEEEC2B8ue170006IPKcLi0EEET_S9_RKS4_, symObjAddr: 0x5DFC, symBinAddr: 0x1000208EC, symSize: 0x50 }
  - { offsetInCU: 0x15A7B, offset: 0xA8474, size: 0x8, addend: 0x0, symName: __ZNSt3__112basic_stringIcNS_11char_traitsIcEENS_9allocatorIcEEE6__initIPKcLi0EEEvT_S9_, symObjAddr: 0x5E4C, symBinAddr: 0x10002093C, symSize: 0x54 }
  - { offsetInCU: 0x15AE1, offset: 0xA84DA, size: 0x8, addend: 0x0, symName: __ZNSt3__112basic_stringIcNS_11char_traitsIcEENS_9allocatorIcEEE16__init_with_sizeB8ue170006IPKcS8_EEvT_T0_m, symObjAddr: 0x5EA0, symBinAddr: 0x100020990, symSize: 0x144 }
  - { offsetInCU: 0x15B79, offset: 0xA8572, size: 0x8, addend: 0x0, symName: __ZNKSt3__14__fs10filesystem4path5c_strB8ue170006Ev, symObjAddr: 0x6048, symBinAddr: 0x100020B14, symSize: 0x24 }
  - { offsetInCU: 0x15B9E, offset: 0xA8597, size: 0x8, addend: 0x0, symName: __ZNSt3__114basic_ifstreamIcNS_11char_traitsIcEEEC1EPKcj, symObjAddr: 0x606C, symBinAddr: 0x100020B38, symSize: 0x16C }
  - { offsetInCU: 0x15BE9, offset: 0xA85E2, size: 0x8, addend: 0x0, symName: __ZNSt3__113basic_istreamIcNS_11char_traitsIcEEEC2B8ue170006EPNS_15basic_streambufIcS2_EE, symObjAddr: 0x61D8, symBinAddr: 0x100020CA4, symSize: 0x64 }
  - { offsetInCU: 0x15C2B, offset: 0xA8624, size: 0x8, addend: 0x0, symName: __ZNSt3__14__fs10filesystem4pathC2B8ue170006IA8_cvEERKT_NS2_6formatE, symObjAddr: 0x623C, symBinAddr: 0x100020D08, symSize: 0x68 }
  - { offsetInCU: 0x15C7A, offset: 0xA8673, size: 0x8, addend: 0x0, symName: __ZNSt3__14__fs10filesystem8_PathCVTIcE15__append_sourceB8ue170006IA8_cEEvRNS_12basic_stringIcNS_11char_traitsIcEENS_9allocatorIcEEEERKT_, symObjAddr: 0x62A4, symBinAddr: 0x100020D70, symSize: 0x4C }
  - { offsetInCU: 0x15CB8, offset: 0xA86B1, size: 0x8, addend: 0x0, symName: __ZNSt3__14__fs10filesystem24__is_pathable_char_arrayIA8_cPccLb1EE13__range_beginB8ue170006EPKc, symObjAddr: 0x62F0, symBinAddr: 0x100020DBC, symSize: 0x14 }
  - { offsetInCU: 0x15CDB, offset: 0xA86D4, size: 0x8, addend: 0x0, symName: __ZNSt3__14__fs10filesystem24__is_pathable_char_arrayIA8_cPccLb1EE11__range_endB8ue170006EPKc, symObjAddr: 0x6304, symBinAddr: 0x100020DD0, symSize: 0x50 }
  - { offsetInCU: 0x39, offset: 0xA88F5, size: 0x8, addend: 0x0, symName: __ZN16EditorController20c_autosave_frequencyE, symObjAddr: 0xC958, symBinAddr: 0x1000A4790, symSize: 0x0 }
  - { offsetInCU: 0x117F7, offset: 0xBA0B3, size: 0x8, addend: 0x0, symName: __ZNSt3__16chronossB8ue170006IxNS_5ratioILl1ELl1000000000EEExS3_EEDaRKNS0_8durationIT_T0_EERKNS5_IT1_T2_EE, symObjAddr: 0xA5D0, symBinAddr: 0x100025ABC, symSize: 0x8C }
  - { offsetInCU: 0x11867, offset: 0xBA123, size: 0x8, addend: 0x0, symName: __ZNSt3__16chronomiB8ue170006IxNS_5ratioILl1ELl1000000000EEExS3_EENS_11common_typeIJNS0_8durationIT_T0_EENS5_IT1_T2_EEEE4typeERKS8_RKSB_, symObjAddr: 0xAD3C, symBinAddr: 0x100026228, symSize: 0x70 }
  - { offsetInCU: 0x118D7, offset: 0xBA193, size: 0x8, addend: 0x0, symName: __ZNSt3__16chronoplB8ue170006INS0_12steady_clockENS0_8durationIxNS_5ratioILl1ELl1000000000EEEEExNS4_ILl1ELl1EEEEENS0_10time_pointIT_NS_11common_typeIJT0_NS3_IT1_T2_EEEE4typeEEERKNS8_IS9_SB_EERKSE_, symObjAddr: 0xA164, symBinAddr: 0x100025650, symSize: 0x50 }
  - { offsetInCU: 0x11940, offset: 0xBA1FC, size: 0x8, addend: 0x0, symName: __ZNSt3__16chronoplB8ue170006IxNS_5ratioILl1ELl1000000000EEExNS2_ILl1ELl1EEEEENS_11common_typeIJNS0_8durationIT_T0_EENS6_IT1_T2_EEEE4typeERKS9_RKSC_, symObjAddr: 0xADAC, symBinAddr: 0x100026298, symSize: 0x7C }
  - { offsetInCU: 0x11A03, offset: 0xBA2BF, size: 0x8, addend: 0x0, symName: __ZNSt3__16chronossB8ue170006INS0_12steady_clockENS0_8durationIxNS_5ratioILl1ELl1000000000EEEEES6_EEDaRKNS0_10time_pointIT_T0_EERKNS8_IS9_T1_EE, symObjAddr: 0xA300, symBinAddr: 0x1000257EC, symSize: 0x58 }
  - { offsetInCU: 0x11A98, offset: 0xBA354, size: 0x8, addend: 0x0, symName: __ZNSt3__16chronomiB8ue170006INS0_12steady_clockENS0_8durationIxNS_5ratioILl1ELl1000000000EEEEES6_EENS_11common_typeIJT0_T1_EE4typeERKNS0_10time_pointIT_S8_EERKNSC_ISD_S9_EE, symObjAddr: 0xAA84, symBinAddr: 0x100025F70, symSize: 0x58 }
  - { offsetInCU: 0x11AF3, offset: 0xBA3AF, size: 0x8, addend: 0x0, symName: __ZNSt3__16chrono13duration_castB8ue170006INS0_8durationIxNS_5ratioILl1ELl1000000000EEEEExNS3_ILl1ELl1EEEEENS_9enable_ifIXsr13__is_durationIT_EE5valueES8_E4typeERKNS2_IT0_T1_EE, symObjAddr: 0xAEB4, symBinAddr: 0x1000263A0, symSize: 0x30 }
  - { offsetInCU: 0x12063, offset: 0xBA91F, size: 0x8, addend: 0x0, symName: __ZNSt3__117__cxx_atomic_loadB8ue170006IbEET_PKNS_22__cxx_atomic_base_implIS1_EENS_12memory_orderE, symObjAddr: 0x8FD8, symBinAddr: 0x100024710, symSize: 0x84 }
  - { offsetInCU: 0x137E6, offset: 0xBC0A2, size: 0x8, addend: 0x0, symName: __ZNSt3__127__throw_bad_optional_accessB8ue170006Ev, symObjAddr: 0x13E0, symBinAddr: 0x100021E4C, symSize: 0x38 }
  - { offsetInCU: 0x13801, offset: 0xBC0BD, size: 0x8, addend: 0x0, symName: __ZNSt3__122__libcpp_thread_isnullB8ue170006EPKP17_opaque_pthread_t, symObjAddr: 0x4B9C, symBinAddr: 0x100023150, symSize: 0x30 }
  - { offsetInCU: 0x13831, offset: 0xBC0ED, size: 0x8, addend: 0x0, symName: __ZNSt3__122__libcpp_thread_get_idB8ue170006EPKP17_opaque_pthread_t, symObjAddr: 0x4BCC, symBinAddr: 0x100023180, symSize: 0x18 }
  - { offsetInCU: 0x13861, offset: 0xBC11D, size: 0x8, addend: 0x0, symName: __ZNSt3__1neB8ue170006ERKNS_16__deque_iteratorINS_10shared_ptrI6ActionEEPS3_RS3_PS4_lLl256EEES9_, symObjAddr: 0x51D8, symBinAddr: 0x100023758, symSize: 0x34 }
  - { offsetInCU: 0x138A1, offset: 0xBC15D, size: 0x8, addend: 0x0, symName: __ZNSt3__1eqB8ue170006ERKNS_16__deque_iteratorINS_10shared_ptrI6ActionEEPS3_RS3_PS4_lLl256EEES9_, symObjAddr: 0x53B8, symBinAddr: 0x100023910, symSize: 0x30 }
  - { offsetInCU: 0x138E2, offset: 0xBC19E, size: 0x8, addend: 0x0, symName: __ZNSt3__112__to_addressB8ue170006IPNS_10shared_ptrI6ActionEEEEPT_S6_, symObjAddr: 0x582C, symBinAddr: 0x100023CE8, symSize: 0x14 }
  - { offsetInCU: 0x13917, offset: 0xBC1D3, size: 0x8, addend: 0x0, symName: __ZNSt3__110destroy_atB8ue170006IPNS_10shared_ptrI6ActionEELi0EEEvPT_, symObjAddr: 0x5840, symBinAddr: 0x100023CFC, symSize: 0x24 }
  - { offsetInCU: 0x13950, offset: 0xBC20C, size: 0x8, addend: 0x0, symName: __ZNSt3__112__destroy_atB8ue170006IPNS_10shared_ptrI6ActionEELi0EEEvPT_, symObjAddr: 0x5864, symBinAddr: 0x100023D20, symSize: 0x10 }
  - { offsetInCU: 0x13A49, offset: 0xBC305, size: 0x8, addend: 0x0, symName: __ZNSt3__110destroy_atB8ue170006INS_4pairIKNS_12basic_stringIcNS_11char_traitsIcEENS_9allocatorIcEEEE13ToggleSettingEELi0EEEvPT_, symObjAddr: 0x5C54, symBinAddr: 0x100024110, symSize: 0x24 }
  - { offsetInCU: 0x13A81, offset: 0xBC33D, size: 0x8, addend: 0x0, symName: __ZNSt3__112__destroy_atB8ue170006INS_4pairIKNS_12basic_stringIcNS_11char_traitsIcEENS_9allocatorIcEEEE13ToggleSettingEELi0EEEvPT_, symObjAddr: 0x5C78, symBinAddr: 0x100024134, symSize: 0x24 }
  - { offsetInCU: 0x13AB9, offset: 0xBC375, size: 0x8, addend: 0x0, symName: __ZNSt3__17launderB8ue170006INS_4pairIKNS_12basic_stringIcNS_11char_traitsIcEENS_9allocatorIcEEEE13ToggleSettingEEEEPT_SC_, symObjAddr: 0x5D8C, symBinAddr: 0x100024248, symSize: 0x24 }
  - { offsetInCU: 0x13AF2, offset: 0xBC3AE, size: 0x8, addend: 0x0, symName: __ZNSt3__19__launderB8ue170006INS_4pairIKNS_12basic_stringIcNS_11char_traitsIcEENS_9allocatorIcEEEE13ToggleSettingEEEEPT_SC_, symObjAddr: 0x5DB0, symBinAddr: 0x10002426C, symSize: 0x14 }
  - { offsetInCU: 0x13B2C, offset: 0xBC3E8, size: 0x8, addend: 0x0, symName: __ZNSt3__118__cxx_atomic_storeB8ue170006IbEEvPNS_22__cxx_atomic_base_implIT_EES2_NS_12memory_orderE, symObjAddr: 0x6138, symBinAddr: 0x1000245F4, symSize: 0x90 }
  - { offsetInCU: 0x13FA1, offset: 0xBC85D, size: 0x8, addend: 0x0, symName: __ZNSt3__122__libcpp_thread_createB8ue170006EPP17_opaque_pthread_tPFPvS3_ES3_, symObjAddr: 0x93FC, symBinAddr: 0x1000249E4, symSize: 0x38 }
  - { offsetInCU: 0x13FF2, offset: 0xBC8AE, size: 0x8, addend: 0x0, symName: '__ZNSt3__114__thread_proxyB8ue170006INS_5tupleIJNS_10unique_ptrINS_15__thread_structENS_14default_deleteIS3_EEEEZN16EditorController17startAutoSaveLoopENS_4__fs10filesystem4pathEE3$_0EEEEEPvSD_', symObjAddr: 0x9434, symBinAddr: 0x100024A1C, symSize: 0x90 }
  - { offsetInCU: 0x14153, offset: 0xBCA0F, size: 0x8, addend: 0x0, symName: '__ZNSt3__13getB8ue170006ILm0EJNS_10unique_ptrINS_15__thread_structENS_14default_deleteIS2_EEEEZN16EditorController17startAutoSaveLoopENS_4__fs10filesystem4pathEE3$_0EEERNS_13tuple_elementIXT_ENS_5tupleIJDpT0_EEEE4typeERSF_', symObjAddr: 0x9CD8, symBinAddr: 0x1000251C4, symSize: 0x24 }
  - { offsetInCU: 0x1419D, offset: 0xBCA59, size: 0x8, addend: 0x0, symName: '__ZNSt3__116__thread_executeB8ue170006INS_10unique_ptrINS_15__thread_structENS_14default_deleteIS2_EEEEZN16EditorController17startAutoSaveLoopENS_4__fs10filesystem4pathEE3$_0JEJEEEvRNS_5tupleIJT_T0_DpT1_EEENS_15__tuple_indicesIJXspT2_EEEE', symObjAddr: 0x9CFC, symBinAddr: 0x1000251E8, symSize: 0x28 }
  - { offsetInCU: 0x141EE, offset: 0xBCAAA, size: 0x8, addend: 0x0, symName: __ZNSt3__116__libcpp_tls_setB8ue170006EmPv, symObjAddr: 0x9D24, symBinAddr: 0x100025210, symSize: 0x2C }
  - { offsetInCU: 0x1422F, offset: 0xBCAEB, size: 0x8, addend: 0x0, symName: '__ZNSt3__18__invokeB8ue170006IZN16EditorController17startAutoSaveLoopENS_4__fs10filesystem4pathEE3$_0JEEEDTclclsr3stdE7declvalIT_EEspclsr3stdE7declvalIT0_EEEEOS6_DpOS7_', symObjAddr: 0x9D64, symBinAddr: 0x100025250, symSize: 0x24 }
  - { offsetInCU: 0x1426A, offset: 0xBCB26, size: 0x8, addend: 0x0, symName: '__ZNSt3__13getB8ue170006ILm1EJNS_10unique_ptrINS_15__thread_structENS_14default_deleteIS2_EEEEZN16EditorController17startAutoSaveLoopENS_4__fs10filesystem4pathEE3$_0EEERNS_13tuple_elementIXT_ENS_5tupleIJDpT0_EEEE4typeERSF_', symObjAddr: 0x9D88, symBinAddr: 0x100025274, symSize: 0x28 }
  - { offsetInCU: 0x142B3, offset: 0xBCB6F, size: 0x8, addend: 0x0, symName: __ZNSt3__1leB8ue170006ENS_15strong_orderingENS_20_CmpUnspecifiedParamE, symObjAddr: 0xA2DC, symBinAddr: 0x1000257C8, symSize: 0x24 }
  - { offsetInCU: 0x1430B, offset: 0xBCBC7, size: 0x8, addend: 0x0, symName: __ZNSt3__122__safe_nanosecond_castB8ue170006IxNS_5ratioILl1ELl1000000000EEEEENS_9enable_ifIXntsr17is_floating_pointIT_EE5valueENS_6chrono8durationIxS2_EEE4typeENS6_IS4_T0_EE, symObjAddr: 0xA38C, symBinAddr: 0x100025878, symSize: 0x150 }
  - { offsetInCU: 0x1437B, offset: 0xBCC37, size: 0x8, addend: 0x0, symName: __ZNSt3__1ltB8ue170006ENS_15strong_orderingENS_20_CmpUnspecifiedParamE, symObjAddr: 0xA5AC, symBinAddr: 0x100025A98, symSize: 0x24 }
  - { offsetInCU: 0x145A1, offset: 0xBCE5D, size: 0x8, addend: 0x0, symName: __ZNSt3__122__safe_nanosecond_castB8ue170006IxNS_5ratioILl1ELl1000000EEEEENS_9enable_ifIXntsr17is_floating_pointIT_EE5valueENS_6chrono8durationIxNS1_ILl1ELl1000000000EEEEEE4typeENS6_IS4_T0_EE, symObjAddr: 0xAB18, symBinAddr: 0x100026004, symSize: 0x154 }
  - { offsetInCU: 0x15926, offset: 0xBE1E2, size: 0x8, addend: 0x0, symName: __ZN16EditorController17startAutoSaveLoopENSt3__14__fs10filesystem4pathE, symObjAddr: 0x754, symBinAddr: 0x1000214E0, symSize: 0x200 }
  - { offsetInCU: 0x15A75, offset: 0xBE331, size: 0x8, addend: 0x0, symName: __ZNSt3__118condition_variable10wait_untilINS_6chrono12steady_clockENS2_8durationIxNS_5ratioILl1ELl1000000000EEEEEEENS_9cv_statusERNS_11unique_lockINS_5mutexEEERKNS2_10time_pointIT_T0_EE, symObjAddr: 0xA1E4, symBinAddr: 0x1000256D0, symSize: 0xF8 }
  - { offsetInCU: 0x15B01, offset: 0xBE3BD, size: 0x8, addend: 0x0, symName: __ZNKSt3__16chrono15__duration_castINS0_8durationIxNS_5ratioILl1ELl1EEEEENS2_IxNS3_ILl1ELl1000000000EEEEENS3_ILl1000000000ELl1EEELb0ELb1EEclB8ue170006ERKS5_, symObjAddr: 0xAEE4, symBinAddr: 0x1000263D0, symSize: 0x4C }
  - { offsetInCU: 0x178AA, offset: 0xC0166, size: 0x8, addend: 0x0, symName: __ZN16EditorControllerC2ENSt3__18optionalINS0_12basic_stringIcNS0_11char_traitsIcEENS0_9allocatorIcEEEEEE, symObjAddr: 0x0, symBinAddr: 0x100020E20, symSize: 0x2B8 }
  - { offsetInCU: 0x178E4, offset: 0xC01A0, size: 0x8, addend: 0x0, symName: __ZNKSt3__123__optional_storage_baseINS_12basic_stringIcNS_11char_traitsIcEENS_9allocatorIcEEEELb0EE9has_valueB8ue170006Ev, symObjAddr: 0x2B8, symBinAddr: 0x1000210D8, symSize: 0x1C }
  - { offsetInCU: 0x17909, offset: 0xC01C5, size: 0x8, addend: 0x0, symName: __ZNSt3__18optionalINS_12basic_stringIcNS_11char_traitsIcEENS_9allocatorIcEEEEEptB8ue170006Ev, symObjAddr: 0x2D4, symBinAddr: 0x1000210F4, symSize: 0x24 }
  - { offsetInCU: 0x1792E, offset: 0xC01EA, size: 0x8, addend: 0x0, symName: __ZNRSt3__18optionalINS_12basic_stringIcNS_11char_traitsIcEENS_9allocatorIcEEEEE5valueB8ue170006Ev, symObjAddr: 0x328, symBinAddr: 0x100021118, symSize: 0x3C }
  - { offsetInCU: 0x17953, offset: 0xC020F, size: 0x8, addend: 0x0, symName: __ZN11EditorStateC1E8TextFile, symObjAddr: 0x364, symBinAddr: 0x100021154, symSize: 0x34 }
  - { offsetInCU: 0x1798A, offset: 0xC0246, size: 0x8, addend: 0x0, symName: __ZN9UiHandlerC1Ev, symObjAddr: 0x3F0, symBinAddr: 0x100021188, symSize: 0x2C }
  - { offsetInCU: 0x179B2, offset: 0xC026E, size: 0x8, addend: 0x0, symName: __ZN15UndoRedoManagerC1Ev, symObjAddr: 0x41C, symBinAddr: 0x1000211B4, symSize: 0x2C }
  - { offsetInCU: 0x179DA, offset: 0xC0296, size: 0x8, addend: 0x0, symName: __ZNSt3__16threadC1B8ue170006Ev, symObjAddr: 0x448, symBinAddr: 0x1000211E0, symSize: 0x2C }
  - { offsetInCU: 0x17A02, offset: 0xC02BE, size: 0x8, addend: 0x0, symName: __ZNSt3__118condition_variableC1B8ue170006Ev, symObjAddr: 0x474, symBinAddr: 0x10002120C, symSize: 0x2C }
  - { offsetInCU: 0x17A2A, offset: 0xC02E6, size: 0x8, addend: 0x0, symName: __ZNSt3__15mutexC1B8ue170006Ev, symObjAddr: 0x4A0, symBinAddr: 0x100021238, symSize: 0x2C }
  - { offsetInCU: 0x17A52, offset: 0xC030E, size: 0x8, addend: 0x0, symName: __ZN9UiHandlerD1Ev, symObjAddr: 0x4CC, symBinAddr: 0x100021264, symSize: 0x2C }
  - { offsetInCU: 0x17A7A, offset: 0xC0336, size: 0x8, addend: 0x0, symName: __ZN11ModeManagerD1Ev, symObjAddr: 0x4F8, symBinAddr: 0x100021290, symSize: 0x2C }
  - { offsetInCU: 0x17AA2, offset: 0xC035E, size: 0x8, addend: 0x0, symName: __ZN11EditorStateD1Ev, symObjAddr: 0x524, symBinAddr: 0x1000212BC, symSize: 0x2C }
  - { offsetInCU: 0x17ACA, offset: 0xC0386, size: 0x8, addend: 0x0, symName: __ZN16EditorControllerC1ENSt3__18optionalINS0_12basic_stringIcNS0_11char_traitsIcEENS0_9allocatorIcEEEEEE, symObjAddr: 0x550, symBinAddr: 0x1000212E8, symSize: 0x34 }
  - { offsetInCU: 0x17B04, offset: 0xC03C0, size: 0x8, addend: 0x0, symName: __ZN16EditorControllerD2Ev, symObjAddr: 0x584, symBinAddr: 0x10002131C, symSize: 0xD4 }
  - { offsetInCU: 0x17B2F, offset: 0xC03EB, size: 0x8, addend: 0x0, symName: __ZNKSt3__16thread8joinableB8ue170006Ev, symObjAddr: 0x658, symBinAddr: 0x1000213F0, symSize: 0x3C }
  - { offsetInCU: 0x17B54, offset: 0xC0410, size: 0x8, addend: 0x0, symName: __ZN15UndoRedoManagerD1Ev, symObjAddr: 0x6A0, symBinAddr: 0x10002142C, symSize: 0x2C }
  - { offsetInCU: 0x17B7C, offset: 0xC0438, size: 0x8, addend: 0x0, symName: __ZN8SettingsD1Ev, symObjAddr: 0x6CC, symBinAddr: 0x100021458, symSize: 0x2C }
  - { offsetInCU: 0x17BA4, offset: 0xC0460, size: 0x8, addend: 0x0, symName: __ZN16EditorControllerD1Ev, symObjAddr: 0x6F8, symBinAddr: 0x100021484, symSize: 0x2C }
  - { offsetInCU: 0x17BCF, offset: 0xC048B, size: 0x8, addend: 0x0, symName: __ZN16EditorControllerD0Ev, symObjAddr: 0x724, symBinAddr: 0x1000214B0, symSize: 0x30 }
  - { offsetInCU: 0x17BFA, offset: 0xC04B6, size: 0x8, addend: 0x0, symName: __ZNK11EditorState12getSaveStateEv, symObjAddr: 0x954, symBinAddr: 0x1000216E0, symSize: 0x24 }
  - { offsetInCU: 0x17C1F, offset: 0xC04DB, size: 0x8, addend: 0x0, symName: __ZN11EditorState14registerBackupEv, symObjAddr: 0x978, symBinAddr: 0x100021704, symSize: 0x30 }
  - { offsetInCU: 0x17C44, offset: 0xC0500, size: 0x8, addend: 0x0, symName: __ZN11EditorState13requestBackupEv, symObjAddr: 0x9A8, symBinAddr: 0x100021734, symSize: 0x30 }
  - { offsetInCU: 0x17C69, offset: 0xC0525, size: 0x8, addend: 0x0, symName: __ZN11EditorState7getFileEv, symObjAddr: 0xA0C, symBinAddr: 0x100021764, symSize: 0x14 }
  - { offsetInCU: 0x17C93, offset: 0xC054F, size: 0x8, addend: 0x0, symName: '__ZNSt3__16threadC1IZN16EditorController17startAutoSaveLoopENS_4__fs10filesystem4pathEE3$_0JEvEEOT_DpOT0_', symObjAddr: 0xA20, symBinAddr: 0x100021778, symSize: 0x34 }
  - { offsetInCU: 0x17CDA, offset: 0xC0596, size: 0x8, addend: 0x0, symName: __ZNSt3__16threadaSB8ue170006EOS0_, symObjAddr: 0xA54, symBinAddr: 0x1000217AC, symSize: 0x60 }
  - { offsetInCU: 0x17D12, offset: 0xC05CE, size: 0x8, addend: 0x0, symName: '__ZZN16EditorController17startAutoSaveLoopENSt3__14__fs10filesystem4pathEEN3$_0D1Ev', symObjAddr: 0xAB4, symBinAddr: 0x10002180C, symSize: 0x2C }
  - { offsetInCU: 0x17D3D, offset: 0xC05F9, size: 0x8, addend: 0x0, symName: __ZN16EditorController19calculateRenderInfoE10ScreenSize, symObjAddr: 0xAE0, symBinAddr: 0x100021838, symSize: 0x290 }
  - { offsetInCU: 0x17DA4, offset: 0xC0660, size: 0x8, addend: 0x0, symName: __ZN16EditorController21calculateTextAreaSizeERK10RenderInfoRK10ScreenSize, symObjAddr: 0xE58, symBinAddr: 0x100021AC8, symSize: 0x68 }
  - { offsetInCU: 0x17DE7, offset: 0xC06A3, size: 0x8, addend: 0x0, symName: __ZN16EditorController8mainLoopENSt3__112basic_stringIcNS0_11char_traitsIcEENS0_9allocatorIcEEEE, symObjAddr: 0xEC0, symBinAddr: 0x100021B30, symSize: 0x274 }
  - { offsetInCU: 0x17E6E, offset: 0xC072A, size: 0x8, addend: 0x0, symName: __ZNK11EditorState9getIsQuitEv, symObjAddr: 0x1170, symBinAddr: 0x100021DA4, symSize: 0x2C }
  - { offsetInCU: 0x17E93, offset: 0xC074F, size: 0x8, addend: 0x0, symName: __ZNRSt3__18optionalINS_10shared_ptrI6ActionEEEdeB8ue170006Ev, symObjAddr: 0x11B8, symBinAddr: 0x100021DD0, symSize: 0x24 }
  - { offsetInCU: 0x17EB8, offset: 0xC0774, size: 0x8, addend: 0x0, symName: __ZNKSt3__110shared_ptrI6ActionEptB8ue170006Ev, symObjAddr: 0x11DC, symBinAddr: 0x100021DF4, symSize: 0x18 }
  - { offsetInCU: 0x17EDD, offset: 0xC0799, size: 0x8, addend: 0x0, symName: __ZN10RenderInfoD1Ev, symObjAddr: 0x1280, symBinAddr: 0x100021E0C, symSize: 0x2C }
  - { offsetInCU: 0x17F05, offset: 0xC07C1, size: 0x8, addend: 0x0, symName: __ZNRSt3__123__optional_storage_baseINS_12basic_stringIcNS_11char_traitsIcEENS_9allocatorIcEEEELb0EE5__getB8ue170006Ev, symObjAddr: 0x12AC, symBinAddr: 0x100021E38, symSize: 0x14 }
  - { offsetInCU: 0x17F39, offset: 0xC07F5, size: 0x8, addend: 0x0, symName: __ZNSt19bad_optional_accessC1Ev, symObjAddr: 0x1418, symBinAddr: 0x100021E84, symSize: 0x2C }
  - { offsetInCU: 0x17F64, offset: 0xC0820, size: 0x8, addend: 0x0, symName: __ZNSt19bad_optional_accessC2Ev, symObjAddr: 0x1444, symBinAddr: 0x100021EB0, symSize: 0x44 }
  - { offsetInCU: 0x17F8F, offset: 0xC084B, size: 0x8, addend: 0x0, symName: __ZN11EditorStateC2E8TextFile, symObjAddr: 0x14AC, symBinAddr: 0x100021EF4, symSize: 0xA0 }
  - { offsetInCU: 0x17FCB, offset: 0xC0887, size: 0x8, addend: 0x0, symName: __ZN8TextFileC1ERKS_, symObjAddr: 0x154C, symBinAddr: 0x100021F94, symSize: 0x34 }
  - { offsetInCU: 0x17FFF, offset: 0xC08BB, size: 0x8, addend: 0x0, symName: __ZNSt3__18optionalI9ClipboardEC1B8ue170006ENS_9nullopt_tE, symObjAddr: 0x1580, symBinAddr: 0x100021FC8, symSize: 0x2C }
  - { offsetInCU: 0x18033, offset: 0xC08EF, size: 0x8, addend: 0x0, symName: __ZNSt3__16atomicIbEC1B8ue170006Ev, symObjAddr: 0x15AC, symBinAddr: 0x100021FF4, symSize: 0x2C }
  - { offsetInCU: 0x1805B, offset: 0xC0917, size: 0x8, addend: 0x0, symName: __ZNSt3__16atomicIbEC1B8ue170006Eb, symObjAddr: 0x15D8, symBinAddr: 0x100022020, symSize: 0x40 }
  - { offsetInCU: 0x18091, offset: 0xC094D, size: 0x8, addend: 0x0, symName: __ZN8TextFileC2ERKS_, symObjAddr: 0x1644, symBinAddr: 0x100022060, symSize: 0x84 }
  - { offsetInCU: 0x180ED, offset: 0xC09A9, size: 0x8, addend: 0x0, symName: __ZNSt3__18optionalI9ClipboardEC2B8ue170006ENS_9nullopt_tE, symObjAddr: 0x3044, symBinAddr: 0x1000220E4, symSize: 0x2C }
  - { offsetInCU: 0x18121, offset: 0xC09DD, size: 0x8, addend: 0x0, symName: __ZNSt3__127__optional_move_assign_baseI9ClipboardLb0EEC2B8ue170006Ev, symObjAddr: 0x3070, symBinAddr: 0x100022110, symSize: 0x2C }
  - { offsetInCU: 0x18149, offset: 0xC0A05, size: 0x8, addend: 0x0, symName: __ZNSt3__127__optional_copy_assign_baseI9ClipboardLb0EEC2B8ue170006Ev, symObjAddr: 0x309C, symBinAddr: 0x10002213C, symSize: 0x2C }
  - { offsetInCU: 0x18171, offset: 0xC0A2D, size: 0x8, addend: 0x0, symName: __ZNSt3__120__optional_move_baseI9ClipboardLb0EEC2B8ue170006Ev, symObjAddr: 0x30C8, symBinAddr: 0x100022168, symSize: 0x2C }
  - { offsetInCU: 0x18199, offset: 0xC0A55, size: 0x8, addend: 0x0, symName: __ZNSt3__120__optional_copy_baseI9ClipboardLb0EEC2B8ue170006Ev, symObjAddr: 0x30F4, symBinAddr: 0x100022194, symSize: 0x2C }
  - { offsetInCU: 0x181C1, offset: 0xC0A7D, size: 0x8, addend: 0x0, symName: __ZNSt3__123__optional_storage_baseI9ClipboardLb0EEC2Ev, symObjAddr: 0x3120, symBinAddr: 0x1000221C0, symSize: 0x2C }
  - { offsetInCU: 0x181ED, offset: 0xC0AA9, size: 0x8, addend: 0x0, symName: __ZNSt3__124__optional_destruct_baseI9ClipboardLb0EEC2B8ue170006Ev, symObjAddr: 0x314C, symBinAddr: 0x1000221EC, symSize: 0x1C }
  - { offsetInCU: 0x18216, offset: 0xC0AD2, size: 0x8, addend: 0x0, symName: __ZNSt3__16atomicIbEC2B8ue170006Ev, symObjAddr: 0x3168, symBinAddr: 0x100022208, symSize: 0x2C }
  - { offsetInCU: 0x1823E, offset: 0xC0AFA, size: 0x8, addend: 0x0, symName: __ZNSt3__113__atomic_baseIbLb0EEC2B8ue170006Ev, symObjAddr: 0x3194, symBinAddr: 0x100022234, symSize: 0x34 }
  - { offsetInCU: 0x18266, offset: 0xC0B22, size: 0x8, addend: 0x0, symName: __ZNSt3__117__cxx_atomic_implIbNS_22__cxx_atomic_base_implIbEEEC1B8ue170006Eb, symObjAddr: 0x31C8, symBinAddr: 0x100022268, symSize: 0x40 }
  - { offsetInCU: 0x1829E, offset: 0xC0B5A, size: 0x8, addend: 0x0, symName: __ZNSt3__117__cxx_atomic_implIbNS_22__cxx_atomic_base_implIbEEEC2B8ue170006Eb, symObjAddr: 0x3208, symBinAddr: 0x1000222A8, symSize: 0x40 }
  - { offsetInCU: 0x182D6, offset: 0xC0B92, size: 0x8, addend: 0x0, symName: __ZNSt3__122__cxx_atomic_base_implIbEC2Eb, symObjAddr: 0x3248, symBinAddr: 0x1000222E8, symSize: 0x2C }
  - { offsetInCU: 0x1830F, offset: 0xC0BCB, size: 0x8, addend: 0x0, symName: __ZNSt3__16atomicIbEC2B8ue170006Eb, symObjAddr: 0x3274, symBinAddr: 0x100022314, symSize: 0x40 }
  - { offsetInCU: 0x18345, offset: 0xC0C01, size: 0x8, addend: 0x0, symName: __ZNSt3__113__atomic_baseIbLb0EEC2B8ue170006Eb, symObjAddr: 0x32B4, symBinAddr: 0x100022354, symSize: 0x40 }
  - { offsetInCU: 0x18380, offset: 0xC0C3C, size: 0x8, addend: 0x0, symName: __ZN9UiHandlerC2Ev, symObjAddr: 0x34F8, symBinAddr: 0x100022394, symSize: 0x2C }
  - { offsetInCU: 0x183A8, offset: 0xC0C64, size: 0x8, addend: 0x0, symName: __ZN15UndoRedoManagerC2Ev, symObjAddr: 0x3524, symBinAddr: 0x1000223C0, symSize: 0x40 }
  - { offsetInCU: 0x183D0, offset: 0xC0C8C, size: 0x8, addend: 0x0, symName: __ZNSt3__15dequeINS_10shared_ptrI6ActionEENS_9allocatorIS3_EEEC1B8ue170006Ev, symObjAddr: 0x3564, symBinAddr: 0x100022400, symSize: 0x2C }
  - { offsetInCU: 0x183F8, offset: 0xC0CB4, size: 0x8, addend: 0x0, symName: __ZNSt3__15stackINS_10shared_ptrI6ActionEENS_5dequeIS3_NS_9allocatorIS3_EEEEEC1B8ue170006Ev, symObjAddr: 0x3590, symBinAddr: 0x10002242C, symSize: 0x2C }
  - { offsetInCU: 0x18420, offset: 0xC0CDC, size: 0x8, addend: 0x0, symName: __ZNSt3__15dequeINS_10shared_ptrI6ActionEENS_9allocatorIS3_EEEC2B8ue170006Ev, symObjAddr: 0x35BC, symBinAddr: 0x100022458, symSize: 0x5C }
  - { offsetInCU: 0x18448, offset: 0xC0D04, size: 0x8, addend: 0x0, symName: __ZNSt3__114__split_bufferIPNS_10shared_ptrI6ActionEENS_9allocatorIS4_EEEC1B8ue170006Ev, symObjAddr: 0x3618, symBinAddr: 0x1000224B4, symSize: 0x2C }
  - { offsetInCU: 0x18475, offset: 0xC0D31, size: 0x8, addend: 0x0, symName: __ZNSt3__117__compressed_pairImNS_9allocatorINS_10shared_ptrI6ActionEEEEEC1B8ue170006IiNS_18__default_init_tagEEEOT_OT0_, symObjAddr: 0x3644, symBinAddr: 0x1000224E0, symSize: 0x3C }
  - { offsetInCU: 0x184CB, offset: 0xC0D87, size: 0x8, addend: 0x0, symName: __ZNKSt3__15dequeINS_10shared_ptrI6ActionEENS_9allocatorIS3_EEE14__annotate_newB8ue170006Em, symObjAddr: 0x3680, symBinAddr: 0x10002251C, symSize: 0xC8 }
  - { offsetInCU: 0x18500, offset: 0xC0DBC, size: 0x8, addend: 0x0, symName: __ZNSt3__114__split_bufferIPNS_10shared_ptrI6ActionEENS_9allocatorIS4_EEEC2B8ue170006Ev, symObjAddr: 0x3748, symBinAddr: 0x1000225E4, symSize: 0x50 }
  - { offsetInCU: 0x18528, offset: 0xC0DE4, size: 0x8, addend: 0x0, symName: __ZNSt3__117__compressed_pairIPPNS_10shared_ptrI6ActionEENS_9allocatorIS4_EEEC1B8ue170006IDnNS_18__default_init_tagEEEOT_OT0_, symObjAddr: 0x3798, symBinAddr: 0x100022634, symSize: 0x3C }
  - { offsetInCU: 0x1857E, offset: 0xC0E3A, size: 0x8, addend: 0x0, symName: __ZNSt3__117__compressed_pairIPPNS_10shared_ptrI6ActionEENS_9allocatorIS4_EEEC2B8ue170006IDnNS_18__default_init_tagEEEOT_OT0_, symObjAddr: 0x37D4, symBinAddr: 0x100022670, symSize: 0x40 }
  - { offsetInCU: 0x185D4, offset: 0xC0E90, size: 0x8, addend: 0x0, symName: __ZNSt3__122__compressed_pair_elemIPPNS_10shared_ptrI6ActionEELi0ELb0EEC2B8ue170006IDnvEEOT_, symObjAddr: 0x3814, symBinAddr: 0x1000226B0, symSize: 0x1C }
  - { offsetInCU: 0x18616, offset: 0xC0ED2, size: 0x8, addend: 0x0, symName: __ZNSt3__122__compressed_pair_elemINS_9allocatorIPNS_10shared_ptrI6ActionEEEELi1ELb1EEC2B8ue170006ENS_18__default_init_tagE, symObjAddr: 0x3830, symBinAddr: 0x1000226CC, symSize: 0x2C }
  - { offsetInCU: 0x18649, offset: 0xC0F05, size: 0x8, addend: 0x0, symName: __ZNSt3__19allocatorIPNS_10shared_ptrI6ActionEEEC2B8ue170006Ev, symObjAddr: 0x385C, symBinAddr: 0x1000226F8, symSize: 0x2C }
  - { offsetInCU: 0x18671, offset: 0xC0F2D, size: 0x8, addend: 0x0, symName: __ZNSt3__116__non_trivial_ifILb1ENS_9allocatorIPNS_10shared_ptrI6ActionEEEEEC2B8ue170006Ev, symObjAddr: 0x3888, symBinAddr: 0x100022724, symSize: 0x14 }
  - { offsetInCU: 0x1869A, offset: 0xC0F56, size: 0x8, addend: 0x0, symName: __ZNSt3__117__compressed_pairImNS_9allocatorINS_10shared_ptrI6ActionEEEEEC2B8ue170006IiNS_18__default_init_tagEEEOT_OT0_, symObjAddr: 0x389C, symBinAddr: 0x100022738, symSize: 0x40 }
  - { offsetInCU: 0x186F0, offset: 0xC0FAC, size: 0x8, addend: 0x0, symName: __ZNKSt3__15dequeINS_10shared_ptrI6ActionEENS_9allocatorIS3_EEE18__annotate_from_toB8ue170006EmmNS6_22__asan_annotation_typeENS6_23__asan_annotation_placeE, symObjAddr: 0x396C, symBinAddr: 0x100022778, symSize: 0x580 }
  - { offsetInCU: 0x188C5, offset: 0xC1181, size: 0x8, addend: 0x0, symName: __ZNKSt3__114__split_bufferIPNS_10shared_ptrI6ActionEENS_9allocatorIS4_EEE4sizeB8ue170006Ev, symObjAddr: 0x3EEC, symBinAddr: 0x100022CF8, symSize: 0x28 }
  - { offsetInCU: 0x188EA, offset: 0xC11A6, size: 0x8, addend: 0x0, symName: __ZNKSt3__114__split_bufferIPNS_10shared_ptrI6ActionEENS_9allocatorIS4_EEE5beginB8ue170006Ev, symObjAddr: 0x3F14, symBinAddr: 0x100022D20, symSize: 0x18 }
  - { offsetInCU: 0x1890F, offset: 0xC11CB, size: 0x8, addend: 0x0, symName: __ZNKSt3__15dequeINS_10shared_ptrI6ActionEENS_9allocatorIS3_EEE4sizeB8ue170006Ev, symObjAddr: 0x3F2C, symBinAddr: 0x100022D38, symSize: 0x28 }
  - { offsetInCU: 0x18934, offset: 0xC11F0, size: 0x8, addend: 0x0, symName: __ZNKSt3__15dequeINS_10shared_ptrI6ActionEENS_9allocatorIS3_EEE5emptyB8ue170006Ev, symObjAddr: 0x3F54, symBinAddr: 0x100022D60, symSize: 0x30 }
  - { offsetInCU: 0x18959, offset: 0xC1215, size: 0x8, addend: 0x0, symName: __ZNKSt3__15dequeINS_10shared_ptrI6ActionEENS_9allocatorIS3_EEE44__annotate_double_ended_contiguous_containerB8ue170006EPKvS8_S8_S8_S8_S8_, symObjAddr: 0x3F98, symBinAddr: 0x100022D90, symSize: 0x28 }
  - { offsetInCU: 0x189C6, offset: 0xC1282, size: 0x8, addend: 0x0, symName: __ZNKSt3__15dequeINS_10shared_ptrI6ActionEENS_9allocatorIS3_EEE6__sizeB8ue170006Ev, symObjAddr: 0x3FC0, symBinAddr: 0x100022DB8, symSize: 0x28 }
  - { offsetInCU: 0x189EB, offset: 0xC12A7, size: 0x8, addend: 0x0, symName: __ZNKSt3__117__compressed_pairImNS_9allocatorINS_10shared_ptrI6ActionEEEEE5firstB8ue170006Ev, symObjAddr: 0x3FE8, symBinAddr: 0x100022DE0, symSize: 0x24 }
  - { offsetInCU: 0x18A10, offset: 0xC12CC, size: 0x8, addend: 0x0, symName: __ZNSt3__15stackINS_10shared_ptrI6ActionEENS_5dequeIS3_NS_9allocatorIS3_EEEEEC2B8ue170006Ev, symObjAddr: 0x4020, symBinAddr: 0x100022E04, symSize: 0x2C }
  - { offsetInCU: 0x18A38, offset: 0xC12F4, size: 0x8, addend: 0x0, symName: __ZNSt3__16threadC2B8ue170006Ev, symObjAddr: 0x404C, symBinAddr: 0x100022E30, symSize: 0x18 }
  - { offsetInCU: 0x18A61, offset: 0xC131D, size: 0x8, addend: 0x0, symName: __ZNSt3__118condition_variableC2B8ue170006Ev, symObjAddr: 0x4064, symBinAddr: 0x100022E48, symSize: 0x44 }
  - { offsetInCU: 0x18A89, offset: 0xC1345, size: 0x8, addend: 0x0, symName: __ZNSt3__15mutexC2B8ue170006Ev, symObjAddr: 0x40A8, symBinAddr: 0x100022E8C, symSize: 0x44 }
  - { offsetInCU: 0x18AB1, offset: 0xC136D, size: 0x8, addend: 0x0, symName: __ZN9UiHandlerD2Ev, symObjAddr: 0x40EC, symBinAddr: 0x100022ED0, symSize: 0x2C }
  - { offsetInCU: 0x18AD9, offset: 0xC1395, size: 0x8, addend: 0x0, symName: __ZN11ModeManagerD2Ev, symObjAddr: 0x4118, symBinAddr: 0x100022EFC, symSize: 0x38 }
  - { offsetInCU: 0x18B01, offset: 0xC13BD, size: 0x8, addend: 0x0, symName: __ZN11EditorStateD2Ev, symObjAddr: 0x4980, symBinAddr: 0x100022F34, symSize: 0x44 }
  - { offsetInCU: 0x18B29, offset: 0xC13E5, size: 0x8, addend: 0x0, symName: __ZNSt3__18optionalI9ClipboardED1Ev, symObjAddr: 0x49C4, symBinAddr: 0x100022F78, symSize: 0x2C }
  - { offsetInCU: 0x18B55, offset: 0xC1411, size: 0x8, addend: 0x0, symName: __ZNSt3__18optionalI9ClipboardED2Ev, symObjAddr: 0x49F0, symBinAddr: 0x100022FA4, symSize: 0x2C }
  - { offsetInCU: 0x18B81, offset: 0xC143D, size: 0x8, addend: 0x0, symName: __ZNSt3__127__optional_move_assign_baseI9ClipboardLb0EED2Ev, symObjAddr: 0x4A1C, symBinAddr: 0x100022FD0, symSize: 0x2C }
  - { offsetInCU: 0x18BAD, offset: 0xC1469, size: 0x8, addend: 0x0, symName: __ZNSt3__127__optional_copy_assign_baseI9ClipboardLb0EED2Ev, symObjAddr: 0x4A48, symBinAddr: 0x100022FFC, symSize: 0x2C }
  - { offsetInCU: 0x18BD9, offset: 0xC1495, size: 0x8, addend: 0x0, symName: __ZNSt3__120__optional_move_baseI9ClipboardLb0EED2Ev, symObjAddr: 0x4A74, symBinAddr: 0x100023028, symSize: 0x2C }
  - { offsetInCU: 0x18C05, offset: 0xC14C1, size: 0x8, addend: 0x0, symName: __ZNSt3__120__optional_copy_baseI9ClipboardLb0EED2Ev, symObjAddr: 0x4AA0, symBinAddr: 0x100023054, symSize: 0x2C }
  - { offsetInCU: 0x18C31, offset: 0xC14ED, size: 0x8, addend: 0x0, symName: __ZNSt3__123__optional_storage_baseI9ClipboardLb0EED2Ev, symObjAddr: 0x4ACC, symBinAddr: 0x100023080, symSize: 0x2C }
  - { offsetInCU: 0x18C5D, offset: 0xC1519, size: 0x8, addend: 0x0, symName: __ZNSt3__124__optional_destruct_baseI9ClipboardLb0EED2B8ue170006Ev, symObjAddr: 0x4AF8, symBinAddr: 0x1000230AC, symSize: 0x48 }
  - { offsetInCU: 0x18C8A, offset: 0xC1546, size: 0x8, addend: 0x0, symName: __ZN9ClipboardD1Ev, symObjAddr: 0x4B40, symBinAddr: 0x1000230F4, symSize: 0x2C }
  - { offsetInCU: 0x18CB5, offset: 0xC1571, size: 0x8, addend: 0x0, symName: __ZN9ClipboardD2Ev, symObjAddr: 0x4B6C, symBinAddr: 0x100023120, symSize: 0x30 }
  - { offsetInCU: 0x18CE0, offset: 0xC159C, size: 0x8, addend: 0x0, symName: __ZN15UndoRedoManagerD2Ev, symObjAddr: 0x4BE4, symBinAddr: 0x100023198, symSize: 0x38 }
  - { offsetInCU: 0x18D08, offset: 0xC15C4, size: 0x8, addend: 0x0, symName: __ZNSt3__15stackINS_10shared_ptrI6ActionEENS_5dequeIS3_NS_9allocatorIS3_EEEEED1Ev, symObjAddr: 0x4C1C, symBinAddr: 0x1000231D0, symSize: 0x2C }
  - { offsetInCU: 0x18D33, offset: 0xC15EF, size: 0x8, addend: 0x0, symName: __ZNSt3__15dequeINS_10shared_ptrI6ActionEENS_9allocatorIS3_EEED1B8ue170006Ev, symObjAddr: 0x4C48, symBinAddr: 0x1000231FC, symSize: 0x2C }
  - { offsetInCU: 0x18D5B, offset: 0xC1617, size: 0x8, addend: 0x0, symName: __ZNSt3__15stackINS_10shared_ptrI6ActionEENS_5dequeIS3_NS_9allocatorIS3_EEEEED2Ev, symObjAddr: 0x4C74, symBinAddr: 0x100023228, symSize: 0x2C }
  - { offsetInCU: 0x18D86, offset: 0xC1642, size: 0x8, addend: 0x0, symName: __ZNSt3__15dequeINS_10shared_ptrI6ActionEENS_9allocatorIS3_EEED2B8ue170006Ev, symObjAddr: 0x4CA0, symBinAddr: 0x100023254, symSize: 0xA4 }
  - { offsetInCU: 0x18DDD, offset: 0xC1699, size: 0x8, addend: 0x0, symName: __ZNSt3__15dequeINS_10shared_ptrI6ActionEENS_9allocatorIS3_EEE5clearEv, symObjAddr: 0x4D44, symBinAddr: 0x1000232F8, symSize: 0x180 }
  - { offsetInCU: 0x18E3A, offset: 0xC16F6, size: 0x8, addend: 0x0, symName: __ZNKSt3__15dequeINS_10shared_ptrI6ActionEENS_9allocatorIS3_EEE17__annotate_deleteB8ue170006Ev, symObjAddr: 0x4EC4, symBinAddr: 0x100023478, symSize: 0xE8 }
  - { offsetInCU: 0x18E7E, offset: 0xC173A, size: 0x8, addend: 0x0, symName: __ZNSt3__114__split_bufferIPNS_10shared_ptrI6ActionEENS_9allocatorIS4_EEE5beginB8ue170006Ev, symObjAddr: 0x4FAC, symBinAddr: 0x100023560, symSize: 0x18 }
  - { offsetInCU: 0x18EA3, offset: 0xC175F, size: 0x8, addend: 0x0, symName: __ZNSt3__114__split_bufferIPNS_10shared_ptrI6ActionEENS_9allocatorIS4_EEE3endB8ue170006Ev, symObjAddr: 0x4FC4, symBinAddr: 0x100023578, symSize: 0x18 }
  - { offsetInCU: 0x18EC8, offset: 0xC1784, size: 0x8, addend: 0x0, symName: __ZNSt3__15dequeINS_10shared_ptrI6ActionEENS_9allocatorIS3_EEE7__allocB8ue170006Ev, symObjAddr: 0x5010, symBinAddr: 0x100023590, symSize: 0x28 }
  - { offsetInCU: 0x18EED, offset: 0xC17A9, size: 0x8, addend: 0x0, symName: __ZNSt3__114__split_bufferIPNS_10shared_ptrI6ActionEENS_9allocatorIS4_EEED1Ev, symObjAddr: 0x5038, symBinAddr: 0x1000235B8, symSize: 0x2C }
  - { offsetInCU: 0x18F18, offset: 0xC17D4, size: 0x8, addend: 0x0, symName: __ZNSt3__15dequeINS_10shared_ptrI6ActionEENS_9allocatorIS3_EEE5beginB8ue170006Ev, symObjAddr: 0x5064, symBinAddr: 0x1000235E4, symSize: 0xB8 }
  - { offsetInCU: 0x18F4D, offset: 0xC1809, size: 0x8, addend: 0x0, symName: __ZNSt3__15dequeINS_10shared_ptrI6ActionEENS_9allocatorIS3_EEE3endB8ue170006Ev, symObjAddr: 0x511C, symBinAddr: 0x10002369C, symSize: 0xBC }
  - { offsetInCU: 0x18F92, offset: 0xC184E, size: 0x8, addend: 0x0, symName: __ZNKSt3__116__deque_iteratorINS_10shared_ptrI6ActionEEPS3_RS3_PS4_lLl256EEdeB8ue170006Ev, symObjAddr: 0x5234, symBinAddr: 0x10002378C, symSize: 0x18 }
  - { offsetInCU: 0x18FB7, offset: 0xC1873, size: 0x8, addend: 0x0, symName: __ZNSt3__116__deque_iteratorINS_10shared_ptrI6ActionEEPS3_RS3_PS4_lLl256EEppB8ue170006Ev, symObjAddr: 0x524C, symBinAddr: 0x1000237A4, symSize: 0x70 }
  - { offsetInCU: 0x18FDC, offset: 0xC1898, size: 0x8, addend: 0x0, symName: __ZNSt3__15dequeINS_10shared_ptrI6ActionEENS_9allocatorIS3_EEE6__sizeB8ue170006Ev, symObjAddr: 0x52BC, symBinAddr: 0x100023814, symSize: 0x28 }
  - { offsetInCU: 0x19001, offset: 0xC18BD, size: 0x8, addend: 0x0, symName: __ZNSt3__114__split_bufferIPNS_10shared_ptrI6ActionEENS_9allocatorIS4_EEE5frontB8ue170006Ev, symObjAddr: 0x52E4, symBinAddr: 0x10002383C, symSize: 0x18 }
  - { offsetInCU: 0x19026, offset: 0xC18E2, size: 0x8, addend: 0x0, symName: __ZNSt3__114__split_bufferIPNS_10shared_ptrI6ActionEENS_9allocatorIS4_EEE9pop_frontB8ue170006Ev, symObjAddr: 0x52FC, symBinAddr: 0x100023854, symSize: 0x2C }
  - { offsetInCU: 0x1904B, offset: 0xC1907, size: 0x8, addend: 0x0, symName: __ZNKSt3__114__split_bufferIPNS_10shared_ptrI6ActionEENS_9allocatorIS4_EEE5emptyB8ue170006Ev, symObjAddr: 0x5328, symBinAddr: 0x100023880, symSize: 0x28 }
  - { offsetInCU: 0x19070, offset: 0xC192C, size: 0x8, addend: 0x0, symName: __ZNSt3__116__deque_iteratorINS_10shared_ptrI6ActionEEPS3_RS3_PS4_lLl256EEC1B8ue170006ES6_S4_, symObjAddr: 0x5350, symBinAddr: 0x1000238A8, symSize: 0x3C }
  - { offsetInCU: 0x190B8, offset: 0xC1974, size: 0x8, addend: 0x0, symName: __ZNSt3__116__deque_iteratorINS_10shared_ptrI6ActionEEPS3_RS3_PS4_lLl256EEC2B8ue170006ES6_S4_, symObjAddr: 0x538C, symBinAddr: 0x1000238E4, symSize: 0x2C }
  - { offsetInCU: 0x19101, offset: 0xC19BD, size: 0x8, addend: 0x0, symName: __ZNSt3__117__compressed_pairImNS_9allocatorINS_10shared_ptrI6ActionEEEEE5firstB8ue170006Ev, symObjAddr: 0x5430, symBinAddr: 0x100023940, symSize: 0x24 }
  - { offsetInCU: 0x19126, offset: 0xC19E2, size: 0x8, addend: 0x0, symName: __ZNSt3__114__split_bufferIPNS_10shared_ptrI6ActionEENS_9allocatorIS4_EEE19__destruct_at_beginB8ue170006EPS4_, symObjAddr: 0x5454, symBinAddr: 0x100023964, symSize: 0x2C }
  - { offsetInCU: 0x19159, offset: 0xC1A15, size: 0x8, addend: 0x0, symName: __ZNSt3__114__split_bufferIPNS_10shared_ptrI6ActionEENS_9allocatorIS4_EEE19__destruct_at_beginEPS4_NS_17integral_constantIbLb1EEE, symObjAddr: 0x5480, symBinAddr: 0x100023990, symSize: 0x20 }
  - { offsetInCU: 0x19199, offset: 0xC1A55, size: 0x8, addend: 0x0, symName: __ZNKSt3__15dequeINS_10shared_ptrI6ActionEENS_9allocatorIS3_EEE22__annotate_whole_blockB8ue170006EmNS6_22__asan_annotation_typeE, symObjAddr: 0x54A0, symBinAddr: 0x1000239B0, symSize: 0xAC }
  - { offsetInCU: 0x1920E, offset: 0xC1ACA, size: 0x8, addend: 0x0, symName: __ZNKSt3__15dequeINS_10shared_ptrI6ActionEENS_9allocatorIS3_EEE23__annotate_poison_blockB8ue170006EPKvS8_, symObjAddr: 0x554C, symBinAddr: 0x100023A5C, symSize: 0x44 }
  - { offsetInCU: 0x19253, offset: 0xC1B0F, size: 0x8, addend: 0x0, symName: __ZNSt3__117__compressed_pairImNS_9allocatorINS_10shared_ptrI6ActionEEEEE6secondB8ue170006Ev, symObjAddr: 0x55D0, symBinAddr: 0x100023AA0, symSize: 0x24 }
  - { offsetInCU: 0x19278, offset: 0xC1B34, size: 0x8, addend: 0x0, symName: __ZNSt3__114__split_bufferIPNS_10shared_ptrI6ActionEENS_9allocatorIS4_EEED2Ev, symObjAddr: 0x5608, symBinAddr: 0x100023AC4, symSize: 0x8C }
  - { offsetInCU: 0x192A3, offset: 0xC1B5F, size: 0x8, addend: 0x0, symName: __ZNSt3__114__split_bufferIPNS_10shared_ptrI6ActionEENS_9allocatorIS4_EEE5clearB8ue170006Ev, symObjAddr: 0x5694, symBinAddr: 0x100023B50, symSize: 0x28 }
  - { offsetInCU: 0x192C8, offset: 0xC1B84, size: 0x8, addend: 0x0, symName: __ZNSt3__116allocator_traitsINS_9allocatorIPNS_10shared_ptrI6ActionEEEEE10deallocateB8ue170006ERS6_PS5_m, symObjAddr: 0x56BC, symBinAddr: 0x100023B78, symSize: 0x34 }
  - { offsetInCU: 0x1930D, offset: 0xC1BC9, size: 0x8, addend: 0x0, symName: __ZNSt3__114__split_bufferIPNS_10shared_ptrI6ActionEENS_9allocatorIS4_EEE7__allocB8ue170006Ev, symObjAddr: 0x56F0, symBinAddr: 0x100023BAC, symSize: 0x28 }
  - { offsetInCU: 0x19332, offset: 0xC1BEE, size: 0x8, addend: 0x0, symName: __ZNKSt3__114__split_bufferIPNS_10shared_ptrI6ActionEENS_9allocatorIS4_EEE8capacityB8ue170006Ev, symObjAddr: 0x5718, symBinAddr: 0x100023BD4, symSize: 0x40 }
  - { offsetInCU: 0x19357, offset: 0xC1C13, size: 0x8, addend: 0x0, symName: __ZNSt3__114__split_bufferIPNS_10shared_ptrI6ActionEENS_9allocatorIS4_EEE17__destruct_at_endB8ue170006EPS4_, symObjAddr: 0x5758, symBinAddr: 0x100023C14, symSize: 0x2C }
  - { offsetInCU: 0x1938A, offset: 0xC1C46, size: 0x8, addend: 0x0, symName: __ZNSt3__114__split_bufferIPNS_10shared_ptrI6ActionEENS_9allocatorIS4_EEE17__destruct_at_endB8ue170006EPS4_NS_17integral_constantIbLb0EEE, symObjAddr: 0x5784, symBinAddr: 0x100023C40, symSize: 0x80 }
  - { offsetInCU: 0x193CA, offset: 0xC1C86, size: 0x8, addend: 0x0, symName: __ZNSt3__116allocator_traitsINS_9allocatorIPNS_10shared_ptrI6ActionEEEEE7destroyB8ue170006IS5_vvEEvRS6_PT_, symObjAddr: 0x5804, symBinAddr: 0x100023CC0, symSize: 0x28 }
  - { offsetInCU: 0x19408, offset: 0xC1CC4, size: 0x8, addend: 0x0, symName: __ZNSt3__19allocatorIPNS_10shared_ptrI6ActionEEE10deallocateB8ue170006EPS4_m, symObjAddr: 0x5874, symBinAddr: 0x100023D30, symSize: 0x40 }
  - { offsetInCU: 0x19449, offset: 0xC1D05, size: 0x8, addend: 0x0, symName: __ZNSt3__117__compressed_pairIPPNS_10shared_ptrI6ActionEENS_9allocatorIS4_EEE6secondB8ue170006Ev, symObjAddr: 0x58B4, symBinAddr: 0x100023D70, symSize: 0x24 }
  - { offsetInCU: 0x1946E, offset: 0xC1D2A, size: 0x8, addend: 0x0, symName: __ZNSt3__122__compressed_pair_elemINS_9allocatorIPNS_10shared_ptrI6ActionEEEELi1ELb1EE5__getB8ue170006Ev, symObjAddr: 0x58D8, symBinAddr: 0x100023D94, symSize: 0x14 }
  - { offsetInCU: 0x19493, offset: 0xC1D4F, size: 0x8, addend: 0x0, symName: __ZNKSt3__114__split_bufferIPNS_10shared_ptrI6ActionEENS_9allocatorIS4_EEE9__end_capB8ue170006Ev, symObjAddr: 0x58EC, symBinAddr: 0x100023DA8, symSize: 0x28 }
  - { offsetInCU: 0x194B8, offset: 0xC1D74, size: 0x8, addend: 0x0, symName: __ZNKSt3__117__compressed_pairIPPNS_10shared_ptrI6ActionEENS_9allocatorIS4_EEE5firstB8ue170006Ev, symObjAddr: 0x5914, symBinAddr: 0x100023DD0, symSize: 0x24 }
  - { offsetInCU: 0x194DD, offset: 0xC1D99, size: 0x8, addend: 0x0, symName: __ZNKSt3__122__compressed_pair_elemIPPNS_10shared_ptrI6ActionEELi0ELb0EE5__getB8ue170006Ev, symObjAddr: 0x5938, symBinAddr: 0x100023DF4, symSize: 0x14 }
  - { offsetInCU: 0x19502, offset: 0xC1DBE, size: 0x8, addend: 0x0, symName: __ZN8SettingsD2Ev, symObjAddr: 0x594C, symBinAddr: 0x100023E08, symSize: 0x2C }
  - { offsetInCU: 0x1952A, offset: 0xC1DE6, size: 0x8, addend: 0x0, symName: __ZNSt3__113unordered_mapINS_12basic_stringIcNS_11char_traitsIcEENS_9allocatorIcEEEE13ToggleSettingNS_4hashIS6_EENS_8equal_toIS6_EENS4_INS_4pairIKS6_S7_EEEEED1B8ue170006Ev, symObjAddr: 0x5978, symBinAddr: 0x100023E34, symSize: 0x2C }
  - { offsetInCU: 0x19552, offset: 0xC1E0E, size: 0x8, addend: 0x0, symName: __ZNSt3__113unordered_mapINS_12basic_stringIcNS_11char_traitsIcEENS_9allocatorIcEEEE13ToggleSettingNS_4hashIS6_EENS_8equal_toIS6_EENS4_INS_4pairIKS6_S7_EEEEED2B8ue170006Ev, symObjAddr: 0x59A4, symBinAddr: 0x100023E60, symSize: 0x2C }
  - { offsetInCU: 0x1957A, offset: 0xC1E36, size: 0x8, addend: 0x0, symName: __ZNSt3__112__hash_tableINS_17__hash_value_typeINS_12basic_stringIcNS_11char_traitsIcEENS_9allocatorIcEEEE13ToggleSettingEENS_22__unordered_map_hasherIS7_S9_NS_4hashIS7_EENS_8equal_toIS7_EELb1EEENS_21__unordered_map_equalIS7_S9_SE_SC_Lb1EEENS5_IS9_EEED1Ev, symObjAddr: 0x59D0, symBinAddr: 0x100023E8C, symSize: 0x2C }
  - { offsetInCU: 0x195A5, offset: 0xC1E61, size: 0x8, addend: 0x0, symName: __ZNSt3__112__hash_tableINS_17__hash_value_typeINS_12basic_stringIcNS_11char_traitsIcEENS_9allocatorIcEEEE13ToggleSettingEENS_22__unordered_map_hasherIS7_S9_NS_4hashIS7_EENS_8equal_toIS7_EELb1EEENS_21__unordered_map_equalIS7_S9_SE_SC_Lb1EEENS5_IS9_EEED2Ev, symObjAddr: 0x59FC, symBinAddr: 0x100023EB8, symSize: 0x48 }
  - { offsetInCU: 0x195D0, offset: 0xC1E8C, size: 0x8, addend: 0x0, symName: __ZNSt3__112__hash_tableINS_17__hash_value_typeINS_12basic_stringIcNS_11char_traitsIcEENS_9allocatorIcEEEE13ToggleSettingEENS_22__unordered_map_hasherIS7_S9_NS_4hashIS7_EENS_8equal_toIS7_EELb1EEENS_21__unordered_map_equalIS7_S9_SE_SC_Lb1EEENS5_IS9_EEE17__deallocate_nodeEPNS_16__hash_node_baseIPNS_11__hash_nodeIS9_PvEEEE, symObjAddr: 0x5A44, symBinAddr: 0x100023F00, symSize: 0xA8 }
  - { offsetInCU: 0x1963D, offset: 0xC1EF9, size: 0x8, addend: 0x0, symName: __ZNSt3__117__compressed_pairINS_16__hash_node_baseIPNS_11__hash_nodeINS_17__hash_value_typeINS_12basic_stringIcNS_11char_traitsIcEENS_9allocatorIcEEEE13ToggleSettingEEPvEEEENS7_ISD_EEE5firstB8ue170006Ev, symObjAddr: 0x5AEC, symBinAddr: 0x100023FA8, symSize: 0x24 }
  - { offsetInCU: 0x19662, offset: 0xC1F1E, size: 0x8, addend: 0x0, symName: __ZNSt3__110unique_ptrIA_PNS_16__hash_node_baseIPNS_11__hash_nodeINS_17__hash_value_typeINS_12basic_stringIcNS_11char_traitsIcEENS_9allocatorIcEEEE13ToggleSettingEEPvEEEENS_25__bucket_list_deallocatorINS7_ISG_EEEEED1B8ue170006Ev, symObjAddr: 0x5B10, symBinAddr: 0x100023FCC, symSize: 0x2C }
  - { offsetInCU: 0x1968A, offset: 0xC1F46, size: 0x8, addend: 0x0, symName: __ZNSt3__112__hash_tableINS_17__hash_value_typeINS_12basic_stringIcNS_11char_traitsIcEENS_9allocatorIcEEEE13ToggleSettingEENS_22__unordered_map_hasherIS7_S9_NS_4hashIS7_EENS_8equal_toIS7_EELb1EEENS_21__unordered_map_equalIS7_S9_SE_SC_Lb1EEENS5_IS9_EEE12__node_allocB8ue170006Ev, symObjAddr: 0x5B3C, symBinAddr: 0x100023FF8, symSize: 0x28 }
  - { offsetInCU: 0x196AF, offset: 0xC1F6B, size: 0x8, addend: 0x0, symName: __ZNSt3__116__hash_node_baseIPNS_11__hash_nodeINS_17__hash_value_typeINS_12basic_stringIcNS_11char_traitsIcEENS_9allocatorIcEEEE13ToggleSettingEEPvEEE8__upcastB8ue170006Ev, symObjAddr: 0x5B64, symBinAddr: 0x100024020, symSize: 0x24 }
  - { offsetInCU: 0x196D9, offset: 0xC1F95, size: 0x8, addend: 0x0, symName: __ZNSt3__116allocator_traitsINS_9allocatorINS_11__hash_nodeINS_17__hash_value_typeINS_12basic_stringIcNS_11char_traitsIcEENS1_IcEEEE13ToggleSettingEEPvEEEEE7destroyB8ue170006INS_4pairIKS8_S9_EEvvEEvRSD_PT_, symObjAddr: 0x5B88, symBinAddr: 0x100024044, symSize: 0x28 }
  - { offsetInCU: 0x19717, offset: 0xC1FD3, size: 0x8, addend: 0x0, symName: __ZNSt3__122__hash_key_value_typesINS_17__hash_value_typeINS_12basic_stringIcNS_11char_traitsIcEENS_9allocatorIcEEEE13ToggleSettingEEE9__get_ptrB8ue170006ERS9_, symObjAddr: 0x5BB0, symBinAddr: 0x10002406C, symSize: 0x24 }
  - { offsetInCU: 0x1973A, offset: 0xC1FF6, size: 0x8, addend: 0x0, symName: __ZNSt3__116allocator_traitsINS_9allocatorINS_11__hash_nodeINS_17__hash_value_typeINS_12basic_stringIcNS_11char_traitsIcEENS1_IcEEEE13ToggleSettingEEPvEEEEE10deallocateB8ue170006ERSD_PSC_m, symObjAddr: 0x5BD4, symBinAddr: 0x100024090, symSize: 0x34 }
  - { offsetInCU: 0x1977F, offset: 0xC203B, size: 0x8, addend: 0x0, symName: __ZNSt3__117__compressed_pairINS_16__hash_node_baseIPNS_11__hash_nodeINS_17__hash_value_typeINS_12basic_stringIcNS_11char_traitsIcEENS_9allocatorIcEEEE13ToggleSettingEEPvEEEENS7_ISD_EEE6secondB8ue170006Ev, symObjAddr: 0x5C08, symBinAddr: 0x1000240C4, symSize: 0x24 }
  - { offsetInCU: 0x197A4, offset: 0xC2060, size: 0x8, addend: 0x0, symName: __ZNSt3__122__compressed_pair_elemINS_9allocatorINS_11__hash_nodeINS_17__hash_value_typeINS_12basic_stringIcNS_11char_traitsIcEENS1_IcEEEE13ToggleSettingEEPvEEEELi1ELb1EE5__getB8ue170006Ev, symObjAddr: 0x5C2C, symBinAddr: 0x1000240E8, symSize: 0x14 }
  - { offsetInCU: 0x197C9, offset: 0xC2085, size: 0x8, addend: 0x0, symName: __ZNSt3__114pointer_traitsIPNS_16__hash_node_baseIPNS_11__hash_nodeINS_17__hash_value_typeINS_12basic_stringIcNS_11char_traitsIcEENS_9allocatorIcEEEE13ToggleSettingEEPvEEEEE10pointer_toB8ue170006ERSF_, symObjAddr: 0x5C40, symBinAddr: 0x1000240FC, symSize: 0x14 }
  - { offsetInCU: 0x197EC, offset: 0xC20A8, size: 0x8, addend: 0x0, symName: __ZNSt3__14pairIKNS_12basic_stringIcNS_11char_traitsIcEENS_9allocatorIcEEEE13ToggleSettingED1Ev, symObjAddr: 0x5C9C, symBinAddr: 0x100024158, symSize: 0x2C }
  - { offsetInCU: 0x19817, offset: 0xC20D3, size: 0x8, addend: 0x0, symName: __ZNSt3__14pairIKNS_12basic_stringIcNS_11char_traitsIcEENS_9allocatorIcEEEE13ToggleSettingED2Ev, symObjAddr: 0x5CC8, symBinAddr: 0x100024184, symSize: 0x38 }
  - { offsetInCU: 0x19847, offset: 0xC2103, size: 0x8, addend: 0x0, symName: __ZN13ToggleSettingD1Ev, symObjAddr: 0x5D00, symBinAddr: 0x1000241BC, symSize: 0x2C }
  - { offsetInCU: 0x19872, offset: 0xC212E, size: 0x8, addend: 0x0, symName: __ZN13ToggleSettingD2Ev, symObjAddr: 0x5D2C, symBinAddr: 0x1000241E8, symSize: 0x3C }
  - { offsetInCU: 0x1989D, offset: 0xC2159, size: 0x8, addend: 0x0, symName: __ZNSt3__117__hash_value_typeINS_12basic_stringIcNS_11char_traitsIcEENS_9allocatorIcEEEE13ToggleSettingE11__get_valueB8ue170006Ev, symObjAddr: 0x5D68, symBinAddr: 0x100024224, symSize: 0x24 }
  - { offsetInCU: 0x198C2, offset: 0xC217E, size: 0x8, addend: 0x0, symName: __ZNSt3__19allocatorINS_11__hash_nodeINS_17__hash_value_typeINS_12basic_stringIcNS_11char_traitsIcEENS0_IcEEEE13ToggleSettingEEPvEEE10deallocateB8ue170006EPSB_m, symObjAddr: 0x5DC4, symBinAddr: 0x100024280, symSize: 0x44 }
  - { offsetInCU: 0x19903, offset: 0xC21BF, size: 0x8, addend: 0x0, symName: __ZNSt3__122__compressed_pair_elemINS_16__hash_node_baseIPNS_11__hash_nodeINS_17__hash_value_typeINS_12basic_stringIcNS_11char_traitsIcEENS_9allocatorIcEEEE13ToggleSettingEEPvEEEELi0ELb0EE5__getB8ue170006Ev, symObjAddr: 0x5E08, symBinAddr: 0x1000242C4, symSize: 0x14 }
  - { offsetInCU: 0x19928, offset: 0xC21E4, size: 0x8, addend: 0x0, symName: __ZNSt3__110unique_ptrIA_PNS_16__hash_node_baseIPNS_11__hash_nodeINS_17__hash_value_typeINS_12basic_stringIcNS_11char_traitsIcEENS_9allocatorIcEEEE13ToggleSettingEEPvEEEENS_25__bucket_list_deallocatorINS7_ISG_EEEEED2B8ue170006Ev, symObjAddr: 0x5E1C, symBinAddr: 0x1000242D8, symSize: 0x30 }
  - { offsetInCU: 0x19950, offset: 0xC220C, size: 0x8, addend: 0x0, symName: __ZNSt3__110unique_ptrIA_PNS_16__hash_node_baseIPNS_11__hash_nodeINS_17__hash_value_typeINS_12basic_stringIcNS_11char_traitsIcEENS_9allocatorIcEEEE13ToggleSettingEEPvEEEENS_25__bucket_list_deallocatorINS7_ISG_EEEEE5resetB8ue170006EDn, symObjAddr: 0x5E4C, symBinAddr: 0x100024308, symSize: 0x6C }
  - { offsetInCU: 0x19991, offset: 0xC224D, size: 0x8, addend: 0x0, symName: __ZNSt3__117__compressed_pairIPPNS_16__hash_node_baseIPNS_11__hash_nodeINS_17__hash_value_typeINS_12basic_stringIcNS_11char_traitsIcEENS_9allocatorIcEEEE13ToggleSettingEEPvEEEENS_25__bucket_list_deallocatorINS7_ISG_EEEEE5firstB8ue170006Ev, symObjAddr: 0x5EB8, symBinAddr: 0x100024374, symSize: 0x24 }
  - { offsetInCU: 0x199B6, offset: 0xC2272, size: 0x8, addend: 0x0, symName: __ZNSt3__117__compressed_pairIPPNS_16__hash_node_baseIPNS_11__hash_nodeINS_17__hash_value_typeINS_12basic_stringIcNS_11char_traitsIcEENS_9allocatorIcEEEE13ToggleSettingEEPvEEEENS_25__bucket_list_deallocatorINS7_ISG_EEEEE6secondB8ue170006Ev, symObjAddr: 0x5EDC, symBinAddr: 0x100024398, symSize: 0x28 }
  - { offsetInCU: 0x199DB, offset: 0xC2297, size: 0x8, addend: 0x0, symName: __ZNSt3__125__bucket_list_deallocatorINS_9allocatorIPNS_16__hash_node_baseIPNS_11__hash_nodeINS_17__hash_value_typeINS_12basic_stringIcNS_11char_traitsIcEENS1_IcEEEE13ToggleSettingEEPvEEEEEEEclB8ue170006EPSG_, symObjAddr: 0x5F04, symBinAddr: 0x1000243C0, symSize: 0x58 }
  - { offsetInCU: 0x19A10, offset: 0xC22CC, size: 0x8, addend: 0x0, symName: __ZNSt3__122__compressed_pair_elemIPPNS_16__hash_node_baseIPNS_11__hash_nodeINS_17__hash_value_typeINS_12basic_stringIcNS_11char_traitsIcEENS_9allocatorIcEEEE13ToggleSettingEEPvEEEELi0ELb0EE5__getB8ue170006Ev, symObjAddr: 0x5F5C, symBinAddr: 0x100024418, symSize: 0x14 }
  - { offsetInCU: 0x19A35, offset: 0xC22F1, size: 0x8, addend: 0x0, symName: __ZNSt3__122__compressed_pair_elemINS_25__bucket_list_deallocatorINS_9allocatorIPNS_16__hash_node_baseIPNS_11__hash_nodeINS_17__hash_value_typeINS_12basic_stringIcNS_11char_traitsIcEENS2_IcEEEE13ToggleSettingEEPvEEEEEEEELi1ELb0EE5__getB8ue170006Ev, symObjAddr: 0x5F70, symBinAddr: 0x10002442C, symSize: 0x14 }
  - { offsetInCU: 0x19A5A, offset: 0xC2316, size: 0x8, addend: 0x0, symName: __ZNSt3__116allocator_traitsINS_9allocatorIPNS_16__hash_node_baseIPNS_11__hash_nodeINS_17__hash_value_typeINS_12basic_stringIcNS_11char_traitsIcEENS1_IcEEEE13ToggleSettingEEPvEEEEEEE10deallocateB8ue170006ERSH_PSG_m, symObjAddr: 0x5F84, symBinAddr: 0x100024440, symSize: 0x34 }
  - { offsetInCU: 0x19A9F, offset: 0xC235B, size: 0x8, addend: 0x0, symName: __ZNSt3__125__bucket_list_deallocatorINS_9allocatorIPNS_16__hash_node_baseIPNS_11__hash_nodeINS_17__hash_value_typeINS_12basic_stringIcNS_11char_traitsIcEENS1_IcEEEE13ToggleSettingEEPvEEEEEEE7__allocB8ue170006Ev, symObjAddr: 0x5FB8, symBinAddr: 0x100024474, symSize: 0x24 }
  - { offsetInCU: 0x19AC4, offset: 0xC2380, size: 0x8, addend: 0x0, symName: __ZNSt3__125__bucket_list_deallocatorINS_9allocatorIPNS_16__hash_node_baseIPNS_11__hash_nodeINS_17__hash_value_typeINS_12basic_stringIcNS_11char_traitsIcEENS1_IcEEEE13ToggleSettingEEPvEEEEEEE4sizeB8ue170006Ev, symObjAddr: 0x5FDC, symBinAddr: 0x100024498, symSize: 0x24 }
  - { offsetInCU: 0x19AE9, offset: 0xC23A5, size: 0x8, addend: 0x0, symName: __ZNSt3__19allocatorIPNS_16__hash_node_baseIPNS_11__hash_nodeINS_17__hash_value_typeINS_12basic_stringIcNS_11char_traitsIcEENS0_IcEEEE13ToggleSettingEEPvEEEEE10deallocateB8ue170006EPSF_m, symObjAddr: 0x6000, symBinAddr: 0x1000244BC, symSize: 0x40 }
  - { offsetInCU: 0x19B2A, offset: 0xC23E6, size: 0x8, addend: 0x0, symName: __ZNSt3__117__compressed_pairImNS_9allocatorIPNS_16__hash_node_baseIPNS_11__hash_nodeINS_17__hash_value_typeINS_12basic_stringIcNS_11char_traitsIcEENS1_IcEEEE13ToggleSettingEEPvEEEEEEE6secondB8ue170006Ev, symObjAddr: 0x6040, symBinAddr: 0x1000244FC, symSize: 0x24 }
  - { offsetInCU: 0x19B4F, offset: 0xC240B, size: 0x8, addend: 0x0, symName: __ZNSt3__122__compressed_pair_elemINS_9allocatorIPNS_16__hash_node_baseIPNS_11__hash_nodeINS_17__hash_value_typeINS_12basic_stringIcNS_11char_traitsIcEENS1_IcEEEE13ToggleSettingEEPvEEEEEELi1ELb1EE5__getB8ue170006Ev, symObjAddr: 0x6064, symBinAddr: 0x100024520, symSize: 0x14 }
  - { offsetInCU: 0x19B74, offset: 0xC2430, size: 0x8, addend: 0x0, symName: __ZNSt3__117__compressed_pairImNS_9allocatorIPNS_16__hash_node_baseIPNS_11__hash_nodeINS_17__hash_value_typeINS_12basic_stringIcNS_11char_traitsIcEENS1_IcEEEE13ToggleSettingEEPvEEEEEEE5firstB8ue170006Ev, symObjAddr: 0x6078, symBinAddr: 0x100024534, symSize: 0x24 }
  - { offsetInCU: 0x19B99, offset: 0xC2455, size: 0x8, addend: 0x0, symName: __ZNK8TextFile12getSaveStateEv, symObjAddr: 0x609C, symBinAddr: 0x100024558, symSize: 0x18 }
  - { offsetInCU: 0x19BBE, offset: 0xC247A, size: 0x8, addend: 0x0, symName: __ZNSt3__16atomicIbEaSB8ue170006Eb, symObjAddr: 0x60B4, symBinAddr: 0x100024570, symSize: 0x44 }
  - { offsetInCU: 0x19BF1, offset: 0xC24AD, size: 0x8, addend: 0x0, symName: __ZNSt3__113__atomic_baseIbLb0EE5storeB8ue170006EbNS_12memory_orderE, symObjAddr: 0x60F8, symBinAddr: 0x1000245B4, symSize: 0x40 }
  - { offsetInCU: 0x19C32, offset: 0xC24EE, size: 0x8, addend: 0x0, symName: '__ZZN16EditorController17startAutoSaveLoopENSt3__14__fs10filesystem4pathEEN3$_0D2Ev', symObjAddr: 0x61FC, symBinAddr: 0x100024684, symSize: 0x30 }
  - { offsetInCU: 0x19CAD, offset: 0xC2569, size: 0x8, addend: 0x0, symName: __ZNKSt3__113__atomic_baseIbLb0EEcvbB8ue170006Ev, symObjAddr: 0x8F7C, symBinAddr: 0x1000246B4, symSize: 0x2C }
  - { offsetInCU: 0x19CD2, offset: 0xC258E, size: 0x8, addend: 0x0, symName: __ZNKSt3__113__atomic_baseIbLb0EE4loadB8ue170006ENS_12memory_orderE, symObjAddr: 0x8FA8, symBinAddr: 0x1000246E0, symSize: 0x30 }
  - { offsetInCU: 0x19D05, offset: 0xC25C1, size: 0x8, addend: 0x0, symName: __ZNRSt3__123__optional_storage_baseINS_10shared_ptrI6ActionEELb0EE5__getB8ue170006Ev, symObjAddr: 0x905C, symBinAddr: 0x100024794, symSize: 0x14 }
  - { offsetInCU: 0x19D2A, offset: 0xC25E6, size: 0x8, addend: 0x0, symName: __ZN10RenderInfoD2Ev, symObjAddr: 0x91C0, symBinAddr: 0x1000247A8, symSize: 0x50 }
  - { offsetInCU: 0x19D52, offset: 0xC260E, size: 0x8, addend: 0x0, symName: '__ZNSt3__16threadC2IZN16EditorController17startAutoSaveLoopENS_4__fs10filesystem4pathEE3$_0JEvEEOT_DpOT0_', symObjAddr: 0x9210, symBinAddr: 0x1000247F8, symSize: 0x148 }
  - { offsetInCU: 0x19DC9, offset: 0xC2685, size: 0x8, addend: 0x0, symName: __ZNSt3__110unique_ptrINS_15__thread_structENS_14default_deleteIS1_EEEC1B8ue170006ILb1EvEEPS1_, symObjAddr: 0x9358, symBinAddr: 0x100024940, symSize: 0x34 }
  - { offsetInCU: 0x19E0B, offset: 0xC26C7, size: 0x8, addend: 0x0, symName: '__ZNSt3__15tupleIJNS_10unique_ptrINS_15__thread_structENS_14default_deleteIS2_EEEEZN16EditorController17startAutoSaveLoopENS_4__fs10filesystem4pathEE3$_0EEC1B8ue170006IJS5_SA_ELi0EEEDpOT_', symObjAddr: 0x938C, symBinAddr: 0x100024974, symSize: 0x3C }
  - { offsetInCU: 0x19EFA, offset: 0xC27B6, size: 0x8, addend: 0x0, symName: '__ZNSt3__110unique_ptrINS_5tupleIJNS0_INS_15__thread_structENS_14default_deleteIS2_EEEEZN16EditorController17startAutoSaveLoopENS_4__fs10filesystem4pathEE3$_0EEENS3_ISB_EEEC1B8ue170006ILb1EvEEPSB_', symObjAddr: 0x93C8, symBinAddr: 0x1000249B0, symSize: 0x34 }
  - { offsetInCU: 0x19F3C, offset: 0xC27F8, size: 0x8, addend: 0x0, symName: '__ZNKSt3__110unique_ptrINS_5tupleIJNS0_INS_15__thread_structENS_14default_deleteIS2_EEEEZN16EditorController17startAutoSaveLoopENS_4__fs10filesystem4pathEE3$_0EEENS3_ISB_EEE3getB8ue170006Ev', symObjAddr: 0x94C4, symBinAddr: 0x100024AAC, symSize: 0x28 }
  - { offsetInCU: 0x19F61, offset: 0xC281D, size: 0x8, addend: 0x0, symName: '__ZNSt3__110unique_ptrINS_5tupleIJNS0_INS_15__thread_structENS_14default_deleteIS2_EEEEZN16EditorController17startAutoSaveLoopENS_4__fs10filesystem4pathEE3$_0EEENS3_ISB_EEE7releaseB8ue170006Ev', symObjAddr: 0x94EC, symBinAddr: 0x100024AD4, symSize: 0x44 }
  - { offsetInCU: 0x19F96, offset: 0xC2852, size: 0x8, addend: 0x0, symName: '__ZNSt3__110unique_ptrINS_5tupleIJNS0_INS_15__thread_structENS_14default_deleteIS2_EEEEZN16EditorController17startAutoSaveLoopENS_4__fs10filesystem4pathEE3$_0EEENS3_ISB_EEED1B8ue170006Ev', symObjAddr: 0x9530, symBinAddr: 0x100024B18, symSize: 0x2C }
  - { offsetInCU: 0x19FBE, offset: 0xC287A, size: 0x8, addend: 0x0, symName: __ZNSt3__110unique_ptrINS_15__thread_structENS_14default_deleteIS1_EEED1B8ue170006Ev, symObjAddr: 0x955C, symBinAddr: 0x100024B44, symSize: 0x2C }
  - { offsetInCU: 0x19FE6, offset: 0xC28A2, size: 0x8, addend: 0x0, symName: __ZNSt3__110unique_ptrINS_15__thread_structENS_14default_deleteIS1_EEEC2B8ue170006ILb1EvEEPS1_, symObjAddr: 0x9588, symBinAddr: 0x100024B70, symSize: 0x44 }
  - { offsetInCU: 0x1A02D, offset: 0xC28E9, size: 0x8, addend: 0x0, symName: __ZNSt3__117__compressed_pairIPNS_15__thread_structENS_14default_deleteIS1_EEEC1B8ue170006IRS2_NS_16__value_init_tagEEEOT_OT0_, symObjAddr: 0x95CC, symBinAddr: 0x100024BB4, symSize: 0x3C }
  - { offsetInCU: 0x1A083, offset: 0xC293F, size: 0x8, addend: 0x0, symName: __ZNSt3__117__compressed_pairIPNS_15__thread_structENS_14default_deleteIS1_EEEC2B8ue170006IRS2_NS_16__value_init_tagEEEOT_OT0_, symObjAddr: 0x9608, symBinAddr: 0x100024BF0, symSize: 0x40 }
  - { offsetInCU: 0x1A0D9, offset: 0xC2995, size: 0x8, addend: 0x0, symName: __ZNSt3__122__compressed_pair_elemIPNS_15__thread_structELi0ELb0EEC2B8ue170006IRS2_vEEOT_, symObjAddr: 0x9648, symBinAddr: 0x100024C30, symSize: 0x24 }
  - { offsetInCU: 0x1A11B, offset: 0xC29D7, size: 0x8, addend: 0x0, symName: __ZNSt3__122__compressed_pair_elemINS_14default_deleteINS_15__thread_structEEELi1ELb1EEC2B8ue170006ENS_16__value_init_tagE, symObjAddr: 0x966C, symBinAddr: 0x100024C54, symSize: 0x14 }
  - { offsetInCU: 0x1A14F, offset: 0xC2A0B, size: 0x8, addend: 0x0, symName: '__ZNSt3__15tupleIJNS_10unique_ptrINS_15__thread_structENS_14default_deleteIS2_EEEEZN16EditorController17startAutoSaveLoopENS_4__fs10filesystem4pathEE3$_0EEC2B8ue170006IJS5_SA_ELi0EEEDpOT_', symObjAddr: 0x9680, symBinAddr: 0x100024C68, symSize: 0x3C }
  - { offsetInCU: 0x1A1AD, offset: 0xC2A69, size: 0x8, addend: 0x0, symName: '__ZNSt3__112__tuple_implINS_15__tuple_indicesIJLm0ELm1EEEEJNS_10unique_ptrINS_15__thread_structENS_14default_deleteIS4_EEEEZN16EditorController17startAutoSaveLoopENS_4__fs10filesystem4pathEE3$_0EEC1B8ue170006IJLm0ELm1EEJS7_SC_EJEJEJS7_SC_EEENS1_IJXspT_EEEENS_13__tuple_typesIJDpT0_EEENS1_IJXspT1_EEEENSG_IJDpT2_EEEDpOT3_', symObjAddr: 0x96BC, symBinAddr: 0x100024CA4, symSize: 0x3C }
  - { offsetInCU: 0x1A263, offset: 0xC2B1F, size: 0x8, addend: 0x0, symName: '__ZNSt3__112__tuple_implINS_15__tuple_indicesIJLm0ELm1EEEEJNS_10unique_ptrINS_15__thread_structENS_14default_deleteIS4_EEEEZN16EditorController17startAutoSaveLoopENS_4__fs10filesystem4pathEE3$_0EEC2B8ue170006IJLm0ELm1EEJS7_SC_EJEJEJS7_SC_EEENS1_IJXspT_EEEENS_13__tuple_typesIJDpT0_EEENS1_IJXspT1_EEEENSG_IJDpT2_EEEDpOT3_', symObjAddr: 0x96F8, symBinAddr: 0x100024CE0, symSize: 0x48 }
  - { offsetInCU: 0x1A319, offset: 0xC2BD5, size: 0x8, addend: 0x0, symName: __ZNSt3__112__tuple_leafILm0ENS_10unique_ptrINS_15__thread_structENS_14default_deleteIS2_EEEELb0EEC2B8ue170006IS5_vEEOT_, symObjAddr: 0x9740, symBinAddr: 0x100024D28, symSize: 0x34 }
  - { offsetInCU: 0x1A35C, offset: 0xC2C18, size: 0x8, addend: 0x0, symName: '__ZNSt3__112__tuple_leafILm1EZN16EditorController17startAutoSaveLoopENS_4__fs10filesystem4pathEE3$_0Lb0EEC2B8ue170006IS5_vEEOT_', symObjAddr: 0x9774, symBinAddr: 0x100024D5C, symSize: 0x34 }
  - { offsetInCU: 0x1A39F, offset: 0xC2C5B, size: 0x8, addend: 0x0, symName: __ZNSt3__110unique_ptrINS_15__thread_structENS_14default_deleteIS1_EEEC1B8ue170006EOS4_, symObjAddr: 0x97A8, symBinAddr: 0x100024D90, symSize: 0x34 }
  - { offsetInCU: 0x1A3D5, offset: 0xC2C91, size: 0x8, addend: 0x0, symName: __ZNSt3__110unique_ptrINS_15__thread_structENS_14default_deleteIS1_EEEC2B8ue170006EOS4_, symObjAddr: 0x97DC, symBinAddr: 0x100024DC4, symSize: 0x60 }
  - { offsetInCU: 0x1A40B, offset: 0xC2CC7, size: 0x8, addend: 0x0, symName: __ZNSt3__110unique_ptrINS_15__thread_structENS_14default_deleteIS1_EEE7releaseB8ue170006Ev, symObjAddr: 0x983C, symBinAddr: 0x100024E24, symSize: 0x44 }
  - { offsetInCU: 0x1A440, offset: 0xC2CFC, size: 0x8, addend: 0x0, symName: __ZNSt3__110unique_ptrINS_15__thread_structENS_14default_deleteIS1_EEE11get_deleterB8ue170006Ev, symObjAddr: 0x9880, symBinAddr: 0x100024E68, symSize: 0x24 }
  - { offsetInCU: 0x1A46F, offset: 0xC2D2B, size: 0x8, addend: 0x0, symName: __ZNSt3__117__compressed_pairIPNS_15__thread_structENS_14default_deleteIS1_EEEC1B8ue170006IS2_S4_EEOT_OT0_, symObjAddr: 0x98A4, symBinAddr: 0x100024E8C, symSize: 0x3C }
  - { offsetInCU: 0x1A4C5, offset: 0xC2D81, size: 0x8, addend: 0x0, symName: __ZNSt3__117__compressed_pairIPNS_15__thread_structENS_14default_deleteIS1_EEE5firstB8ue170006Ev, symObjAddr: 0x98E0, symBinAddr: 0x100024EC8, symSize: 0x24 }
  - { offsetInCU: 0x1A4EA, offset: 0xC2DA6, size: 0x8, addend: 0x0, symName: __ZNSt3__122__compressed_pair_elemIPNS_15__thread_structELi0ELb0EE5__getB8ue170006Ev, symObjAddr: 0x9904, symBinAddr: 0x100024EEC, symSize: 0x14 }
  - { offsetInCU: 0x1A50F, offset: 0xC2DCB, size: 0x8, addend: 0x0, symName: __ZNSt3__117__compressed_pairIPNS_15__thread_structENS_14default_deleteIS1_EEE6secondB8ue170006Ev, symObjAddr: 0x9918, symBinAddr: 0x100024F00, symSize: 0x24 }
  - { offsetInCU: 0x1A534, offset: 0xC2DF0, size: 0x8, addend: 0x0, symName: __ZNSt3__122__compressed_pair_elemINS_14default_deleteINS_15__thread_structEEELi1ELb1EE5__getB8ue170006Ev, symObjAddr: 0x993C, symBinAddr: 0x100024F24, symSize: 0x14 }
  - { offsetInCU: 0x1A559, offset: 0xC2E15, size: 0x8, addend: 0x0, symName: __ZNSt3__117__compressed_pairIPNS_15__thread_structENS_14default_deleteIS1_EEEC2B8ue170006IS2_S4_EEOT_OT0_, symObjAddr: 0x9950, symBinAddr: 0x100024F38, symSize: 0x44 }
  - { offsetInCU: 0x1A5AF, offset: 0xC2E6B, size: 0x8, addend: 0x0, symName: __ZNSt3__122__compressed_pair_elemIPNS_15__thread_structELi0ELb0EEC2B8ue170006IS2_vEEOT_, symObjAddr: 0x9994, symBinAddr: 0x100024F7C, symSize: 0x24 }
  - { offsetInCU: 0x1A5F1, offset: 0xC2EAD, size: 0x8, addend: 0x0, symName: __ZNSt3__122__compressed_pair_elemINS_14default_deleteINS_15__thread_structEEELi1ELb1EEC2B8ue170006IS3_vEEOT_, symObjAddr: 0x99B8, symBinAddr: 0x100024FA0, symSize: 0x18 }
  - { offsetInCU: 0x1A633, offset: 0xC2EEF, size: 0x8, addend: 0x0, symName: '__ZZN16EditorController17startAutoSaveLoopENSt3__14__fs10filesystem4pathEEN3$_0C1EOS4_', symObjAddr: 0x99D0, symBinAddr: 0x100024FB8, symSize: 0x34 }
  - { offsetInCU: 0x1A667, offset: 0xC2F23, size: 0x8, addend: 0x0, symName: '__ZZN16EditorController17startAutoSaveLoopENSt3__14__fs10filesystem4pathEEN3$_0C2EOS4_', symObjAddr: 0x9A04, symBinAddr: 0x100024FEC, symSize: 0x48 }
  - { offsetInCU: 0x1A69B, offset: 0xC2F57, size: 0x8, addend: 0x0, symName: __ZNSt3__14__fs10filesystem4pathC1B8ue170006EOS2_, symObjAddr: 0x9A4C, symBinAddr: 0x100025034, symSize: 0x34 }
  - { offsetInCU: 0x1A6D3, offset: 0xC2F8F, size: 0x8, addend: 0x0, symName: __ZNSt3__14__fs10filesystem4pathC2B8ue170006EOS2_, symObjAddr: 0x9A80, symBinAddr: 0x100025068, symSize: 0x34 }
  - { offsetInCU: 0x1A70B, offset: 0xC2FC7, size: 0x8, addend: 0x0, symName: '__ZNSt3__110unique_ptrINS_5tupleIJNS0_INS_15__thread_structENS_14default_deleteIS2_EEEEZN16EditorController17startAutoSaveLoopENS_4__fs10filesystem4pathEE3$_0EEENS3_ISB_EEEC2B8ue170006ILb1EvEEPSB_', symObjAddr: 0x9BB0, symBinAddr: 0x10002509C, symSize: 0x44 }
  - { offsetInCU: 0x1A74D, offset: 0xC3009, size: 0x8, addend: 0x0, symName: '__ZNSt3__117__compressed_pairIPNS_5tupleIJNS_10unique_ptrINS_15__thread_structENS_14default_deleteIS3_EEEEZN16EditorController17startAutoSaveLoopENS_4__fs10filesystem4pathEE3$_0EEENS4_ISC_EEEC1B8ue170006IRSD_NS_16__value_init_tagEEEOT_OT0_', symObjAddr: 0x9BF4, symBinAddr: 0x1000250E0, symSize: 0x3C }
  - { offsetInCU: 0x1A7A3, offset: 0xC305F, size: 0x8, addend: 0x0, symName: '__ZNSt3__117__compressed_pairIPNS_5tupleIJNS_10unique_ptrINS_15__thread_structENS_14default_deleteIS3_EEEEZN16EditorController17startAutoSaveLoopENS_4__fs10filesystem4pathEE3$_0EEENS4_ISC_EEEC2B8ue170006IRSD_NS_16__value_init_tagEEEOT_OT0_', symObjAddr: 0x9C30, symBinAddr: 0x10002511C, symSize: 0x40 }
  - { offsetInCU: 0x1A7F9, offset: 0xC30B5, size: 0x8, addend: 0x0, symName: '__ZNSt3__122__compressed_pair_elemIPNS_5tupleIJNS_10unique_ptrINS_15__thread_structENS_14default_deleteIS3_EEEEZN16EditorController17startAutoSaveLoopENS_4__fs10filesystem4pathEE3$_0EEELi0ELb0EEC2B8ue170006IRSD_vEEOT_', symObjAddr: 0x9C70, symBinAddr: 0x10002515C, symSize: 0x24 }
  - { offsetInCU: 0x1A83B, offset: 0xC30F7, size: 0x8, addend: 0x0, symName: '__ZNSt3__122__compressed_pair_elemINS_14default_deleteINS_5tupleIJNS_10unique_ptrINS_15__thread_structENS1_IS4_EEEEZN16EditorController17startAutoSaveLoopENS_4__fs10filesystem4pathEE3$_0EEEEELi1ELb1EEC2B8ue170006ENS_16__value_init_tagE', symObjAddr: 0x9C94, symBinAddr: 0x100025180, symSize: 0x14 }
  - { offsetInCU: 0x1A89E, offset: 0xC315A, size: 0x8, addend: 0x0, symName: __ZNSt3__121__thread_specific_ptrINS_15__thread_structEE11set_pointerEPS1_, symObjAddr: 0x9CA8, symBinAddr: 0x100025194, symSize: 0x30 }
  - { offsetInCU: 0x1A8D2, offset: 0xC318E, size: 0x8, addend: 0x0, symName: __ZNSt3__112__tuple_leafILm0ENS_10unique_ptrINS_15__thread_structENS_14default_deleteIS2_EEEELb0EE3getB8ue170006Ev, symObjAddr: 0x9D50, symBinAddr: 0x10002523C, symSize: 0x14 }
  - { offsetInCU: 0x1A8FC, offset: 0xC31B8, size: 0x8, addend: 0x0, symName: '__ZZN16EditorController17startAutoSaveLoopENSt3__14__fs10filesystem4pathEENK3$_0clEv', symObjAddr: 0x9DB0, symBinAddr: 0x10002529C, symSize: 0x1D0 }
  - { offsetInCU: 0x1A96C, offset: 0xC3228, size: 0x8, addend: 0x0, symName: __ZNSt3__111unique_lockINS_5mutexEEC1B8ue170006ERS1_, symObjAddr: 0x9F80, symBinAddr: 0x10002546C, symSize: 0x34 }
  - { offsetInCU: 0x1A9A2, offset: 0xC325E, size: 0x8, addend: 0x0, symName: '__ZNSt3__118condition_variable8wait_forB8ue170006IxNS_5ratioILl1ELl1EEEZZN16EditorController17startAutoSaveLoopENS_4__fs10filesystem4pathEENK3$_0clEvEUlvE_EEbRNS_11unique_lockINS_5mutexEEERKNS_6chrono8durationIT_T0_EET1_', symObjAddr: 0x9FB4, symBinAddr: 0x1000254A0, symSize: 0x78 }
  - { offsetInCU: 0x1AA0C, offset: 0xC32C8, size: 0x8, addend: 0x0, symName: __ZNK11EditorState11needsBackupEv, symObjAddr: 0xA02C, symBinAddr: 0x100025518, symSize: 0x2C }
  - { offsetInCU: 0x1AA31, offset: 0xC32ED, size: 0x8, addend: 0x0, symName: __ZNSt3__111unique_lockINS_5mutexEED1B8ue170006Ev, symObjAddr: 0xA058, symBinAddr: 0x100025544, symSize: 0x2C }
  - { offsetInCU: 0x1AA59, offset: 0xC3315, size: 0x8, addend: 0x0, symName: __ZNSt3__111unique_lockINS_5mutexEEC2B8ue170006ERS1_, symObjAddr: 0xA084, symBinAddr: 0x100025570, symSize: 0x44 }
  - { offsetInCU: 0x1AA8F, offset: 0xC334B, size: 0x8, addend: 0x0, symName: '__ZNSt3__118condition_variable10wait_untilINS_6chrono12steady_clockENS2_8durationIxNS_5ratioILl1ELl1000000000EEEEEZZN16EditorController17startAutoSaveLoopENS_4__fs10filesystem4pathEENK3$_0clEvEUlvE_EEbRNS_11unique_lockINS_5mutexEEERKNS2_10time_pointIT_T0_EET1_', symObjAddr: 0xA0C8, symBinAddr: 0x1000255B4, symSize: 0x9C }
  - { offsetInCU: 0x1AB03, offset: 0xC33BF, size: 0x8, addend: 0x0, symName: '__ZZZN16EditorController17startAutoSaveLoopENSt3__14__fs10filesystem4pathEENK3$_0clEvENKUlvE_clEv', symObjAddr: 0xA1B4, symBinAddr: 0x1000256A0, symSize: 0x30 }
  - { offsetInCU: 0x1AB3A, offset: 0xC33F6, size: 0x8, addend: 0x0, symName: __ZNSt3__120_CmpUnspecifiedParamC1B8ue170006EMS0_i, symObjAddr: 0xA358, symBinAddr: 0x100025844, symSize: 0x34 }
  - { offsetInCU: 0x1AB6D, offset: 0xC3429, size: 0x8, addend: 0x0, symName: __ZNKSt3__16chrono10time_pointINS0_12steady_clockENS0_8durationIxNS_5ratioILl1ELl1000000000EEEEEE16time_since_epochB8ue170006Ev, symObjAddr: 0xA4DC, symBinAddr: 0x1000259C8, symSize: 0x20 }
  - { offsetInCU: 0x1AB92, offset: 0xC344E, size: 0x8, addend: 0x0, symName: __ZNSt3__16chrono10time_pointINS0_12steady_clockENS0_8durationIxNS_5ratioILl1ELl1000000000EEEEEEC1B8ue170006ERKS6_, symObjAddr: 0xA4FC, symBinAddr: 0x1000259E8, symSize: 0x34 }
  - { offsetInCU: 0x1ABC8, offset: 0xC3484, size: 0x8, addend: 0x0, symName: __ZNSt3__118condition_variable15__do_timed_waitB8ue170006INS_6chrono12steady_clockEEEvRNS_11unique_lockINS_5mutexEEENS2_10time_pointIT_NS2_8durationIxNS_5ratioILl1ELl1000000000EEEEEEE, symObjAddr: 0xA530, symBinAddr: 0x100025A1C, symSize: 0x7C }
  - { offsetInCU: 0x1AC13, offset: 0xC34CF, size: 0x8, addend: 0x0, symName: __ZNKSt3__16chrono8durationIxNS_5ratioILl1ELl1000000000EEEE5countB8ue170006Ev, symObjAddr: 0xA65C, symBinAddr: 0x100025B48, symSize: 0x18 }
  - { offsetInCU: 0x1AC38, offset: 0xC34F4, size: 0x8, addend: 0x0, symName: __ZNSt3__120_CmpUnspecifiedParamC2B8ue170006EMS0_i, symObjAddr: 0xA674, symBinAddr: 0x100025B60, symSize: 0x18 }
  - { offsetInCU: 0x1AC76, offset: 0xC3532, size: 0x8, addend: 0x0, symName: __ZNSt3__16chrono8durationIxNS_5ratioILl1ELl1000000000EEEEC1B8ue170006IiEERKT_PNS_9enable_ifIXaasr14is_convertibleIS8_xEE5valueooL_ZNS_17integral_constantIbLb0EE5valueEEntsr23treat_as_floating_pointIS6_EE5valueEvE4typeE, symObjAddr: 0xA68C, symBinAddr: 0x100025B78, symSize: 0x3C }
  - { offsetInCU: 0x1ACC1, offset: 0xC357D, size: 0x8, addend: 0x0, symName: __ZNSt3__114numeric_limitsIxE3maxB8ue170006Ev, symObjAddr: 0xA6C8, symBinAddr: 0x100025BB4, symSize: 0x14 }
  - { offsetInCU: 0x1ACD5, offset: 0xC3591, size: 0x8, addend: 0x0, symName: __ZNSt3__16chrono8durationIxNS_5ratioILl1ELl1000000000EEEE3maxB8ue170006Ev, symObjAddr: 0xA6DC, symBinAddr: 0x100025BC8, symSize: 0x3C }
  - { offsetInCU: 0x1ACE9, offset: 0xC35A5, size: 0x8, addend: 0x0, symName: __ZNSt3__114numeric_limitsIxE3minB8ue170006Ev, symObjAddr: 0xA718, symBinAddr: 0x100025C04, symSize: 0x14 }
  - { offsetInCU: 0x1ACFD, offset: 0xC35B9, size: 0x8, addend: 0x0, symName: __ZNSt3__16chrono8durationIxNS_5ratioILl1ELl1000000000EEEE3minB8ue170006Ev, symObjAddr: 0xA72C, symBinAddr: 0x100025C18, symSize: 0x3C }
  - { offsetInCU: 0x1AD1B, offset: 0xC35D7, size: 0x8, addend: 0x0, symName: __ZNSt3__16chrono8durationIxNS_5ratioILl1ELl1000000000EEEEC1B8ue170006IxEERKT_PNS_9enable_ifIXaasr14is_convertibleIS8_xEE5valueooL_ZNS_17integral_constantIbLb0EE5valueEEntsr23treat_as_floating_pointIS6_EE5valueEvE4typeE, symObjAddr: 0xA768, symBinAddr: 0x100025C54, symSize: 0x3C }
  - { offsetInCU: 0x1AD66, offset: 0xC3622, size: 0x8, addend: 0x0, symName: __ZNSt3__16chrono8durationIxNS_5ratioILl1ELl1000000000EEEEC2B8ue170006IiEERKT_PNS_9enable_ifIXaasr14is_convertibleIS8_xEE5valueooL_ZNS_17integral_constantIbLb0EE5valueEEntsr23treat_as_floating_pointIS6_EE5valueEvE4typeE, symObjAddr: 0xA7A4, symBinAddr: 0x100025C90, symSize: 0x28 }
  - { offsetInCU: 0x1ADB2, offset: 0xC366E, size: 0x8, addend: 0x0, symName: __ZNSt3__123__libcpp_numeric_limitsIxLb1EE3maxB8ue170006Ev, symObjAddr: 0xA7CC, symBinAddr: 0x100025CB8, symSize: 0x8 }
  - { offsetInCU: 0x1ADC6, offset: 0xC3682, size: 0x8, addend: 0x0, symName: __ZNSt3__16chrono15duration_valuesIxE3maxB8ue170006Ev, symObjAddr: 0xA7D4, symBinAddr: 0x100025CC0, symSize: 0x14 }
  - { offsetInCU: 0x1ADDA, offset: 0xC3696, size: 0x8, addend: 0x0, symName: __ZNSt3__123__libcpp_numeric_limitsIxLb1EE3minB8ue170006Ev, symObjAddr: 0xA7E8, symBinAddr: 0x100025CD4, symSize: 0x8 }
  - { offsetInCU: 0x1ADEE, offset: 0xC36AA, size: 0x8, addend: 0x0, symName: __ZNSt3__16chrono15duration_valuesIxE3minB8ue170006Ev, symObjAddr: 0xA7F0, symBinAddr: 0x100025CDC, symSize: 0x14 }
  - { offsetInCU: 0x1AE02, offset: 0xC36BE, size: 0x8, addend: 0x0, symName: __ZNSt3__114numeric_limitsIxE6lowestB8ue170006Ev, symObjAddr: 0xA804, symBinAddr: 0x100025CF0, symSize: 0x14 }
  - { offsetInCU: 0x1AE16, offset: 0xC36D2, size: 0x8, addend: 0x0, symName: __ZNSt3__123__libcpp_numeric_limitsIxLb1EE6lowestB8ue170006Ev, symObjAddr: 0xA818, symBinAddr: 0x100025D04, symSize: 0x14 }
  - { offsetInCU: 0x1AE2A, offset: 0xC36E6, size: 0x8, addend: 0x0, symName: __ZNSt3__16chrono8durationIxNS_5ratioILl1ELl1000000000EEEEC2B8ue170006IxEERKT_PNS_9enable_ifIXaasr14is_convertibleIS8_xEE5valueooL_ZNS_17integral_constantIbLb0EE5valueEEntsr23treat_as_floating_pointIS6_EE5valueEvE4typeE, symObjAddr: 0xA82C, symBinAddr: 0x100025D18, symSize: 0x28 }
  - { offsetInCU: 0x1AE76, offset: 0xC3732, size: 0x8, addend: 0x0, symName: __ZNSt3__16chrono10time_pointINS0_12steady_clockENS0_8durationIxNS_5ratioILl1ELl1000000000EEEEEEC2B8ue170006ERKS6_, symObjAddr: 0xA854, symBinAddr: 0x100025D40, symSize: 0x24 }
  - { offsetInCU: 0x1AEAD, offset: 0xC3769, size: 0x8, addend: 0x0, symName: __ZNSt3__118condition_variable8wait_forIxNS_5ratioILl1ELl1000000000EEEEENS_9cv_statusERNS_11unique_lockINS_5mutexEEERKNS_6chrono8durationIT_T0_EE, symObjAddr: 0xA878, symBinAddr: 0x100025D64, symSize: 0x20C }
  - { offsetInCU: 0x1AF35, offset: 0xC37F1, size: 0x8, addend: 0x0, symName: __ZNSt3__16chrono8durationIxNS_5ratioILl1ELl1000000000EEEE4zeroB8ue170006Ev, symObjAddr: 0xAADC, symBinAddr: 0x100025FC8, symSize: 0x3C }
  - { offsetInCU: 0x1AF49, offset: 0xC3805, size: 0x8, addend: 0x0, symName: __ZNKSt3__16chrono10time_pointINS0_12system_clockENS0_8durationIxNS_5ratioILl1ELl1000000EEEEEE16time_since_epochB8ue170006Ev, symObjAddr: 0xAC6C, symBinAddr: 0x100026158, symSize: 0x20 }
  - { offsetInCU: 0x1AF6E, offset: 0xC382A, size: 0x8, addend: 0x0, symName: __ZNSt3__16chrono10time_pointINS0_12system_clockENS0_8durationIxNS_5ratioILl1ELl1000000000EEEEEE3maxB8ue170006Ev, symObjAddr: 0xAC8C, symBinAddr: 0x100026178, symSize: 0x38 }
  - { offsetInCU: 0x1AF82, offset: 0xC383E, size: 0x8, addend: 0x0, symName: __ZNSt3__16chrono10time_pointINS0_12system_clockENS0_8durationIxNS_5ratioILl1ELl1000000000EEEEEEC1B8ue170006ERKS6_, symObjAddr: 0xACC4, symBinAddr: 0x1000261B0, symSize: 0x34 }
  - { offsetInCU: 0x1AFB8, offset: 0xC3874, size: 0x8, addend: 0x0, symName: __ZNSt3__16chrono15duration_valuesIxE4zeroB8ue170006Ev, symObjAddr: 0xACF8, symBinAddr: 0x1000261E4, symSize: 0x8 }
  - { offsetInCU: 0x1AFCC, offset: 0xC3888, size: 0x8, addend: 0x0, symName: __ZNKSt3__16chrono8durationIxNS_5ratioILl1ELl1000000EEEE5countB8ue170006Ev, symObjAddr: 0xAD00, symBinAddr: 0x1000261EC, symSize: 0x18 }
  - { offsetInCU: 0x1AFF1, offset: 0xC38AD, size: 0x8, addend: 0x0, symName: __ZNSt3__16chrono10time_pointINS0_12system_clockENS0_8durationIxNS_5ratioILl1ELl1000000000EEEEEEC2B8ue170006ERKS6_, symObjAddr: 0xAD18, symBinAddr: 0x100026204, symSize: 0x24 }
  - { offsetInCU: 0x1B028, offset: 0xC38E4, size: 0x8, addend: 0x0, symName: __ZNSt3__16chrono8durationIxNS_5ratioILl1ELl1000000000EEEEC1B8ue170006IxNS2_ILl1ELl1EEEEERKNS1_IT_T0_EEPNS_9enable_ifIXaasr13__no_overflowIS8_S3_EE5valueooL_ZNS_17integral_constantIbLb0EE5valueEEaaeqsr13__no_overflowIS8_S3_E4typeE3denLi1Entsr23treat_as_floating_pointIS7_EE5valueEvE4typeE, symObjAddr: 0xAE28, symBinAddr: 0x100026314, symSize: 0x3C }
  - { offsetInCU: 0x1B07E, offset: 0xC393A, size: 0x8, addend: 0x0, symName: __ZNSt3__16chrono8durationIxNS_5ratioILl1ELl1000000000EEEEC2B8ue170006IxNS2_ILl1ELl1EEEEERKNS1_IT_T0_EEPNS_9enable_ifIXaasr13__no_overflowIS8_S3_EE5valueooL_ZNS_17integral_constantIbLb0EE5valueEEaaeqsr13__no_overflowIS8_S3_E4typeE3denLi1Entsr23treat_as_floating_pointIS7_EE5valueEvE4typeE, symObjAddr: 0xAE64, symBinAddr: 0x100026350, symSize: 0x50 }
  - { offsetInCU: 0x1B0D4, offset: 0xC3990, size: 0x8, addend: 0x0, symName: __ZNKSt3__16chrono8durationIxNS_5ratioILl1ELl1EEEE5countB8ue170006Ev, symObjAddr: 0xAF30, symBinAddr: 0x10002641C, symSize: 0x18 }
  - { offsetInCU: 0x1B0F9, offset: 0xC39B5, size: 0x8, addend: 0x0, symName: __ZNSt3__111unique_lockINS_5mutexEED2B8ue170006Ev, symObjAddr: 0xAF48, symBinAddr: 0x100026434, symSize: 0x4C }
  - { offsetInCU: 0x1B121, offset: 0xC39DD, size: 0x8, addend: 0x0, symName: '__ZNSt3__112__tuple_leafILm1EZN16EditorController17startAutoSaveLoopENS_4__fs10filesystem4pathEE3$_0Lb0EE3getB8ue170006Ev', symObjAddr: 0xAF94, symBinAddr: 0x100026480, symSize: 0x14 }
  - { offsetInCU: 0x1B146, offset: 0xC3A02, size: 0x8, addend: 0x0, symName: '__ZNKSt3__117__compressed_pairIPNS_5tupleIJNS_10unique_ptrINS_15__thread_structENS_14default_deleteIS3_EEEEZN16EditorController17startAutoSaveLoopENS_4__fs10filesystem4pathEE3$_0EEENS4_ISC_EEE5firstB8ue170006Ev', symObjAddr: 0xAFA8, symBinAddr: 0x100026494, symSize: 0x24 }
  - { offsetInCU: 0x1B16B, offset: 0xC3A27, size: 0x8, addend: 0x0, symName: '__ZNKSt3__122__compressed_pair_elemIPNS_5tupleIJNS_10unique_ptrINS_15__thread_structENS_14default_deleteIS3_EEEEZN16EditorController17startAutoSaveLoopENS_4__fs10filesystem4pathEE3$_0EEELi0ELb0EE5__getB8ue170006Ev', symObjAddr: 0xAFCC, symBinAddr: 0x1000264B8, symSize: 0x14 }
  - { offsetInCU: 0x1B190, offset: 0xC3A4C, size: 0x8, addend: 0x0, symName: '__ZNSt3__117__compressed_pairIPNS_5tupleIJNS_10unique_ptrINS_15__thread_structENS_14default_deleteIS3_EEEEZN16EditorController17startAutoSaveLoopENS_4__fs10filesystem4pathEE3$_0EEENS4_ISC_EEE5firstB8ue170006Ev', symObjAddr: 0xAFE0, symBinAddr: 0x1000264CC, symSize: 0x24 }
  - { offsetInCU: 0x1B1B5, offset: 0xC3A71, size: 0x8, addend: 0x0, symName: '__ZNSt3__122__compressed_pair_elemIPNS_5tupleIJNS_10unique_ptrINS_15__thread_structENS_14default_deleteIS3_EEEEZN16EditorController17startAutoSaveLoopENS_4__fs10filesystem4pathEE3$_0EEELi0ELb0EE5__getB8ue170006Ev', symObjAddr: 0xB004, symBinAddr: 0x1000264F0, symSize: 0x14 }
  - { offsetInCU: 0x1B1DA, offset: 0xC3A96, size: 0x8, addend: 0x0, symName: '__ZNSt3__110unique_ptrINS_5tupleIJNS0_INS_15__thread_structENS_14default_deleteIS2_EEEEZN16EditorController17startAutoSaveLoopENS_4__fs10filesystem4pathEE3$_0EEENS3_ISB_EEED2B8ue170006Ev', symObjAddr: 0xB018, symBinAddr: 0x100026504, symSize: 0x30 }
  - { offsetInCU: 0x1B202, offset: 0xC3ABE, size: 0x8, addend: 0x0, symName: '__ZNSt3__110unique_ptrINS_5tupleIJNS0_INS_15__thread_structENS_14default_deleteIS2_EEEEZN16EditorController17startAutoSaveLoopENS_4__fs10filesystem4pathEE3$_0EEENS3_ISB_EEE5resetB8ue170006EPSB_', symObjAddr: 0xB048, symBinAddr: 0x100026534, symSize: 0x78 }
  - { offsetInCU: 0x1B247, offset: 0xC3B03, size: 0x8, addend: 0x0, symName: '__ZNSt3__117__compressed_pairIPNS_5tupleIJNS_10unique_ptrINS_15__thread_structENS_14default_deleteIS3_EEEEZN16EditorController17startAutoSaveLoopENS_4__fs10filesystem4pathEE3$_0EEENS4_ISC_EEE6secondB8ue170006Ev', symObjAddr: 0xB0C0, symBinAddr: 0x1000265AC, symSize: 0x24 }
  - { offsetInCU: 0x1B26C, offset: 0xC3B28, size: 0x8, addend: 0x0, symName: '__ZNKSt3__114default_deleteINS_5tupleIJNS_10unique_ptrINS_15__thread_structENS0_IS3_EEEEZN16EditorController17startAutoSaveLoopENS_4__fs10filesystem4pathEE3$_0EEEEclB8ue170006EPSB_', symObjAddr: 0xB0E4, symBinAddr: 0x1000265D0, symSize: 0x4C }
  - { offsetInCU: 0x1B29F, offset: 0xC3B5B, size: 0x8, addend: 0x0, symName: '__ZNSt3__122__compressed_pair_elemINS_14default_deleteINS_5tupleIJNS_10unique_ptrINS_15__thread_structENS1_IS4_EEEEZN16EditorController17startAutoSaveLoopENS_4__fs10filesystem4pathEE3$_0EEEEELi1ELb1EE5__getB8ue170006Ev', symObjAddr: 0xB130, symBinAddr: 0x10002661C, symSize: 0x14 }
  - { offsetInCU: 0x1B2C4, offset: 0xC3B80, size: 0x8, addend: 0x0, symName: '__ZNSt3__15tupleIJNS_10unique_ptrINS_15__thread_structENS_14default_deleteIS2_EEEEZN16EditorController17startAutoSaveLoopENS_4__fs10filesystem4pathEE3$_0EED1Ev', symObjAddr: 0xB144, symBinAddr: 0x100026630, symSize: 0x2C }
  - { offsetInCU: 0x1B2F0, offset: 0xC3BAC, size: 0x8, addend: 0x0, symName: '__ZNSt3__15tupleIJNS_10unique_ptrINS_15__thread_structENS_14default_deleteIS2_EEEEZN16EditorController17startAutoSaveLoopENS_4__fs10filesystem4pathEE3$_0EED2Ev', symObjAddr: 0xB170, symBinAddr: 0x10002665C, symSize: 0x2C }
  - { offsetInCU: 0x1B31C, offset: 0xC3BD8, size: 0x8, addend: 0x0, symName: '__ZNSt3__112__tuple_implINS_15__tuple_indicesIJLm0ELm1EEEEJNS_10unique_ptrINS_15__thread_structENS_14default_deleteIS4_EEEEZN16EditorController17startAutoSaveLoopENS_4__fs10filesystem4pathEE3$_0EED1Ev', symObjAddr: 0xB19C, symBinAddr: 0x100026688, symSize: 0x2C }
  - { offsetInCU: 0x1B348, offset: 0xC3C04, size: 0x8, addend: 0x0, symName: '__ZNSt3__112__tuple_implINS_15__tuple_indicesIJLm0ELm1EEEEJNS_10unique_ptrINS_15__thread_structENS_14default_deleteIS4_EEEEZN16EditorController17startAutoSaveLoopENS_4__fs10filesystem4pathEE3$_0EED2Ev', symObjAddr: 0xB1C8, symBinAddr: 0x1000266B4, symSize: 0x38 }
  - { offsetInCU: 0x1B374, offset: 0xC3C30, size: 0x8, addend: 0x0, symName: '__ZNSt3__112__tuple_leafILm1EZN16EditorController17startAutoSaveLoopENS_4__fs10filesystem4pathEE3$_0Lb0EED2Ev', symObjAddr: 0xB200, symBinAddr: 0x1000266EC, symSize: 0x2C }
  - { offsetInCU: 0x1B3A0, offset: 0xC3C5C, size: 0x8, addend: 0x0, symName: __ZNSt3__112__tuple_leafILm0ENS_10unique_ptrINS_15__thread_structENS_14default_deleteIS2_EEEELb0EED2Ev, symObjAddr: 0xB22C, symBinAddr: 0x100026718, symSize: 0x2C }
  - { offsetInCU: 0x1B3CC, offset: 0xC3C88, size: 0x8, addend: 0x0, symName: __ZNSt3__110unique_ptrINS_15__thread_structENS_14default_deleteIS1_EEED2B8ue170006Ev, symObjAddr: 0xB258, symBinAddr: 0x100026744, symSize: 0x30 }
  - { offsetInCU: 0x1B3F4, offset: 0xC3CB0, size: 0x8, addend: 0x0, symName: __ZNSt3__110unique_ptrINS_15__thread_structENS_14default_deleteIS1_EEE5resetB8ue170006EPS1_, symObjAddr: 0xB288, symBinAddr: 0x100026774, symSize: 0x78 }
  - { offsetInCU: 0x1B439, offset: 0xC3CF5, size: 0x8, addend: 0x0, symName: __ZNKSt3__114default_deleteINS_15__thread_structEEclB8ue170006EPS1_, symObjAddr: 0xB300, symBinAddr: 0x1000267EC, symSize: 0x4C }
  - { offsetInCU: 0x26, offset: 0xC423B, size: 0x8, addend: 0x0, symName: __ZN12NotifyActionC2ENSt3__112basic_stringIcNS0_11char_traitsIcEENS0_9allocatorIcEEEE, symObjAddr: 0x0, symBinAddr: 0x100026838, symSize: 0x84 }
  - { offsetInCU: 0xE4CB, offset: 0xD26E0, size: 0x8, addend: 0x0, symName: __ZN12NotifyActionC2ENSt3__112basic_stringIcNS0_11char_traitsIcEENS0_9allocatorIcEEEE, symObjAddr: 0x0, symBinAddr: 0x100026838, symSize: 0x84 }
  - { offsetInCU: 0xE505, offset: 0xD271A, size: 0x8, addend: 0x0, symName: __ZN6ActionC2Ev, symObjAddr: 0x84, symBinAddr: 0x1000268BC, symSize: 0x24 }
  - { offsetInCU: 0xE52E, offset: 0xD2743, size: 0x8, addend: 0x0, symName: __ZN6ActionD2Ev, symObjAddr: 0xA8, symBinAddr: 0x1000268E0, symSize: 0x14 }
  - { offsetInCU: 0xE557, offset: 0xD276C, size: 0x8, addend: 0x0, symName: __ZN12NotifyActionC1ENSt3__112basic_stringIcNS0_11char_traitsIcEENS0_9allocatorIcEEEE, symObjAddr: 0xBC, symBinAddr: 0x1000268F4, symSize: 0x34 }
  - { offsetInCU: 0xE591, offset: 0xD27A6, size: 0x8, addend: 0x0, symName: __ZN12NotifyAction5applyER16ExecutionContext, symObjAddr: 0xF0, symBinAddr: 0x100026928, symSize: 0x78 }
  - { offsetInCU: 0xE5C6, offset: 0xD27DB, size: 0x8, addend: 0x0, symName: __ZN12NotifyActionD1Ev, symObjAddr: 0x168, symBinAddr: 0x1000269A0, symSize: 0x2C }
  - { offsetInCU: 0xE5EE, offset: 0xD2803, size: 0x8, addend: 0x0, symName: __ZN12NotifyActionD0Ev, symObjAddr: 0x194, symBinAddr: 0x1000269CC, symSize: 0x30 }
  - { offsetInCU: 0xE616, offset: 0xD282B, size: 0x8, addend: 0x0, symName: __ZNK6Action11canBeUndoneEv, symObjAddr: 0x1C4, symBinAddr: 0x1000269FC, symSize: 0x18 }
  - { offsetInCU: 0xE63B, offset: 0xD2850, size: 0x8, addend: 0x0, symName: __ZN6Action4undoER11EditorState, symObjAddr: 0x1DC, symBinAddr: 0x100026A14, symSize: 0x14 }
  - { offsetInCU: 0xE66E, offset: 0xD2883, size: 0x8, addend: 0x0, symName: __ZNK6Action9canAbsorbERKNSt3__110shared_ptrIS_EE, symObjAddr: 0x1F0, symBinAddr: 0x100026A28, symSize: 0x1C }
  - { offsetInCU: 0xE6A1, offset: 0xD28B6, size: 0x8, addend: 0x0, symName: __ZN6Action6absorbERKNSt3__110shared_ptrIS_EE, symObjAddr: 0x20C, symBinAddr: 0x100026A44, symSize: 0x14 }
  - { offsetInCU: 0xE6D4, offset: 0xD28E9, size: 0x8, addend: 0x0, symName: __ZN6ActionD1Ev, symObjAddr: 0x220, symBinAddr: 0x100026A58, symSize: 0x14 }
  - { offsetInCU: 0xE6FD, offset: 0xD2912, size: 0x8, addend: 0x0, symName: __ZN6ActionD0Ev, symObjAddr: 0x234, symBinAddr: 0x100026A6C, symSize: 0xC }
  - { offsetInCU: 0xE726, offset: 0xD293B, size: 0x8, addend: 0x0, symName: __ZN12NotifyActionD2Ev, symObjAddr: 0x240, symBinAddr: 0x100026A78, symSize: 0x48 }
  - { offsetInCU: 0xCBF9, offset: 0xDF56B, size: 0x8, addend: 0x0, symName: __ZNSt3__1neB8ue170006IPNS_10shared_ptrI6ActionEEEEbRKNS_11__wrap_iterIT_EES9_, symObjAddr: 0x214, symBinAddr: 0x100026C9C, symSize: 0x34 }
  - { offsetInCU: 0xCC3C, offset: 0xDF5AE, size: 0x8, addend: 0x0, symName: __ZNSt3__1neB8ue170006INS_11__wrap_iterIPNS_10shared_ptrI6ActionEEEES6_EEbRKNS_16reverse_iteratorIT_EERKNS7_IT0_EE, symObjAddr: 0x37C, symBinAddr: 0x100026DEC, symSize: 0x54 }
  - { offsetInCU: 0xCC88, offset: 0xDF5FA, size: 0x8, addend: 0x0, symName: __ZNSt3__1neB8ue170006IPKNS_10shared_ptrI6ActionEEEEbRKNS_11__wrap_iterIT_EESA_, symObjAddr: 0x60C, symBinAddr: 0x10002707C, symSize: 0x34 }
  - { offsetInCU: 0xCCCB, offset: 0xDF63D, size: 0x8, addend: 0x0, symName: __ZNSt3__130__uninitialized_allocator_copyB8ue170006INS_9allocatorINS_10shared_ptrI6ActionEEEEPS4_S6_S6_EET2_RT_T0_T1_S7_, symObjAddr: 0x1374, symBinAddr: 0x10002732C, symSize: 0x80 }
